
obj/user/graphics:     file format elf64-x86-64


Disassembly of section .text:

0000000000800000 <__text_start>:
.globl _start
_start:
    # See if we were started with arguments on the stack

#ifndef CONFIG_KSPACE
    movabs $USER_STACK_TOP, %rax
  800000:	48 b8 00 70 ff ff 7f 	movabs $0x7fffff7000,%rax
  800007:	00 00 00 
    cmpq %rax, %rsp
  80000a:	48 39 c4             	cmp    %rax,%rsp
    jne args_exist
  80000d:	75 04                	jne    800013 <args_exist>

    # If not, push dummy argc/argv arguments.
    # This happens when we are loaded by the kernel,
    # because the kernel does not know about passing arguments.
    # Marking argc and argv as zero.
    pushq $0
  80000f:	6a 00                	push   $0x0
    pushq $0
  800011:	6a 00                	push   $0x0

0000000000800013 <args_exist>:

args_exist:
    movq 8(%rsp), %rsi
  800013:	48 8b 74 24 08       	mov    0x8(%rsp),%rsi
    movq (%rsp), %rdi
  800018:	48 8b 3c 24          	mov    (%rsp),%rdi
    xorl %ebp, %ebp
  80001c:	31 ed                	xor    %ebp,%ebp
    call libmain
  80001e:	e8 c6 02 00 00       	call   8002e9 <libmain>
    jmp .
  800023:	eb fe                	jmp    800023 <args_exist+0x10>

0000000000800025 <draw_pixel>:

int DISPLAY_WIDTH = 0;
int DISPLAY_HEIGHT = 0;

void draw_pixel(char *buf, int x, int y, int color) {
   buf[y * DISPLAY_WIDTH + x] = color;  
  800025:	48 b8 04 50 81 00 00 	movabs $0x815004,%rax
  80002c:	00 00 00 
  80002f:	0f af 10             	imul   (%rax),%edx
  800032:	01 f2                	add    %esi,%edx
  800034:	48 63 d2             	movslq %edx,%rdx
  800037:	88 0c 17             	mov    %cl,(%rdi,%rdx,1)
}
  80003a:	c3                   	ret    

000000000080003b <draw_line>:

void draw_line(char* buf, int x0, int y0, int x1, int y1, int color)
{
  80003b:	55                   	push   %rbp
  80003c:	48 89 e5             	mov    %rsp,%rbp
  80003f:	53                   	push   %rbx
    int dx, dy, p, x, y;
 
	dx = x1 - x0;
  800040:	89 cb                	mov    %ecx,%ebx
  800042:	29 f3                	sub    %esi,%ebx
	dy = y1 - y0;
  800044:	41 29 d0             	sub    %edx,%r8d
 
	x = x0;
	y = y0;
 
	p = 2 * dy - dx;
  800047:	45 01 c0             	add    %r8d,%r8d
  80004a:	44 89 c0             	mov    %r8d,%eax
  80004d:	29 d8                	sub    %ebx,%eax
 
	while(x < x1)
  80004f:	39 f1                	cmp    %esi,%ecx
  800051:	7e 49                	jle    80009c <draw_line+0x61>
  800053:	49 89 fa             	mov    %rdi,%r10
  800056:	89 d7                	mov    %edx,%edi
	{
		if(p >= 0)
		{
			draw_pixel(buf, x, y, color);
			y = y + 1;
			p= p + 2 * dy - 2 * dx;
  800058:	01 db                	add    %ebx,%ebx
   buf[y * DISPLAY_WIDTH + x] = color;  
  80005a:	49 bb 04 50 81 00 00 	movabs $0x815004,%r11
  800061:	00 00 00 
  800064:	eb 1e                	jmp    800084 <draw_line+0x49>
  800066:	89 fa                	mov    %edi,%edx
  800068:	41 0f af 13          	imul   (%r11),%edx
  80006c:	01 f2                	add    %esi,%edx
  80006e:	48 63 d2             	movslq %edx,%rdx
  800071:	45 88 0c 12          	mov    %r9b,(%r10,%rdx,1)
			y = y + 1;
  800075:	83 c7 01             	add    $0x1,%edi
			p= p + 2 * dy - 2 * dx;
  800078:	44 01 c0             	add    %r8d,%eax
  80007b:	29 d8                	sub    %ebx,%eax
		else
		{
			draw_pixel(buf, x, y, color);
			p = p + 2 * dy;
		}
		x = x + 1;
  80007d:	83 c6 01             	add    $0x1,%esi
	while(x < x1)
  800080:	39 f1                	cmp    %esi,%ecx
  800082:	74 18                	je     80009c <draw_line+0x61>
		if(p >= 0)
  800084:	85 c0                	test   %eax,%eax
  800086:	79 de                	jns    800066 <draw_line+0x2b>
   buf[y * DISPLAY_WIDTH + x] = color;  
  800088:	89 fa                	mov    %edi,%edx
  80008a:	41 0f af 13          	imul   (%r11),%edx
  80008e:	01 f2                	add    %esi,%edx
  800090:	48 63 d2             	movslq %edx,%rdx
  800093:	45 88 0c 12          	mov    %r9b,(%r10,%rdx,1)
			p = p + 2 * dy;
  800097:	44 01 c0             	add    %r8d,%eax
  80009a:	eb e1                	jmp    80007d <draw_line+0x42>
	}
}
  80009c:	48 8b 5d f8          	mov    -0x8(%rbp),%rbx
  8000a0:	c9                   	leave  
  8000a1:	c3                   	ret    

00000000008000a2 <draw_rectangle>:


//position of upper left corner x, y
void draw_rectangle(char *buf, int x, int y, int width, int height, int color) {
  8000a2:	55                   	push   %rbp
  8000a3:	48 89 e5             	mov    %rsp,%rbp
  8000a6:	41 57                	push   %r15
  8000a8:	41 56                	push   %r14
  8000aa:	41 55                	push   %r13
  8000ac:	41 54                	push   %r12
  8000ae:	53                   	push   %rbx
  8000af:	48 83 ec 18          	sub    $0x18,%rsp
  8000b3:	48 89 7d c8          	mov    %rdi,-0x38(%rbp)
  8000b7:	44 89 4d c4          	mov    %r9d,-0x3c(%rbp)
    if (x + width > DISPLAY_WIDTH || y + height > DISPLAY_HEIGHT)
  8000bb:	44 8d 2c 0e          	lea    (%rsi,%rcx,1),%r13d
  8000bf:	48 b8 04 50 81 00 00 	movabs $0x815004,%rax
  8000c6:	00 00 00 
  8000c9:	44 3b 28             	cmp    (%rax),%r13d
  8000cc:	7f 46                	jg     800114 <draw_rectangle+0x72>
  8000ce:	41 89 f6             	mov    %esi,%r14d
  8000d1:	89 d3                	mov    %edx,%ebx
  8000d3:	44 01 c2             	add    %r8d,%edx
  8000d6:	48 b8 00 50 81 00 00 	movabs $0x815000,%rax
  8000dd:	00 00 00 
  8000e0:	3b 10                	cmp    (%rax),%edx
  8000e2:	7f 30                	jg     800114 <draw_rectangle+0x72>
        return;
    for (int i = 0; i < height; ++i) {
  8000e4:	45 85 c0             	test   %r8d,%r8d
  8000e7:	7e 2b                	jle    800114 <draw_rectangle+0x72>
  8000e9:	41 89 d4             	mov    %edx,%r12d
        draw_line(buf, x, y, x + width, y, color);
  8000ec:	49 bf 3b 00 80 00 00 	movabs $0x80003b,%r15
  8000f3:	00 00 00 
  8000f6:	44 8b 4d c4          	mov    -0x3c(%rbp),%r9d
  8000fa:	41 89 d8             	mov    %ebx,%r8d
  8000fd:	44 89 e9             	mov    %r13d,%ecx
  800100:	89 da                	mov    %ebx,%edx
  800102:	44 89 f6             	mov    %r14d,%esi
  800105:	48 8b 7d c8          	mov    -0x38(%rbp),%rdi
  800109:	41 ff d7             	call   *%r15
        ++y;
  80010c:	83 c3 01             	add    $0x1,%ebx
    for (int i = 0; i < height; ++i) {
  80010f:	41 39 dc             	cmp    %ebx,%r12d
  800112:	75 e2                	jne    8000f6 <draw_rectangle+0x54>
    }
        
        
}
  800114:	48 83 c4 18          	add    $0x18,%rsp
  800118:	5b                   	pop    %rbx
  800119:	41 5c                	pop    %r12
  80011b:	41 5d                	pop    %r13
  80011d:	41 5e                	pop    %r14
  80011f:	41 5f                	pop    %r15
  800121:	5d                   	pop    %rbp
  800122:	c3                   	ret    

0000000000800123 <umain>:

void umain(int argc, char **argv) {
  800123:	55                   	push   %rbp
  800124:	48 89 e5             	mov    %rsp,%rbp
  800127:	53                   	push   %rbx
  800128:	48 83 ec 48          	sub    $0x48,%rsp
   
    binaryname = "graphics";
  80012c:	48 b8 10 14 81 00 00 	movabs $0x811410,%rax
  800133:	00 00 00 
  800136:	48 a3 00 40 81 00 00 	movabs %rax,0x814000
  80013d:	00 00 00 
    FRAMEBUFFER_CONTEXT context;
    int res = FramebufferInit(&context);
  800140:	48 8d 7d c8          	lea    -0x38(%rbp),%rdi
  800144:	48 b8 fc 27 80 00 00 	movabs $0x8027fc,%rax
  80014b:	00 00 00 
  80014e:	ff d0                	call   *%rax
    if (res < 0) {
  800150:	85 c0                	test   %eax,%eax
  800152:	0f 88 e2 00 00 00    	js     80023a <umain+0x117>
        cprintf("error %i\n", res);
        exit();
    }
    DISPLAY_WIDTH = context.width;
  800158:	8b 75 c8             	mov    -0x38(%rbp),%esi
  80015b:	89 f0                	mov    %esi,%eax
  80015d:	a3 04 50 81 00 00 00 	movabs %eax,0x815004
  800164:	00 00 
    DISPLAY_HEIGHT = context.height;
  800166:	8b 55 cc             	mov    -0x34(%rbp),%edx
  800169:	89 d0                	mov    %edx,%eax
  80016b:	a3 00 50 81 00 00 00 	movabs %eax,0x815000
  800172:	00 00 
    cprintf("width: %d, height: %d, bpp: %d framebuffer_size: %d\n", context.width, 
  800174:	44 8b 45 d8          	mov    -0x28(%rbp),%r8d
  800178:	8b 4d d4             	mov    -0x2c(%rbp),%ecx
  80017b:	48 bf 78 14 81 00 00 	movabs $0x811478,%rdi
  800182:	00 00 00 
  800185:	b8 00 00 00 00       	mov    $0x0,%eax
  80018a:	48 bb 67 04 80 00 00 	movabs $0x800467,%rbx
  800191:	00 00 00 
  800194:	ff d3                	call   *%rbx
                                                                    context.height, 
                                                                    context.bits_per_pixel,
                                                                    context.size);
    cprintf("front: %p, back: %p\n", context.front, context.back);
  800196:	48 8b 55 e8          	mov    -0x18(%rbp),%rdx
  80019a:	48 8b 75 e0          	mov    -0x20(%rbp),%rsi
  80019e:	48 bf 23 14 81 00 00 	movabs $0x811423,%rdi
  8001a5:	00 00 00 
  8001a8:	b8 00 00 00 00       	mov    $0x0,%eax
  8001ad:	ff d3                	call   *%rbx
    memset(context.back, 255, context.size);
  8001af:	8b 55 d8             	mov    -0x28(%rbp),%edx
  8001b2:	be ff 00 00 00       	mov    $0xff,%esi
  8001b7:	48 8b 7d e8          	mov    -0x18(%rbp),%rdi
  8001bb:	48 b8 f9 0e 80 00 00 	movabs $0x800ef9,%rax
  8001c2:	00 00 00 
  8001c5:	ff d0                	call   *%rax
  	unsigned error;
  	uint8_t * image;
  	unsigned width, height;
  	const char* filename =  "spaceship.png";
  	error = lodepng_decode32_file(&image, &width, &height, filename);
  8001c7:	48 b9 38 14 81 00 00 	movabs $0x811438,%rcx
  8001ce:	00 00 00 
  8001d1:	48 8d 55 b8          	lea    -0x48(%rbp),%rdx
  8001d5:	48 8d 75 bc          	lea    -0x44(%rbp),%rsi
  8001d9:	48 8d 7d c0          	lea    -0x40(%rbp),%rdi
  8001dd:	48 b8 e7 07 81 00 00 	movabs $0x8107e7,%rax
  8001e4:	00 00 00 
  8001e7:	ff d0                	call   *%rax
  8001e9:	89 c3                	mov    %eax,%ebx
  	if(error) cprintf("decoder error %u: %s\n", error, lodepng_error_text(error));
  8001eb:	85 c0                	test   %eax,%eax
  8001ed:	75 79                	jne    800268 <umain+0x145>
  	/* use image here */
	cprintf("width: %u, height: %u\n", width, height);
  8001ef:	8b 55 b8             	mov    -0x48(%rbp),%edx
  8001f2:	8b 75 bc             	mov    -0x44(%rbp),%esi
  8001f5:	48 bf 5c 14 81 00 00 	movabs $0x81145c,%rdi
  8001fc:	00 00 00 
  8001ff:	b8 00 00 00 00       	mov    $0x0,%eax
  800204:	48 b9 67 04 80 00 00 	movabs $0x800467,%rcx
  80020b:	00 00 00 
  80020e:	ff d1                	call   *%rcx
	
    uint8_t *buf = context.back;
  800210:	48 8b 7d e8          	mov    -0x18(%rbp),%rdi
    for (int i = 0; i  < height; ++i) {
  800214:	41 b8 00 00 00 00    	mov    $0x0,%r8d
  80021a:	83 7d b8 00          	cmpl   $0x0,-0x48(%rbp)
  80021e:	0f 85 b1 00 00 00    	jne    8002d5 <umain+0x1b2>
        for (int j = 0 ; j < width * 4; ++j) {
            buf[i * 4 *  context.width + j] = image[width * 4 * i + j];
        }
    }
    FramebufferFlip(&context);
  800224:	48 8d 7d c8          	lea    -0x38(%rbp),%rdi
  800228:	48 b8 8e 28 80 00 00 	movabs $0x80288e,%rax
  80022f:	00 00 00 
  800232:	ff d0                	call   *%rax
}
  800234:	48 8b 5d f8          	mov    -0x8(%rbp),%rbx
  800238:	c9                   	leave  
  800239:	c3                   	ret    
        cprintf("error %i\n", res);
  80023a:	89 c6                	mov    %eax,%esi
  80023c:	48 bf 19 14 81 00 00 	movabs $0x811419,%rdi
  800243:	00 00 00 
  800246:	b8 00 00 00 00       	mov    $0x0,%eax
  80024b:	48 ba 67 04 80 00 00 	movabs $0x800467,%rdx
  800252:	00 00 00 
  800255:	ff d2                	call   *%rdx
        exit();
  800257:	48 b8 97 03 80 00 00 	movabs $0x800397,%rax
  80025e:	00 00 00 
  800261:	ff d0                	call   *%rax
  800263:	e9 f0 fe ff ff       	jmp    800158 <umain+0x35>
  	if(error) cprintf("decoder error %u: %s\n", error, lodepng_error_text(error));
  800268:	89 c7                	mov    %eax,%edi
  80026a:	48 b8 c0 09 81 00 00 	movabs $0x8109c0,%rax
  800271:	00 00 00 
  800274:	ff d0                	call   *%rax
  800276:	48 89 c2             	mov    %rax,%rdx
  800279:	89 de                	mov    %ebx,%esi
  80027b:	48 bf 46 14 81 00 00 	movabs $0x811446,%rdi
  800282:	00 00 00 
  800285:	b8 00 00 00 00       	mov    $0x0,%eax
  80028a:	48 b9 67 04 80 00 00 	movabs $0x800467,%rcx
  800291:	00 00 00 
  800294:	ff d1                	call   *%rcx
  800296:	e9 54 ff ff ff       	jmp    8001ef <umain+0xcc>
            buf[i * 4 *  context.width + j] = image[width * 4 * i + j];
  80029b:	0f af c1             	imul   %ecx,%eax
  80029e:	8d 04 82             	lea    (%rdx,%rax,4),%eax
  8002a1:	48 8b 75 c0          	mov    -0x40(%rbp),%rsi
  8002a5:	0f b6 34 06          	movzbl (%rsi,%rax,1),%esi
  8002a9:	89 c8                	mov    %ecx,%eax
  8002ab:	0f af 45 c8          	imul   -0x38(%rbp),%eax
  8002af:	8d 04 82             	lea    (%rdx,%rax,4),%eax
  8002b2:	40 88 34 07          	mov    %sil,(%rdi,%rax,1)
        for (int j = 0 ; j < width * 4; ++j) {
  8002b6:	83 c2 01             	add    $0x1,%edx
  8002b9:	8b 45 bc             	mov    -0x44(%rbp),%eax
  8002bc:	8d 34 85 00 00 00 00 	lea    0x0(,%rax,4),%esi
  8002c3:	39 d6                	cmp    %edx,%esi
  8002c5:	77 d4                	ja     80029b <umain+0x178>
    for (int i = 0; i  < height; ++i) {
  8002c7:	41 83 c0 01          	add    $0x1,%r8d
  8002cb:	44 39 45 b8          	cmp    %r8d,-0x48(%rbp)
  8002cf:	0f 86 4f ff ff ff    	jbe    800224 <umain+0x101>
  8002d5:	44 89 c1             	mov    %r8d,%ecx
        for (int j = 0 ; j < width * 4; ++j) {
  8002d8:	8b 45 bc             	mov    -0x44(%rbp),%eax
  8002db:	ba 00 00 00 00       	mov    $0x0,%edx
  8002e0:	89 c3                	mov    %eax,%ebx
  8002e2:	c1 e3 02             	shl    $0x2,%ebx
  8002e5:	75 b4                	jne    80029b <umain+0x178>
  8002e7:	eb de                	jmp    8002c7 <umain+0x1a4>

00000000008002e9 <libmain>:
#ifdef JOS_PROG
void (*volatile sys_exit)(void);
#endif

void
libmain(int argc, char **argv) {
  8002e9:	55                   	push   %rbp
  8002ea:	48 89 e5             	mov    %rsp,%rbp
  8002ed:	41 56                	push   %r14
  8002ef:	41 55                	push   %r13
  8002f1:	41 54                	push   %r12
  8002f3:	53                   	push   %rbx
  8002f4:	41 89 fd             	mov    %edi,%r13d
  8002f7:	49 89 f6             	mov    %rsi,%r14
    /* Perform global constructor initialisation (e.g. asan)
    * This must be done as early as possible */
    extern void (*__ctors_start)(), (*__ctors_end)();
    void (**ctor)() = &__ctors_start;
    while (ctor < &__ctors_end) (*ctor++)();
  8002fa:	48 ba f8 40 81 00 00 	movabs $0x8140f8,%rdx
  800301:	00 00 00 
  800304:	48 b8 f8 40 81 00 00 	movabs $0x8140f8,%rax
  80030b:	00 00 00 
  80030e:	48 39 c2             	cmp    %rax,%rdx
  800311:	73 17                	jae    80032a <libmain+0x41>
    void (**ctor)() = &__ctors_start;
  800313:	48 89 d3             	mov    %rdx,%rbx
    while (ctor < &__ctors_end) (*ctor++)();
  800316:	49 89 c4             	mov    %rax,%r12
  800319:	48 83 c3 08          	add    $0x8,%rbx
  80031d:	b8 00 00 00 00       	mov    $0x0,%eax
  800322:	ff 53 f8             	call   *-0x8(%rbx)
  800325:	4c 39 e3             	cmp    %r12,%rbx
  800328:	72 ef                	jb     800319 <libmain+0x30>

    /* Set thisenv to point at our Env structure in envs[]. */
    // LAB 8: Your code here
    thisenv = &envs[ENVX(sys_getenvid())];
  80032a:	48 b8 a2 12 80 00 00 	movabs $0x8012a2,%rax
  800331:	00 00 00 
  800334:	ff d0                	call   *%rax
  800336:	25 ff 03 00 00       	and    $0x3ff,%eax
  80033b:	48 8d 14 c0          	lea    (%rax,%rax,8),%rdx
  80033f:	48 8d 04 50          	lea    (%rax,%rdx,2),%rax
  800343:	48 c1 e0 04          	shl    $0x4,%rax
  800347:	48 ba 00 00 c0 1f 80 	movabs $0x801fc00000,%rdx
  80034e:	00 00 00 
  800351:	48 01 d0             	add    %rdx,%rax
  800354:	48 a3 08 50 81 00 00 	movabs %rax,0x815008
  80035b:	00 00 00 
    /* Save the name of the program so that panic() can use it */
    if (argc > 0) binaryname = argv[0];
  80035e:	45 85 ed             	test   %r13d,%r13d
  800361:	7e 0d                	jle    800370 <libmain+0x87>
  800363:	49 8b 06             	mov    (%r14),%rax
  800366:	48 a3 00 40 81 00 00 	movabs %rax,0x814000
  80036d:	00 00 00 

    /* Call user main routine */
    umain(argc, argv);
  800370:	4c 89 f6             	mov    %r14,%rsi
  800373:	44 89 ef             	mov    %r13d,%edi
  800376:	48 b8 23 01 80 00 00 	movabs $0x800123,%rax
  80037d:	00 00 00 
  800380:	ff d0                	call   *%rax

#ifdef JOS_PROG
    sys_exit();
#else
    exit();
  800382:	48 b8 97 03 80 00 00 	movabs $0x800397,%rax
  800389:	00 00 00 
  80038c:	ff d0                	call   *%rax
#endif
}
  80038e:	5b                   	pop    %rbx
  80038f:	41 5c                	pop    %r12
  800391:	41 5d                	pop    %r13
  800393:	41 5e                	pop    %r14
  800395:	5d                   	pop    %rbp
  800396:	c3                   	ret    

0000000000800397 <exit>:

#include <inc/lib.h>

void
exit(void) {
  800397:	55                   	push   %rbp
  800398:	48 89 e5             	mov    %rsp,%rbp
    close_all();
  80039b:	48 b8 f2 18 80 00 00 	movabs $0x8018f2,%rax
  8003a2:	00 00 00 
  8003a5:	ff d0                	call   *%rax
    sys_env_destroy(0);
  8003a7:	bf 00 00 00 00       	mov    $0x0,%edi
  8003ac:	48 b8 37 12 80 00 00 	movabs $0x801237,%rax
  8003b3:	00 00 00 
  8003b6:	ff d0                	call   *%rax
}
  8003b8:	5d                   	pop    %rbp
  8003b9:	c3                   	ret    

00000000008003ba <putch>:
    int count;  /* total bytes printed so far */
    char buf[PRINTBUFSZ];
};

static void
putch(int ch, struct printbuf *state) {
  8003ba:	55                   	push   %rbp
  8003bb:	48 89 e5             	mov    %rsp,%rbp
  8003be:	53                   	push   %rbx
  8003bf:	48 83 ec 08          	sub    $0x8,%rsp
  8003c3:	48 89 f3             	mov    %rsi,%rbx
    state->buf[state->offset++] = (char)ch;
  8003c6:	8b 06                	mov    (%rsi),%eax
  8003c8:	8d 50 01             	lea    0x1(%rax),%edx
  8003cb:	89 16                	mov    %edx,(%rsi)
  8003cd:	48 98                	cltq   
  8003cf:	40 88 7c 06 08       	mov    %dil,0x8(%rsi,%rax,1)
    if (state->offset == PRINTBUFSZ - 1) {
  8003d4:	81 fa ff 00 00 00    	cmp    $0xff,%edx
  8003da:	74 0a                	je     8003e6 <putch+0x2c>
        sys_cputs(state->buf, state->offset);
        state->offset = 0;
    }
    state->count++;
  8003dc:	83 43 04 01          	addl   $0x1,0x4(%rbx)
}
  8003e0:	48 8b 5d f8          	mov    -0x8(%rbp),%rbx
  8003e4:	c9                   	leave  
  8003e5:	c3                   	ret    
        sys_cputs(state->buf, state->offset);
  8003e6:	48 8d 7e 08          	lea    0x8(%rsi),%rdi
  8003ea:	be ff 00 00 00       	mov    $0xff,%esi
  8003ef:	48 b8 d9 11 80 00 00 	movabs $0x8011d9,%rax
  8003f6:	00 00 00 
  8003f9:	ff d0                	call   *%rax
        state->offset = 0;
  8003fb:	c7 03 00 00 00 00    	movl   $0x0,(%rbx)
  800401:	eb d9                	jmp    8003dc <putch+0x22>

0000000000800403 <vcprintf>:

int
vcprintf(const char *fmt, va_list ap) {
  800403:	55                   	push   %rbp
  800404:	48 89 e5             	mov    %rsp,%rbp
  800407:	48 81 ec 10 01 00 00 	sub    $0x110,%rsp
  80040e:	48 89 fa             	mov    %rdi,%rdx
    struct printbuf state = {0};
  800411:	48 8d bd f8 fe ff ff 	lea    -0x108(%rbp),%rdi
  800418:	b9 21 00 00 00       	mov    $0x21,%ecx
  80041d:	b8 00 00 00 00       	mov    $0x0,%eax
  800422:	f3 48 ab             	rep stos %rax,%es:(%rdi)

    vprintfmt((void *)putch, &state, fmt, ap);
  800425:	48 89 f1             	mov    %rsi,%rcx
  800428:	48 8d b5 f8 fe ff ff 	lea    -0x108(%rbp),%rsi
  80042f:	48 bf ba 03 80 00 00 	movabs $0x8003ba,%rdi
  800436:	00 00 00 
  800439:	48 b8 b7 05 80 00 00 	movabs $0x8005b7,%rax
  800440:	00 00 00 
  800443:	ff d0                	call   *%rax
    sys_cputs(state.buf, state.offset);
  800445:	48 63 b5 f8 fe ff ff 	movslq -0x108(%rbp),%rsi
  80044c:	48 8d bd 00 ff ff ff 	lea    -0x100(%rbp),%rdi
  800453:	48 b8 d9 11 80 00 00 	movabs $0x8011d9,%rax
  80045a:	00 00 00 
  80045d:	ff d0                	call   *%rax

    return state.count;
}
  80045f:	8b 85 fc fe ff ff    	mov    -0x104(%rbp),%eax
  800465:	c9                   	leave  
  800466:	c3                   	ret    

0000000000800467 <cprintf>:

int
cprintf(const char *fmt, ...) {
  800467:	55                   	push   %rbp
  800468:	48 89 e5             	mov    %rsp,%rbp
  80046b:	48 83 ec 50          	sub    $0x50,%rsp
  80046f:	48 89 75 d8          	mov    %rsi,-0x28(%rbp)
  800473:	48 89 55 e0          	mov    %rdx,-0x20(%rbp)
  800477:	48 89 4d e8          	mov    %rcx,-0x18(%rbp)
  80047b:	4c 89 45 f0          	mov    %r8,-0x10(%rbp)
  80047f:	4c 89 4d f8          	mov    %r9,-0x8(%rbp)
    va_list ap;
    int count;

    va_start(ap, fmt);
  800483:	c7 45 b8 08 00 00 00 	movl   $0x8,-0x48(%rbp)
  80048a:	48 8d 45 10          	lea    0x10(%rbp),%rax
  80048e:	48 89 45 c0          	mov    %rax,-0x40(%rbp)
  800492:	48 8d 45 d0          	lea    -0x30(%rbp),%rax
  800496:	48 89 45 c8          	mov    %rax,-0x38(%rbp)
    count = vcprintf(fmt, ap);
  80049a:	48 8d 75 b8          	lea    -0x48(%rbp),%rsi
  80049e:	48 b8 03 04 80 00 00 	movabs $0x800403,%rax
  8004a5:	00 00 00 
  8004a8:	ff d0                	call   *%rax
    va_end(ap);

    return count;
}
  8004aa:	c9                   	leave  
  8004ab:	c3                   	ret    

00000000008004ac <print_num>:
 * Print a number (base <= 16) in reverse order,
 * using specified putch function and associated pointer putdat.
 */
static void
print_num(void (*putch)(int, void *), void *put_arg,
          uintmax_t num, unsigned base, int width, char padc, bool capital) {
  8004ac:	55                   	push   %rbp
  8004ad:	48 89 e5             	mov    %rsp,%rbp
  8004b0:	41 57                	push   %r15
  8004b2:	41 56                	push   %r14
  8004b4:	41 55                	push   %r13
  8004b6:	41 54                	push   %r12
  8004b8:	53                   	push   %rbx
  8004b9:	48 83 ec 18          	sub    $0x18,%rsp
  8004bd:	49 89 fc             	mov    %rdi,%r12
  8004c0:	49 89 f5             	mov    %rsi,%r13
  8004c3:	48 89 55 c8          	mov    %rdx,-0x38(%rbp)
  8004c7:	8b 45 10             	mov    0x10(%rbp),%eax
  8004ca:	89 45 c4             	mov    %eax,-0x3c(%rbp)
    /* First recursively print all preceding (more significant) digits */
    if (num >= base) {
  8004cd:	41 89 cf             	mov    %ecx,%r15d
  8004d0:	49 39 d7             	cmp    %rdx,%r15
  8004d3:	76 5b                	jbe    800530 <print_num+0x84>
        print_num(putch, put_arg, num / base, base, width - 1, padc, capital);
    } else {
        /* Print any needed pad characters before first digit */
        while (--width > 0) {
  8004d5:	41 8d 58 ff          	lea    -0x1(%r8),%ebx
            putch(padc, put_arg);
  8004d9:	45 0f be f1          	movsbl %r9b,%r14d
        while (--width > 0) {
  8004dd:	85 db                	test   %ebx,%ebx
  8004df:	7e 0e                	jle    8004ef <print_num+0x43>
            putch(padc, put_arg);
  8004e1:	4c 89 ee             	mov    %r13,%rsi
  8004e4:	44 89 f7             	mov    %r14d,%edi
  8004e7:	41 ff d4             	call   *%r12
        while (--width > 0) {
  8004ea:	83 eb 01             	sub    $0x1,%ebx
  8004ed:	75 f2                	jne    8004e1 <print_num+0x35>
        }
    }

    const char *dig = capital ? "0123456789ABCDEF" : "0123456789abcdef";
  8004ef:	80 7d c4 00          	cmpb   $0x0,-0x3c(%rbp)
  8004f3:	48 b9 b7 14 81 00 00 	movabs $0x8114b7,%rcx
  8004fa:	00 00 00 
  8004fd:	48 b8 c8 14 81 00 00 	movabs $0x8114c8,%rax
  800504:	00 00 00 
  800507:	48 0f 44 c8          	cmove  %rax,%rcx

    /* Then print this (the least significant) digit */
    putch(dig[num % base], put_arg);
  80050b:	48 8b 45 c8          	mov    -0x38(%rbp),%rax
  80050f:	ba 00 00 00 00       	mov    $0x0,%edx
  800514:	49 f7 f7             	div    %r15
  800517:	0f be 3c 11          	movsbl (%rcx,%rdx,1),%edi
  80051b:	4c 89 ee             	mov    %r13,%rsi
  80051e:	41 ff d4             	call   *%r12
}
  800521:	48 8d 65 d8          	lea    -0x28(%rbp),%rsp
  800525:	5b                   	pop    %rbx
  800526:	41 5c                	pop    %r12
  800528:	41 5d                	pop    %r13
  80052a:	41 5e                	pop    %r14
  80052c:	41 5f                	pop    %r15
  80052e:	5d                   	pop    %rbp
  80052f:	c3                   	ret    
        print_num(putch, put_arg, num / base, base, width - 1, padc, capital);
  800530:	48 8b 45 c8          	mov    -0x38(%rbp),%rax
  800534:	ba 00 00 00 00       	mov    $0x0,%edx
  800539:	49 f7 f7             	div    %r15
  80053c:	48 83 ec 08          	sub    $0x8,%rsp
  800540:	0f b6 55 c4          	movzbl -0x3c(%rbp),%edx
  800544:	52                   	push   %rdx
  800545:	45 0f be c9          	movsbl %r9b,%r9d
  800549:	45 8d 40 ff          	lea    -0x1(%r8),%r8d
  80054d:	48 89 c2             	mov    %rax,%rdx
  800550:	48 b8 ac 04 80 00 00 	movabs $0x8004ac,%rax
  800557:	00 00 00 
  80055a:	ff d0                	call   *%rax
  80055c:	48 83 c4 10          	add    $0x10,%rsp
  800560:	eb 8d                	jmp    8004ef <print_num+0x43>

0000000000800562 <sprintputch>:
    int count;
};

static void
sprintputch(int ch, struct sprintbuf *state) {
    state->count++;
  800562:	83 46 10 01          	addl   $0x1,0x10(%rsi)
    if (state->start < state->end) {
  800566:	48 8b 06             	mov    (%rsi),%rax
  800569:	48 3b 46 08          	cmp    0x8(%rsi),%rax
  80056d:	73 0a                	jae    800579 <sprintputch+0x17>
        *state->start++ = ch;
  80056f:	48 8d 50 01          	lea    0x1(%rax),%rdx
  800573:	48 89 16             	mov    %rdx,(%rsi)
  800576:	40 88 38             	mov    %dil,(%rax)
    }
}
  800579:	c3                   	ret    

000000000080057a <printfmt>:
printfmt(void (*putch)(int, void *), void *putdat, const char *fmt, ...) {
  80057a:	55                   	push   %rbp
  80057b:	48 89 e5             	mov    %rsp,%rbp
  80057e:	48 83 ec 50          	sub    $0x50,%rsp
  800582:	48 89 4d e8          	mov    %rcx,-0x18(%rbp)
  800586:	4c 89 45 f0          	mov    %r8,-0x10(%rbp)
  80058a:	4c 89 4d f8          	mov    %r9,-0x8(%rbp)
    va_start(ap, fmt);
  80058e:	c7 45 b8 18 00 00 00 	movl   $0x18,-0x48(%rbp)
  800595:	48 8d 45 10          	lea    0x10(%rbp),%rax
  800599:	48 89 45 c0          	mov    %rax,-0x40(%rbp)
  80059d:	48 8d 45 d0          	lea    -0x30(%rbp),%rax
  8005a1:	48 89 45 c8          	mov    %rax,-0x38(%rbp)
    vprintfmt(putch, putdat, fmt, ap);
  8005a5:	48 8d 4d b8          	lea    -0x48(%rbp),%rcx
  8005a9:	48 b8 b7 05 80 00 00 	movabs $0x8005b7,%rax
  8005b0:	00 00 00 
  8005b3:	ff d0                	call   *%rax
}
  8005b5:	c9                   	leave  
  8005b6:	c3                   	ret    

00000000008005b7 <vprintfmt>:
vprintfmt(void (*putch)(int, void *), void *put_arg, const char *fmt, va_list ap) {
  8005b7:	55                   	push   %rbp
  8005b8:	48 89 e5             	mov    %rsp,%rbp
  8005bb:	41 57                	push   %r15
  8005bd:	41 56                	push   %r14
  8005bf:	41 55                	push   %r13
  8005c1:	41 54                	push   %r12
  8005c3:	53                   	push   %rbx
  8005c4:	48 83 ec 48          	sub    $0x48,%rsp
  8005c8:	49 89 fc             	mov    %rdi,%r12
  8005cb:	49 89 f6             	mov    %rsi,%r14
  8005ce:	49 89 d7             	mov    %rdx,%r15
    va_copy(aq, ap);
  8005d1:	48 8b 01             	mov    (%rcx),%rax
  8005d4:	48 89 45 b8          	mov    %rax,-0x48(%rbp)
  8005d8:	48 8b 41 08          	mov    0x8(%rcx),%rax
  8005dc:	48 89 45 c0          	mov    %rax,-0x40(%rbp)
  8005e0:	48 8b 41 10          	mov    0x10(%rcx),%rax
  8005e4:	48 89 45 c8          	mov    %rax,-0x38(%rbp)
        while ((ch = *ufmt++) != '%') {
  8005e8:	49 8d 5f 01          	lea    0x1(%r15),%rbx
  8005ec:	41 0f b6 3f          	movzbl (%r15),%edi
  8005f0:	40 80 ff 25          	cmp    $0x25,%dil
  8005f4:	74 18                	je     80060e <vprintfmt+0x57>
            if (!ch) return;
  8005f6:	40 84 ff             	test   %dil,%dil
  8005f9:	0f 84 d1 06 00 00    	je     800cd0 <vprintfmt+0x719>
            putch(ch, put_arg);
  8005ff:	40 0f b6 ff          	movzbl %dil,%edi
  800603:	4c 89 f6             	mov    %r14,%rsi
  800606:	41 ff d4             	call   *%r12
        while ((ch = *ufmt++) != '%') {
  800609:	49 89 df             	mov    %rbx,%r15
  80060c:	eb da                	jmp    8005e8 <vprintfmt+0x31>
            precision = va_arg(aq, int);
  80060e:	48 8b 75 c8          	mov    -0x38(%rbp),%rsi
        bool altflag = 0, zflag = 0;
  800612:	b9 00 00 00 00       	mov    $0x0,%ecx
  800617:	c6 45 98 00          	movb   $0x0,-0x68(%rbp)
        unsigned lflag = 0, base = 10;
  80061b:	ba 00 00 00 00       	mov    $0x0,%edx
        int width = -1, precision = -1;
  800620:	41 bd ff ff ff ff    	mov    $0xffffffff,%r13d
  800626:	c7 45 ac ff ff ff ff 	movl   $0xffffffff,-0x54(%rbp)
        char padc = ' ';
  80062d:	c6 45 a0 20          	movb   $0x20,-0x60(%rbp)
            width = MAX(0, width);
  800631:	bf 00 00 00 00       	mov    $0x0,%edi
        switch (ch = *ufmt++) {
  800636:	41 b8 01 00 00 00    	mov    $0x1,%r8d
  80063c:	4c 8d 7b 01          	lea    0x1(%rbx),%r15
  800640:	44 0f b6 0b          	movzbl (%rbx),%r9d
  800644:	41 8d 41 dd          	lea    -0x23(%r9),%eax
  800648:	3c 57                	cmp    $0x57,%al
  80064a:	0f 87 65 06 00 00    	ja     800cb5 <vprintfmt+0x6fe>
  800650:	0f b6 c0             	movzbl %al,%eax
  800653:	49 ba 60 16 81 00 00 	movabs $0x811660,%r10
  80065a:	00 00 00 
  80065d:	41 ff 24 c2          	jmp    *(%r10,%rax,8)
  800661:	4c 89 fb             	mov    %r15,%rbx
            altflag = 1;
  800664:	44 88 45 98          	mov    %r8b,-0x68(%rbp)
  800668:	eb d2                	jmp    80063c <vprintfmt+0x85>
        switch (ch = *ufmt++) {
  80066a:	4c 89 fb             	mov    %r15,%rbx
  80066d:	44 89 c1             	mov    %r8d,%ecx
  800670:	eb ca                	jmp    80063c <vprintfmt+0x85>
            padc = ch;
  800672:	44 88 4d a0          	mov    %r9b,-0x60(%rbp)
        switch (ch = *ufmt++) {
  800676:	4c 89 fb             	mov    %r15,%rbx
            goto reswitch;
  800679:	eb c1                	jmp    80063c <vprintfmt+0x85>
            precision = va_arg(aq, int);
  80067b:	8b 45 b8             	mov    -0x48(%rbp),%eax
  80067e:	83 f8 2f             	cmp    $0x2f,%eax
  800681:	77 24                	ja     8006a7 <vprintfmt+0xf0>
  800683:	41 89 c1             	mov    %eax,%r9d
  800686:	49 01 f1             	add    %rsi,%r9
  800689:	83 c0 08             	add    $0x8,%eax
  80068c:	89 45 b8             	mov    %eax,-0x48(%rbp)
  80068f:	45 8b 29             	mov    (%r9),%r13d
        switch (ch = *ufmt++) {
  800692:	4c 89 fb             	mov    %r15,%rbx
            if (width < 0) {
  800695:	83 7d ac 00          	cmpl   $0x0,-0x54(%rbp)
  800699:	79 a1                	jns    80063c <vprintfmt+0x85>
                width = precision;
  80069b:	44 89 6d ac          	mov    %r13d,-0x54(%rbp)
                precision = -1;
  80069f:	41 bd ff ff ff ff    	mov    $0xffffffff,%r13d
  8006a5:	eb 95                	jmp    80063c <vprintfmt+0x85>
            precision = va_arg(aq, int);
  8006a7:	4c 8b 4d c0          	mov    -0x40(%rbp),%r9
  8006ab:	49 8d 41 08          	lea    0x8(%r9),%rax
  8006af:	48 89 45 c0          	mov    %rax,-0x40(%rbp)
  8006b3:	eb da                	jmp    80068f <vprintfmt+0xd8>
        switch (ch = *ufmt++) {
  8006b5:	45 0f b6 c9          	movzbl %r9b,%r9d
                precision = precision * 10 + ch - '0';
  8006b9:	45 8d 69 d0          	lea    -0x30(%r9),%r13d
                if ((ch = *ufmt) - '0' > 9) break;
  8006bd:	0f b6 43 01          	movzbl 0x1(%rbx),%eax
  8006c1:	3c 39                	cmp    $0x39,%al
  8006c3:	77 1e                	ja     8006e3 <vprintfmt+0x12c>
            for (precision = 0;; ++ufmt) {
  8006c5:	49 83 c7 01          	add    $0x1,%r15
                precision = precision * 10 + ch - '0';
  8006c9:	47 8d 4c ad 00       	lea    0x0(%r13,%r13,4),%r9d
  8006ce:	0f b6 c0             	movzbl %al,%eax
  8006d1:	46 8d 6c 48 d0       	lea    -0x30(%rax,%r9,2),%r13d
                if ((ch = *ufmt) - '0' > 9) break;
  8006d6:	41 0f b6 07          	movzbl (%r15),%eax
  8006da:	3c 39                	cmp    $0x39,%al
  8006dc:	76 e7                	jbe    8006c5 <vprintfmt+0x10e>
            for (precision = 0;; ++ufmt) {
  8006de:	4c 89 fb             	mov    %r15,%rbx
        process_precision:
  8006e1:	eb b2                	jmp    800695 <vprintfmt+0xde>
        switch (ch = *ufmt++) {
  8006e3:	4c 89 fb             	mov    %r15,%rbx
  8006e6:	eb ad                	jmp    800695 <vprintfmt+0xde>
            width = MAX(0, width);
  8006e8:	8b 45 ac             	mov    -0x54(%rbp),%eax
  8006eb:	85 c0                	test   %eax,%eax
  8006ed:	0f 48 c7             	cmovs  %edi,%eax
  8006f0:	89 45 ac             	mov    %eax,-0x54(%rbp)
        switch (ch = *ufmt++) {
  8006f3:	4c 89 fb             	mov    %r15,%rbx
            goto reswitch;
  8006f6:	e9 41 ff ff ff       	jmp    80063c <vprintfmt+0x85>
            lflag++;
  8006fb:	83 c2 01             	add    $0x1,%edx
        switch (ch = *ufmt++) {
  8006fe:	4c 89 fb             	mov    %r15,%rbx
            goto reswitch;
  800701:	e9 36 ff ff ff       	jmp    80063c <vprintfmt+0x85>
            putch(va_arg(aq, int), put_arg);
  800706:	8b 45 b8             	mov    -0x48(%rbp),%eax
  800709:	83 f8 2f             	cmp    $0x2f,%eax
  80070c:	77 18                	ja     800726 <vprintfmt+0x16f>
  80070e:	89 c2                	mov    %eax,%edx
  800710:	48 01 f2             	add    %rsi,%rdx
  800713:	83 c0 08             	add    $0x8,%eax
  800716:	89 45 b8             	mov    %eax,-0x48(%rbp)
  800719:	4c 89 f6             	mov    %r14,%rsi
  80071c:	8b 3a                	mov    (%rdx),%edi
  80071e:	41 ff d4             	call   *%r12
            break;
  800721:	e9 c2 fe ff ff       	jmp    8005e8 <vprintfmt+0x31>
            putch(va_arg(aq, int), put_arg);
  800726:	48 8b 55 c0          	mov    -0x40(%rbp),%rdx
  80072a:	48 8d 42 08          	lea    0x8(%rdx),%rax
  80072e:	48 89 45 c0          	mov    %rax,-0x40(%rbp)
  800732:	eb e5                	jmp    800719 <vprintfmt+0x162>
            int err = va_arg(aq, int);
  800734:	8b 45 b8             	mov    -0x48(%rbp),%eax
  800737:	83 f8 2f             	cmp    $0x2f,%eax
  80073a:	77 5b                	ja     800797 <vprintfmt+0x1e0>
  80073c:	89 c2                	mov    %eax,%edx
  80073e:	48 01 d6             	add    %rdx,%rsi
  800741:	83 c0 08             	add    $0x8,%eax
  800744:	89 45 b8             	mov    %eax,-0x48(%rbp)
  800747:	8b 0e                	mov    (%rsi),%ecx
            if (err < 0) err = -err;
  800749:	89 c8                	mov    %ecx,%eax
  80074b:	c1 f8 1f             	sar    $0x1f,%eax
  80074e:	31 c1                	xor    %eax,%ecx
  800750:	29 c1                	sub    %eax,%ecx
            if (err >= MAXERROR || !(strerr = error_string[err])) {
  800752:	83 f9 13             	cmp    $0x13,%ecx
  800755:	7f 4e                	jg     8007a5 <vprintfmt+0x1ee>
  800757:	48 63 c1             	movslq %ecx,%rax
  80075a:	48 ba 20 19 81 00 00 	movabs $0x811920,%rdx
  800761:	00 00 00 
  800764:	48 8b 04 c2          	mov    (%rdx,%rax,8),%rax
  800768:	48 85 c0             	test   %rax,%rax
  80076b:	74 38                	je     8007a5 <vprintfmt+0x1ee>
                printfmt(putch, put_arg, "%s", strerr);
  80076d:	48 89 c1             	mov    %rax,%rcx
  800770:	48 ba d9 1a 81 00 00 	movabs $0x811ad9,%rdx
  800777:	00 00 00 
  80077a:	4c 89 f6             	mov    %r14,%rsi
  80077d:	4c 89 e7             	mov    %r12,%rdi
  800780:	b8 00 00 00 00       	mov    $0x0,%eax
  800785:	49 b8 7a 05 80 00 00 	movabs $0x80057a,%r8
  80078c:	00 00 00 
  80078f:	41 ff d0             	call   *%r8
  800792:	e9 51 fe ff ff       	jmp    8005e8 <vprintfmt+0x31>
            int err = va_arg(aq, int);
  800797:	48 8b 75 c0          	mov    -0x40(%rbp),%rsi
  80079b:	48 8d 46 08          	lea    0x8(%rsi),%rax
  80079f:	48 89 45 c0          	mov    %rax,-0x40(%rbp)
  8007a3:	eb a2                	jmp    800747 <vprintfmt+0x190>
                printfmt(putch, put_arg, "error %d", err);
  8007a5:	48 ba e0 14 81 00 00 	movabs $0x8114e0,%rdx
  8007ac:	00 00 00 
  8007af:	4c 89 f6             	mov    %r14,%rsi
  8007b2:	4c 89 e7             	mov    %r12,%rdi
  8007b5:	b8 00 00 00 00       	mov    $0x0,%eax
  8007ba:	49 b8 7a 05 80 00 00 	movabs $0x80057a,%r8
  8007c1:	00 00 00 
  8007c4:	41 ff d0             	call   *%r8
  8007c7:	e9 1c fe ff ff       	jmp    8005e8 <vprintfmt+0x31>
            const char *ptr = va_arg(aq, char *);
  8007cc:	8b 45 b8             	mov    -0x48(%rbp),%eax
  8007cf:	83 f8 2f             	cmp    $0x2f,%eax
  8007d2:	77 55                	ja     800829 <vprintfmt+0x272>
  8007d4:	89 c2                	mov    %eax,%edx
  8007d6:	48 01 d6             	add    %rdx,%rsi
  8007d9:	83 c0 08             	add    $0x8,%eax
  8007dc:	89 45 b8             	mov    %eax,-0x48(%rbp)
  8007df:	48 8b 16             	mov    (%rsi),%rdx
            if (!ptr) ptr = "(null)";
  8007e2:	48 85 d2             	test   %rdx,%rdx
  8007e5:	48 b8 d9 14 81 00 00 	movabs $0x8114d9,%rax
  8007ec:	00 00 00 
  8007ef:	48 0f 45 c2          	cmovne %rdx,%rax
  8007f3:	48 89 45 90          	mov    %rax,-0x70(%rbp)
            if (width > 0 && padc != '-') {
  8007f7:	83 7d ac 00          	cmpl   $0x0,-0x54(%rbp)
  8007fb:	7e 06                	jle    800803 <vprintfmt+0x24c>
  8007fd:	80 7d a0 2d          	cmpb   $0x2d,-0x60(%rbp)
  800801:	75 34                	jne    800837 <vprintfmt+0x280>
            for (; (ch = *ptr++) && (precision < 0 || --precision >= 0); width--) {
  800803:	48 8b 45 90          	mov    -0x70(%rbp),%rax
  800807:	48 8d 58 01          	lea    0x1(%rax),%rbx
  80080b:	0f b6 00             	movzbl (%rax),%eax
  80080e:	84 c0                	test   %al,%al
  800810:	0f 84 b2 00 00 00    	je     8008c8 <vprintfmt+0x311>
  800816:	4c 89 75 a0          	mov    %r14,-0x60(%rbp)
  80081a:	44 0f b6 75 98       	movzbl -0x68(%rbp),%r14d
  80081f:	4c 89 7d 98          	mov    %r15,-0x68(%rbp)
  800823:	44 8b 7d ac          	mov    -0x54(%rbp),%r15d
  800827:	eb 74                	jmp    80089d <vprintfmt+0x2e6>
            const char *ptr = va_arg(aq, char *);
  800829:	48 8b 75 c0          	mov    -0x40(%rbp),%rsi
  80082d:	48 8d 46 08          	lea    0x8(%rsi),%rax
  800831:	48 89 45 c0          	mov    %rax,-0x40(%rbp)
  800835:	eb a8                	jmp    8007df <vprintfmt+0x228>
                width -= strnlen(ptr, precision);
  800837:	49 63 f5             	movslq %r13d,%rsi
  80083a:	48 8b 7d 90          	mov    -0x70(%rbp),%rdi
  80083e:	48 b8 8a 0d 80 00 00 	movabs $0x800d8a,%rax
  800845:	00 00 00 
  800848:	ff d0                	call   *%rax
  80084a:	48 89 c2             	mov    %rax,%rdx
  80084d:	8b 45 ac             	mov    -0x54(%rbp),%eax
  800850:	29 d0                	sub    %edx,%eax
                while (width-- > 0) putch(padc, put_arg);
  800852:	8d 48 ff             	lea    -0x1(%rax),%ecx
  800855:	89 4d ac             	mov    %ecx,-0x54(%rbp)
  800858:	85 c0                	test   %eax,%eax
  80085a:	7e a7                	jle    800803 <vprintfmt+0x24c>
  80085c:	0f be 5d a0          	movsbl -0x60(%rbp),%ebx
  800860:	44 89 6d a0          	mov    %r13d,-0x60(%rbp)
  800864:	41 89 cd             	mov    %ecx,%r13d
  800867:	4c 89 f6             	mov    %r14,%rsi
  80086a:	89 df                	mov    %ebx,%edi
  80086c:	41 ff d4             	call   *%r12
  80086f:	41 83 ed 01          	sub    $0x1,%r13d
  800873:	41 83 fd ff          	cmp    $0xffffffff,%r13d
  800877:	75 ee                	jne    800867 <vprintfmt+0x2b0>
  800879:	44 89 6d ac          	mov    %r13d,-0x54(%rbp)
  80087d:	44 8b 6d a0          	mov    -0x60(%rbp),%r13d
  800881:	eb 80                	jmp    800803 <vprintfmt+0x24c>
                putch(altflag && (ch < ' ' || ch > '~') ? '?' : ch, put_arg);
  800883:	0f b6 f8             	movzbl %al,%edi
  800886:	48 8b 75 a0          	mov    -0x60(%rbp),%rsi
  80088a:	41 ff d4             	call   *%r12
            for (; (ch = *ptr++) && (precision < 0 || --precision >= 0); width--) {
  80088d:	41 83 ef 01          	sub    $0x1,%r15d
  800891:	48 83 c3 01          	add    $0x1,%rbx
  800895:	0f b6 43 ff          	movzbl -0x1(%rbx),%eax
  800899:	84 c0                	test   %al,%al
  80089b:	74 1f                	je     8008bc <vprintfmt+0x305>
  80089d:	45 85 ed             	test   %r13d,%r13d
  8008a0:	78 06                	js     8008a8 <vprintfmt+0x2f1>
  8008a2:	41 83 ed 01          	sub    $0x1,%r13d
  8008a6:	78 46                	js     8008ee <vprintfmt+0x337>
                putch(altflag && (ch < ' ' || ch > '~') ? '?' : ch, put_arg);
  8008a8:	45 84 f6             	test   %r14b,%r14b
  8008ab:	74 d6                	je     800883 <vprintfmt+0x2cc>
  8008ad:	8d 50 e0             	lea    -0x20(%rax),%edx
  8008b0:	bf 3f 00 00 00       	mov    $0x3f,%edi
  8008b5:	80 fa 5e             	cmp    $0x5e,%dl
  8008b8:	77 cc                	ja     800886 <vprintfmt+0x2cf>
  8008ba:	eb c7                	jmp    800883 <vprintfmt+0x2cc>
  8008bc:	44 89 7d ac          	mov    %r15d,-0x54(%rbp)
  8008c0:	4c 8b 75 a0          	mov    -0x60(%rbp),%r14
  8008c4:	4c 8b 7d 98          	mov    -0x68(%rbp),%r15
            while (width-- > 0) putch(' ', put_arg);
  8008c8:	8b 45 ac             	mov    -0x54(%rbp),%eax
  8008cb:	8d 58 ff             	lea    -0x1(%rax),%ebx
  8008ce:	85 c0                	test   %eax,%eax
  8008d0:	0f 8e 12 fd ff ff    	jle    8005e8 <vprintfmt+0x31>
  8008d6:	4c 89 f6             	mov    %r14,%rsi
  8008d9:	bf 20 00 00 00       	mov    $0x20,%edi
  8008de:	41 ff d4             	call   *%r12
  8008e1:	83 eb 01             	sub    $0x1,%ebx
  8008e4:	83 fb ff             	cmp    $0xffffffff,%ebx
  8008e7:	75 ed                	jne    8008d6 <vprintfmt+0x31f>
  8008e9:	e9 fa fc ff ff       	jmp    8005e8 <vprintfmt+0x31>
  8008ee:	44 89 7d ac          	mov    %r15d,-0x54(%rbp)
  8008f2:	4c 8b 75 a0          	mov    -0x60(%rbp),%r14
  8008f6:	4c 8b 7d 98          	mov    -0x68(%rbp),%r15
  8008fa:	eb cc                	jmp    8008c8 <vprintfmt+0x311>
    if (zflag) return va_arg(*ap, size_t);
  8008fc:	45 89 cd             	mov    %r9d,%r13d
  8008ff:	84 c9                	test   %cl,%cl
  800901:	75 25                	jne    800928 <vprintfmt+0x371>
    switch (lflag) {
  800903:	85 d2                	test   %edx,%edx
  800905:	74 57                	je     80095e <vprintfmt+0x3a7>
  800907:	83 fa 01             	cmp    $0x1,%edx
  80090a:	74 78                	je     800984 <vprintfmt+0x3cd>
        return va_arg(*ap, long long);
  80090c:	8b 45 b8             	mov    -0x48(%rbp),%eax
  80090f:	83 f8 2f             	cmp    $0x2f,%eax
  800912:	0f 87 92 00 00 00    	ja     8009aa <vprintfmt+0x3f3>
  800918:	89 c2                	mov    %eax,%edx
  80091a:	48 01 d6             	add    %rdx,%rsi
  80091d:	83 c0 08             	add    $0x8,%eax
  800920:	89 45 b8             	mov    %eax,-0x48(%rbp)
  800923:	48 8b 1e             	mov    (%rsi),%rbx
  800926:	eb 16                	jmp    80093e <vprintfmt+0x387>
    if (zflag) return va_arg(*ap, size_t);
  800928:	8b 45 b8             	mov    -0x48(%rbp),%eax
  80092b:	83 f8 2f             	cmp    $0x2f,%eax
  80092e:	77 20                	ja     800950 <vprintfmt+0x399>
  800930:	89 c2                	mov    %eax,%edx
  800932:	48 01 d6             	add    %rdx,%rsi
  800935:	83 c0 08             	add    $0x8,%eax
  800938:	89 45 b8             	mov    %eax,-0x48(%rbp)
  80093b:	48 8b 1e             	mov    (%rsi),%rbx
            if (i < 0) {
  80093e:	48 85 db             	test   %rbx,%rbx
  800941:	78 78                	js     8009bb <vprintfmt+0x404>
            num = i;
  800943:	48 89 da             	mov    %rbx,%rdx
        unsigned lflag = 0, base = 10;
  800946:	b9 0a 00 00 00       	mov    $0xa,%ecx
            goto number;
  80094b:	e9 49 02 00 00       	jmp    800b99 <vprintfmt+0x5e2>
    if (zflag) return va_arg(*ap, size_t);
  800950:	48 8b 75 c0          	mov    -0x40(%rbp),%rsi
  800954:	48 8d 46 08          	lea    0x8(%rsi),%rax
  800958:	48 89 45 c0          	mov    %rax,-0x40(%rbp)
  80095c:	eb dd                	jmp    80093b <vprintfmt+0x384>
        return va_arg(*ap, int);
  80095e:	8b 45 b8             	mov    -0x48(%rbp),%eax
  800961:	83 f8 2f             	cmp    $0x2f,%eax
  800964:	77 10                	ja     800976 <vprintfmt+0x3bf>
  800966:	89 c2                	mov    %eax,%edx
  800968:	48 01 d6             	add    %rdx,%rsi
  80096b:	83 c0 08             	add    $0x8,%eax
  80096e:	89 45 b8             	mov    %eax,-0x48(%rbp)
  800971:	48 63 1e             	movslq (%rsi),%rbx
  800974:	eb c8                	jmp    80093e <vprintfmt+0x387>
  800976:	48 8b 75 c0          	mov    -0x40(%rbp),%rsi
  80097a:	48 8d 46 08          	lea    0x8(%rsi),%rax
  80097e:	48 89 45 c0          	mov    %rax,-0x40(%rbp)
  800982:	eb ed                	jmp    800971 <vprintfmt+0x3ba>
        return va_arg(*ap, long);
  800984:	8b 45 b8             	mov    -0x48(%rbp),%eax
  800987:	83 f8 2f             	cmp    $0x2f,%eax
  80098a:	77 10                	ja     80099c <vprintfmt+0x3e5>
  80098c:	89 c2                	mov    %eax,%edx
  80098e:	48 01 d6             	add    %rdx,%rsi
  800991:	83 c0 08             	add    $0x8,%eax
  800994:	89 45 b8             	mov    %eax,-0x48(%rbp)
  800997:	48 8b 1e             	mov    (%rsi),%rbx
  80099a:	eb a2                	jmp    80093e <vprintfmt+0x387>
  80099c:	48 8b 75 c0          	mov    -0x40(%rbp),%rsi
  8009a0:	48 8d 46 08          	lea    0x8(%rsi),%rax
  8009a4:	48 89 45 c0          	mov    %rax,-0x40(%rbp)
  8009a8:	eb ed                	jmp    800997 <vprintfmt+0x3e0>
        return va_arg(*ap, long long);
  8009aa:	48 8b 75 c0          	mov    -0x40(%rbp),%rsi
  8009ae:	48 8d 46 08          	lea    0x8(%rsi),%rax
  8009b2:	48 89 45 c0          	mov    %rax,-0x40(%rbp)
  8009b6:	e9 68 ff ff ff       	jmp    800923 <vprintfmt+0x36c>
                putch('-', put_arg);
  8009bb:	4c 89 f6             	mov    %r14,%rsi
  8009be:	bf 2d 00 00 00       	mov    $0x2d,%edi
  8009c3:	41 ff d4             	call   *%r12
                i = -i;
  8009c6:	48 f7 db             	neg    %rbx
  8009c9:	e9 75 ff ff ff       	jmp    800943 <vprintfmt+0x38c>
    if (zflag) return va_arg(*ap, size_t);
  8009ce:	45 89 cd             	mov    %r9d,%r13d
  8009d1:	84 c9                	test   %cl,%cl
  8009d3:	75 2d                	jne    800a02 <vprintfmt+0x44b>
    switch (lflag) {
  8009d5:	85 d2                	test   %edx,%edx
  8009d7:	74 57                	je     800a30 <vprintfmt+0x479>
  8009d9:	83 fa 01             	cmp    $0x1,%edx
  8009dc:	74 7f                	je     800a5d <vprintfmt+0x4a6>
        return va_arg(*ap, unsigned long long);
  8009de:	8b 45 b8             	mov    -0x48(%rbp),%eax
  8009e1:	83 f8 2f             	cmp    $0x2f,%eax
  8009e4:	0f 87 a1 00 00 00    	ja     800a8b <vprintfmt+0x4d4>
  8009ea:	89 c2                	mov    %eax,%edx
  8009ec:	48 01 d6             	add    %rdx,%rsi
  8009ef:	83 c0 08             	add    $0x8,%eax
  8009f2:	89 45 b8             	mov    %eax,-0x48(%rbp)
  8009f5:	48 8b 16             	mov    (%rsi),%rdx
        unsigned lflag = 0, base = 10;
  8009f8:	b9 0a 00 00 00       	mov    $0xa,%ecx
        return va_arg(*ap, unsigned long long);
  8009fd:	e9 97 01 00 00       	jmp    800b99 <vprintfmt+0x5e2>
    if (zflag) return va_arg(*ap, size_t);
  800a02:	8b 45 b8             	mov    -0x48(%rbp),%eax
  800a05:	83 f8 2f             	cmp    $0x2f,%eax
  800a08:	77 18                	ja     800a22 <vprintfmt+0x46b>
  800a0a:	89 c2                	mov    %eax,%edx
  800a0c:	48 01 d6             	add    %rdx,%rsi
  800a0f:	83 c0 08             	add    $0x8,%eax
  800a12:	89 45 b8             	mov    %eax,-0x48(%rbp)
  800a15:	48 8b 16             	mov    (%rsi),%rdx
        unsigned lflag = 0, base = 10;
  800a18:	b9 0a 00 00 00       	mov    $0xa,%ecx
    if (zflag) return va_arg(*ap, size_t);
  800a1d:	e9 77 01 00 00       	jmp    800b99 <vprintfmt+0x5e2>
  800a22:	48 8b 75 c0          	mov    -0x40(%rbp),%rsi
  800a26:	48 8d 46 08          	lea    0x8(%rsi),%rax
  800a2a:	48 89 45 c0          	mov    %rax,-0x40(%rbp)
  800a2e:	eb e5                	jmp    800a15 <vprintfmt+0x45e>
        return va_arg(*ap, unsigned int);
  800a30:	8b 45 b8             	mov    -0x48(%rbp),%eax
  800a33:	83 f8 2f             	cmp    $0x2f,%eax
  800a36:	77 17                	ja     800a4f <vprintfmt+0x498>
  800a38:	89 c2                	mov    %eax,%edx
  800a3a:	48 01 d6             	add    %rdx,%rsi
  800a3d:	83 c0 08             	add    $0x8,%eax
  800a40:	89 45 b8             	mov    %eax,-0x48(%rbp)
  800a43:	8b 16                	mov    (%rsi),%edx
        unsigned lflag = 0, base = 10;
  800a45:	b9 0a 00 00 00       	mov    $0xa,%ecx
        return va_arg(*ap, unsigned int);
  800a4a:	e9 4a 01 00 00       	jmp    800b99 <vprintfmt+0x5e2>
  800a4f:	48 8b 75 c0          	mov    -0x40(%rbp),%rsi
  800a53:	48 8d 46 08          	lea    0x8(%rsi),%rax
  800a57:	48 89 45 c0          	mov    %rax,-0x40(%rbp)
  800a5b:	eb e6                	jmp    800a43 <vprintfmt+0x48c>
        return va_arg(*ap, unsigned long);
  800a5d:	8b 45 b8             	mov    -0x48(%rbp),%eax
  800a60:	83 f8 2f             	cmp    $0x2f,%eax
  800a63:	77 18                	ja     800a7d <vprintfmt+0x4c6>
  800a65:	89 c2                	mov    %eax,%edx
  800a67:	48 01 d6             	add    %rdx,%rsi
  800a6a:	83 c0 08             	add    $0x8,%eax
  800a6d:	89 45 b8             	mov    %eax,-0x48(%rbp)
  800a70:	48 8b 16             	mov    (%rsi),%rdx
        unsigned lflag = 0, base = 10;
  800a73:	b9 0a 00 00 00       	mov    $0xa,%ecx
        return va_arg(*ap, unsigned long);
  800a78:	e9 1c 01 00 00       	jmp    800b99 <vprintfmt+0x5e2>
  800a7d:	48 8b 75 c0          	mov    -0x40(%rbp),%rsi
  800a81:	48 8d 46 08          	lea    0x8(%rsi),%rax
  800a85:	48 89 45 c0          	mov    %rax,-0x40(%rbp)
  800a89:	eb e5                	jmp    800a70 <vprintfmt+0x4b9>
        return va_arg(*ap, unsigned long long);
  800a8b:	48 8b 75 c0          	mov    -0x40(%rbp),%rsi
  800a8f:	48 8d 46 08          	lea    0x8(%rsi),%rax
  800a93:	48 89 45 c0          	mov    %rax,-0x40(%rbp)
  800a97:	e9 59 ff ff ff       	jmp    8009f5 <vprintfmt+0x43e>
    if (zflag) return va_arg(*ap, size_t);
  800a9c:	45 89 cd             	mov    %r9d,%r13d
  800a9f:	84 c9                	test   %cl,%cl
  800aa1:	75 2d                	jne    800ad0 <vprintfmt+0x519>
    switch (lflag) {
  800aa3:	85 d2                	test   %edx,%edx
  800aa5:	74 57                	je     800afe <vprintfmt+0x547>
  800aa7:	83 fa 01             	cmp    $0x1,%edx
  800aaa:	74 7c                	je     800b28 <vprintfmt+0x571>
        return va_arg(*ap, unsigned long long);
  800aac:	8b 45 b8             	mov    -0x48(%rbp),%eax
  800aaf:	83 f8 2f             	cmp    $0x2f,%eax
  800ab2:	0f 87 9b 00 00 00    	ja     800b53 <vprintfmt+0x59c>
  800ab8:	89 c2                	mov    %eax,%edx
  800aba:	48 01 d6             	add    %rdx,%rsi
  800abd:	83 c0 08             	add    $0x8,%eax
  800ac0:	89 45 b8             	mov    %eax,-0x48(%rbp)
  800ac3:	48 8b 16             	mov    (%rsi),%rdx
            base = 8;
  800ac6:	b9 08 00 00 00       	mov    $0x8,%ecx
        return va_arg(*ap, unsigned long long);
  800acb:	e9 c9 00 00 00       	jmp    800b99 <vprintfmt+0x5e2>
    if (zflag) return va_arg(*ap, size_t);
  800ad0:	8b 45 b8             	mov    -0x48(%rbp),%eax
  800ad3:	83 f8 2f             	cmp    $0x2f,%eax
  800ad6:	77 18                	ja     800af0 <vprintfmt+0x539>
  800ad8:	89 c2                	mov    %eax,%edx
  800ada:	48 01 d6             	add    %rdx,%rsi
  800add:	83 c0 08             	add    $0x8,%eax
  800ae0:	89 45 b8             	mov    %eax,-0x48(%rbp)
  800ae3:	48 8b 16             	mov    (%rsi),%rdx
            base = 8;
  800ae6:	b9 08 00 00 00       	mov    $0x8,%ecx
    if (zflag) return va_arg(*ap, size_t);
  800aeb:	e9 a9 00 00 00       	jmp    800b99 <vprintfmt+0x5e2>
  800af0:	48 8b 75 c0          	mov    -0x40(%rbp),%rsi
  800af4:	48 8d 46 08          	lea    0x8(%rsi),%rax
  800af8:	48 89 45 c0          	mov    %rax,-0x40(%rbp)
  800afc:	eb e5                	jmp    800ae3 <vprintfmt+0x52c>
        return va_arg(*ap, unsigned int);
  800afe:	8b 45 b8             	mov    -0x48(%rbp),%eax
  800b01:	83 f8 2f             	cmp    $0x2f,%eax
  800b04:	77 14                	ja     800b1a <vprintfmt+0x563>
  800b06:	89 c2                	mov    %eax,%edx
  800b08:	48 01 d6             	add    %rdx,%rsi
  800b0b:	83 c0 08             	add    $0x8,%eax
  800b0e:	89 45 b8             	mov    %eax,-0x48(%rbp)
  800b11:	8b 16                	mov    (%rsi),%edx
            base = 8;
  800b13:	b9 08 00 00 00       	mov    $0x8,%ecx
        return va_arg(*ap, unsigned int);
  800b18:	eb 7f                	jmp    800b99 <vprintfmt+0x5e2>
  800b1a:	48 8b 75 c0          	mov    -0x40(%rbp),%rsi
  800b1e:	48 8d 46 08          	lea    0x8(%rsi),%rax
  800b22:	48 89 45 c0          	mov    %rax,-0x40(%rbp)
  800b26:	eb e9                	jmp    800b11 <vprintfmt+0x55a>
        return va_arg(*ap, unsigned long);
  800b28:	8b 45 b8             	mov    -0x48(%rbp),%eax
  800b2b:	83 f8 2f             	cmp    $0x2f,%eax
  800b2e:	77 15                	ja     800b45 <vprintfmt+0x58e>
  800b30:	89 c2                	mov    %eax,%edx
  800b32:	48 01 d6             	add    %rdx,%rsi
  800b35:	83 c0 08             	add    $0x8,%eax
  800b38:	89 45 b8             	mov    %eax,-0x48(%rbp)
  800b3b:	48 8b 16             	mov    (%rsi),%rdx
            base = 8;
  800b3e:	b9 08 00 00 00       	mov    $0x8,%ecx
        return va_arg(*ap, unsigned long);
  800b43:	eb 54                	jmp    800b99 <vprintfmt+0x5e2>
  800b45:	48 8b 75 c0          	mov    -0x40(%rbp),%rsi
  800b49:	48 8d 46 08          	lea    0x8(%rsi),%rax
  800b4d:	48 89 45 c0          	mov    %rax,-0x40(%rbp)
  800b51:	eb e8                	jmp    800b3b <vprintfmt+0x584>
        return va_arg(*ap, unsigned long long);
  800b53:	48 8b 75 c0          	mov    -0x40(%rbp),%rsi
  800b57:	48 8d 46 08          	lea    0x8(%rsi),%rax
  800b5b:	48 89 45 c0          	mov    %rax,-0x40(%rbp)
  800b5f:	e9 5f ff ff ff       	jmp    800ac3 <vprintfmt+0x50c>
            putch('0', put_arg);
  800b64:	45 89 cd             	mov    %r9d,%r13d
  800b67:	4c 89 f6             	mov    %r14,%rsi
  800b6a:	bf 30 00 00 00       	mov    $0x30,%edi
  800b6f:	41 ff d4             	call   *%r12
            putch('x', put_arg);
  800b72:	4c 89 f6             	mov    %r14,%rsi
  800b75:	bf 78 00 00 00       	mov    $0x78,%edi
  800b7a:	41 ff d4             	call   *%r12
            num = (uintptr_t)va_arg(aq, void *);
  800b7d:	8b 45 b8             	mov    -0x48(%rbp),%eax
  800b80:	83 f8 2f             	cmp    $0x2f,%eax
  800b83:	77 47                	ja     800bcc <vprintfmt+0x615>
  800b85:	89 c2                	mov    %eax,%edx
  800b87:	48 03 55 c8          	add    -0x38(%rbp),%rdx
  800b8b:	83 c0 08             	add    $0x8,%eax
  800b8e:	89 45 b8             	mov    %eax,-0x48(%rbp)
  800b91:	48 8b 12             	mov    (%rdx),%rdx
            base = 16;
  800b94:	b9 10 00 00 00       	mov    $0x10,%ecx
            print_num(putch, put_arg, num, base, width, padc, ch == 'X');
  800b99:	48 83 ec 08          	sub    $0x8,%rsp
  800b9d:	41 80 fd 58          	cmp    $0x58,%r13b
  800ba1:	0f 94 c0             	sete   %al
  800ba4:	0f b6 c0             	movzbl %al,%eax
  800ba7:	50                   	push   %rax
  800ba8:	44 0f be 4d a0       	movsbl -0x60(%rbp),%r9d
  800bad:	44 8b 45 ac          	mov    -0x54(%rbp),%r8d
  800bb1:	4c 89 f6             	mov    %r14,%rsi
  800bb4:	4c 89 e7             	mov    %r12,%rdi
  800bb7:	48 b8 ac 04 80 00 00 	movabs $0x8004ac,%rax
  800bbe:	00 00 00 
  800bc1:	ff d0                	call   *%rax
            break;
  800bc3:	48 83 c4 10          	add    $0x10,%rsp
  800bc7:	e9 1c fa ff ff       	jmp    8005e8 <vprintfmt+0x31>
            num = (uintptr_t)va_arg(aq, void *);
  800bcc:	48 8b 55 c0          	mov    -0x40(%rbp),%rdx
  800bd0:	48 8d 42 08          	lea    0x8(%rdx),%rax
  800bd4:	48 89 45 c0          	mov    %rax,-0x40(%rbp)
  800bd8:	eb b7                	jmp    800b91 <vprintfmt+0x5da>
    if (zflag) return va_arg(*ap, size_t);
  800bda:	45 89 cd             	mov    %r9d,%r13d
  800bdd:	84 c9                	test   %cl,%cl
  800bdf:	75 2a                	jne    800c0b <vprintfmt+0x654>
    switch (lflag) {
  800be1:	85 d2                	test   %edx,%edx
  800be3:	74 54                	je     800c39 <vprintfmt+0x682>
  800be5:	83 fa 01             	cmp    $0x1,%edx
  800be8:	74 7c                	je     800c66 <vprintfmt+0x6af>
        return va_arg(*ap, unsigned long long);
  800bea:	8b 45 b8             	mov    -0x48(%rbp),%eax
  800bed:	83 f8 2f             	cmp    $0x2f,%eax
  800bf0:	0f 87 9e 00 00 00    	ja     800c94 <vprintfmt+0x6dd>
  800bf6:	89 c2                	mov    %eax,%edx
  800bf8:	48 01 d6             	add    %rdx,%rsi
  800bfb:	83 c0 08             	add    $0x8,%eax
  800bfe:	89 45 b8             	mov    %eax,-0x48(%rbp)
  800c01:	48 8b 16             	mov    (%rsi),%rdx
            base = 16;
  800c04:	b9 10 00 00 00       	mov    $0x10,%ecx
        return va_arg(*ap, unsigned long long);
  800c09:	eb 8e                	jmp    800b99 <vprintfmt+0x5e2>
    if (zflag) return va_arg(*ap, size_t);
  800c0b:	8b 45 b8             	mov    -0x48(%rbp),%eax
  800c0e:	83 f8 2f             	cmp    $0x2f,%eax
  800c11:	77 18                	ja     800c2b <vprintfmt+0x674>
  800c13:	89 c2                	mov    %eax,%edx
  800c15:	48 01 d6             	add    %rdx,%rsi
  800c18:	83 c0 08             	add    $0x8,%eax
  800c1b:	89 45 b8             	mov    %eax,-0x48(%rbp)
  800c1e:	48 8b 16             	mov    (%rsi),%rdx
            base = 16;
  800c21:	b9 10 00 00 00       	mov    $0x10,%ecx
    if (zflag) return va_arg(*ap, size_t);
  800c26:	e9 6e ff ff ff       	jmp    800b99 <vprintfmt+0x5e2>
  800c2b:	48 8b 75 c0          	mov    -0x40(%rbp),%rsi
  800c2f:	48 8d 46 08          	lea    0x8(%rsi),%rax
  800c33:	48 89 45 c0          	mov    %rax,-0x40(%rbp)
  800c37:	eb e5                	jmp    800c1e <vprintfmt+0x667>
        return va_arg(*ap, unsigned int);
  800c39:	8b 45 b8             	mov    -0x48(%rbp),%eax
  800c3c:	83 f8 2f             	cmp    $0x2f,%eax
  800c3f:	77 17                	ja     800c58 <vprintfmt+0x6a1>
  800c41:	89 c2                	mov    %eax,%edx
  800c43:	48 01 d6             	add    %rdx,%rsi
  800c46:	83 c0 08             	add    $0x8,%eax
  800c49:	89 45 b8             	mov    %eax,-0x48(%rbp)
  800c4c:	8b 16                	mov    (%rsi),%edx
            base = 16;
  800c4e:	b9 10 00 00 00       	mov    $0x10,%ecx
        return va_arg(*ap, unsigned int);
  800c53:	e9 41 ff ff ff       	jmp    800b99 <vprintfmt+0x5e2>
  800c58:	48 8b 75 c0          	mov    -0x40(%rbp),%rsi
  800c5c:	48 8d 46 08          	lea    0x8(%rsi),%rax
  800c60:	48 89 45 c0          	mov    %rax,-0x40(%rbp)
  800c64:	eb e6                	jmp    800c4c <vprintfmt+0x695>
        return va_arg(*ap, unsigned long);
  800c66:	8b 45 b8             	mov    -0x48(%rbp),%eax
  800c69:	83 f8 2f             	cmp    $0x2f,%eax
  800c6c:	77 18                	ja     800c86 <vprintfmt+0x6cf>
  800c6e:	89 c2                	mov    %eax,%edx
  800c70:	48 01 d6             	add    %rdx,%rsi
  800c73:	83 c0 08             	add    $0x8,%eax
  800c76:	89 45 b8             	mov    %eax,-0x48(%rbp)
  800c79:	48 8b 16             	mov    (%rsi),%rdx
            base = 16;
  800c7c:	b9 10 00 00 00       	mov    $0x10,%ecx
        return va_arg(*ap, unsigned long);
  800c81:	e9 13 ff ff ff       	jmp    800b99 <vprintfmt+0x5e2>
  800c86:	48 8b 75 c0          	mov    -0x40(%rbp),%rsi
  800c8a:	48 8d 46 08          	lea    0x8(%rsi),%rax
  800c8e:	48 89 45 c0          	mov    %rax,-0x40(%rbp)
  800c92:	eb e5                	jmp    800c79 <vprintfmt+0x6c2>
        return va_arg(*ap, unsigned long long);
  800c94:	48 8b 75 c0          	mov    -0x40(%rbp),%rsi
  800c98:	48 8d 46 08          	lea    0x8(%rsi),%rax
  800c9c:	48 89 45 c0          	mov    %rax,-0x40(%rbp)
  800ca0:	e9 5c ff ff ff       	jmp    800c01 <vprintfmt+0x64a>
            putch(ch, put_arg);
  800ca5:	4c 89 f6             	mov    %r14,%rsi
  800ca8:	bf 25 00 00 00       	mov    $0x25,%edi
  800cad:	41 ff d4             	call   *%r12
            break;
  800cb0:	e9 33 f9 ff ff       	jmp    8005e8 <vprintfmt+0x31>
            putch('%', put_arg);
  800cb5:	4c 89 f6             	mov    %r14,%rsi
  800cb8:	bf 25 00 00 00       	mov    $0x25,%edi
  800cbd:	41 ff d4             	call   *%r12
            while ((--ufmt)[-1] != '%') /* nothing */
  800cc0:	49 83 ef 01          	sub    $0x1,%r15
  800cc4:	41 80 7f ff 25       	cmpb   $0x25,-0x1(%r15)
  800cc9:	75 f5                	jne    800cc0 <vprintfmt+0x709>
  800ccb:	e9 18 f9 ff ff       	jmp    8005e8 <vprintfmt+0x31>
}
  800cd0:	48 8d 65 d8          	lea    -0x28(%rbp),%rsp
  800cd4:	5b                   	pop    %rbx
  800cd5:	41 5c                	pop    %r12
  800cd7:	41 5d                	pop    %r13
  800cd9:	41 5e                	pop    %r14
  800cdb:	41 5f                	pop    %r15
  800cdd:	5d                   	pop    %rbp
  800cde:	c3                   	ret    

0000000000800cdf <vsnprintf>:

int
vsnprintf(char *buf, size_t n, const char *fmt, va_list ap) {
  800cdf:	55                   	push   %rbp
  800ce0:	48 89 e5             	mov    %rsp,%rbp
  800ce3:	48 83 ec 20          	sub    $0x20,%rsp
    struct sprintbuf state = {buf, buf + n - 1, 0};
  800ce7:	48 89 7d e8          	mov    %rdi,-0x18(%rbp)
  800ceb:	48 8d 44 37 ff       	lea    -0x1(%rdi,%rsi,1),%rax
  800cf0:	48 89 45 f0          	mov    %rax,-0x10(%rbp)
  800cf4:	c7 45 f8 00 00 00 00 	movl   $0x0,-0x8(%rbp)

    if (!buf || n < 1) return -E_INVAL;
  800cfb:	48 85 ff             	test   %rdi,%rdi
  800cfe:	74 2b                	je     800d2b <vsnprintf+0x4c>
  800d00:	48 85 f6             	test   %rsi,%rsi
  800d03:	74 26                	je     800d2b <vsnprintf+0x4c>

    /* Print the string to the buffer */
    vprintfmt((void *)sprintputch, &state, fmt, ap);
  800d05:	48 8d 75 e8          	lea    -0x18(%rbp),%rsi
  800d09:	48 bf 62 05 80 00 00 	movabs $0x800562,%rdi
  800d10:	00 00 00 
  800d13:	48 b8 b7 05 80 00 00 	movabs $0x8005b7,%rax
  800d1a:	00 00 00 
  800d1d:	ff d0                	call   *%rax

    /* Null terminate the buffer */
    *state.start = '\0';
  800d1f:	48 8b 45 e8          	mov    -0x18(%rbp),%rax
  800d23:	c6 00 00             	movb   $0x0,(%rax)

    return state.count;
  800d26:	8b 45 f8             	mov    -0x8(%rbp),%eax
}
  800d29:	c9                   	leave  
  800d2a:	c3                   	ret    
    if (!buf || n < 1) return -E_INVAL;
  800d2b:	b8 fd ff ff ff       	mov    $0xfffffffd,%eax
  800d30:	eb f7                	jmp    800d29 <vsnprintf+0x4a>

0000000000800d32 <snprintf>:

int
snprintf(char *buf, size_t n, const char *fmt, ...) {
  800d32:	55                   	push   %rbp
  800d33:	48 89 e5             	mov    %rsp,%rbp
  800d36:	48 83 ec 50          	sub    $0x50,%rsp
  800d3a:	48 89 4d e8          	mov    %rcx,-0x18(%rbp)
  800d3e:	4c 89 45 f0          	mov    %r8,-0x10(%rbp)
  800d42:	4c 89 4d f8          	mov    %r9,-0x8(%rbp)
    va_list ap;

    va_start(ap, fmt);
  800d46:	c7 45 b8 18 00 00 00 	movl   $0x18,-0x48(%rbp)
  800d4d:	48 8d 45 10          	lea    0x10(%rbp),%rax
  800d51:	48 89 45 c0          	mov    %rax,-0x40(%rbp)
  800d55:	48 8d 45 d0          	lea    -0x30(%rbp),%rax
  800d59:	48 89 45 c8          	mov    %rax,-0x38(%rbp)
    int rc = vsnprintf(buf, n, fmt, ap);
  800d5d:	48 8d 4d b8          	lea    -0x48(%rbp),%rcx
  800d61:	48 b8 df 0c 80 00 00 	movabs $0x800cdf,%rax
  800d68:	00 00 00 
  800d6b:	ff d0                	call   *%rax
    va_end(ap);

    return rc;
}
  800d6d:	c9                   	leave  
  800d6e:	c3                   	ret    

0000000000800d6f <strlen>:
#define ASM 1

size_t
strlen(const char *s) {
    size_t n = 0;
    while (*s++) n++;
  800d6f:	80 3f 00             	cmpb   $0x0,(%rdi)
  800d72:	74 10                	je     800d84 <strlen+0x15>
    size_t n = 0;
  800d74:	b8 00 00 00 00       	mov    $0x0,%eax
    while (*s++) n++;
  800d79:	48 83 c0 01          	add    $0x1,%rax
  800d7d:	80 3c 07 00          	cmpb   $0x0,(%rdi,%rax,1)
  800d81:	75 f6                	jne    800d79 <strlen+0xa>
  800d83:	c3                   	ret    
    size_t n = 0;
  800d84:	b8 00 00 00 00       	mov    $0x0,%eax
    return n;
}
  800d89:	c3                   	ret    

0000000000800d8a <strnlen>:

size_t
strnlen(const char *s, size_t size) {
    size_t n = 0;
  800d8a:	b8 00 00 00 00       	mov    $0x0,%eax
    while (n < size && *s++) n++;
  800d8f:	48 85 f6             	test   %rsi,%rsi
  800d92:	74 10                	je     800da4 <strnlen+0x1a>
  800d94:	80 3c 07 00          	cmpb   $0x0,(%rdi,%rax,1)
  800d98:	74 09                	je     800da3 <strnlen+0x19>
  800d9a:	48 83 c0 01          	add    $0x1,%rax
  800d9e:	48 39 c6             	cmp    %rax,%rsi
  800da1:	75 f1                	jne    800d94 <strnlen+0xa>
    return n;
}
  800da3:	c3                   	ret    
    size_t n = 0;
  800da4:	48 89 f0             	mov    %rsi,%rax
  800da7:	c3                   	ret    

0000000000800da8 <strcpy>:

char *
strcpy(char *dst, const char *src) {
    char *res = dst;
    while ((*dst++ = *src++)) /* nothing */
  800da8:	b8 00 00 00 00       	mov    $0x0,%eax
  800dad:	0f b6 14 06          	movzbl (%rsi,%rax,1),%edx
  800db1:	88 14 07             	mov    %dl,(%rdi,%rax,1)
  800db4:	48 83 c0 01          	add    $0x1,%rax
  800db8:	84 d2                	test   %dl,%dl
  800dba:	75 f1                	jne    800dad <strcpy+0x5>
        ;
    return res;
}
  800dbc:	48 89 f8             	mov    %rdi,%rax
  800dbf:	c3                   	ret    

0000000000800dc0 <strcat>:

char *
strcat(char *dst, const char *src) {
  800dc0:	55                   	push   %rbp
  800dc1:	48 89 e5             	mov    %rsp,%rbp
  800dc4:	41 54                	push   %r12
  800dc6:	53                   	push   %rbx
  800dc7:	48 89 fb             	mov    %rdi,%rbx
  800dca:	49 89 f4             	mov    %rsi,%r12
    size_t len = strlen(dst);
  800dcd:	48 b8 6f 0d 80 00 00 	movabs $0x800d6f,%rax
  800dd4:	00 00 00 
  800dd7:	ff d0                	call   *%rax
    strcpy(dst + len, src);
  800dd9:	48 8d 3c 03          	lea    (%rbx,%rax,1),%rdi
  800ddd:	4c 89 e6             	mov    %r12,%rsi
  800de0:	48 b8 a8 0d 80 00 00 	movabs $0x800da8,%rax
  800de7:	00 00 00 
  800dea:	ff d0                	call   *%rax
    return dst;
}
  800dec:	48 89 d8             	mov    %rbx,%rax
  800def:	5b                   	pop    %rbx
  800df0:	41 5c                	pop    %r12
  800df2:	5d                   	pop    %rbp
  800df3:	c3                   	ret    

0000000000800df4 <strncpy>:

char *
strncpy(char *dst, const char *src, size_t size) {
    char *ret = dst;
    while (size-- > 0) {
  800df4:	48 85 d2             	test   %rdx,%rdx
  800df7:	74 1d                	je     800e16 <strncpy+0x22>
  800df9:	48 8d 0c 17          	lea    (%rdi,%rdx,1),%rcx
  800dfd:	48 89 f8             	mov    %rdi,%rax
        *dst++ = *src;
  800e00:	48 83 c0 01          	add    $0x1,%rax
  800e04:	0f b6 16             	movzbl (%rsi),%edx
  800e07:	88 50 ff             	mov    %dl,-0x1(%rax)
        /* If strlen(src) < size, null-pad
         * 'dst' out to 'size' chars */
        if (*src) src++;
  800e0a:	80 fa 01             	cmp    $0x1,%dl
  800e0d:	48 83 de ff          	sbb    $0xffffffffffffffff,%rsi
    while (size-- > 0) {
  800e11:	48 39 c1             	cmp    %rax,%rcx
  800e14:	75 ea                	jne    800e00 <strncpy+0xc>
    }
    return ret;
}
  800e16:	48 89 f8             	mov    %rdi,%rax
  800e19:	c3                   	ret    

0000000000800e1a <strlcpy>:

size_t
strlcpy(char *dst, const char *src, size_t size) {
    char *dst_in = dst;
    if (size) {
  800e1a:	48 89 f8             	mov    %rdi,%rax
  800e1d:	48 85 d2             	test   %rdx,%rdx
  800e20:	74 24                	je     800e46 <strlcpy+0x2c>
        while (--size > 0 && *src)
  800e22:	48 83 ea 01          	sub    $0x1,%rdx
  800e26:	74 1b                	je     800e43 <strlcpy+0x29>
  800e28:	48 8d 0c 17          	lea    (%rdi,%rdx,1),%rcx
  800e2c:	0f b6 16             	movzbl (%rsi),%edx
  800e2f:	84 d2                	test   %dl,%dl
  800e31:	74 10                	je     800e43 <strlcpy+0x29>
            *dst++ = *src++;
  800e33:	48 83 c6 01          	add    $0x1,%rsi
  800e37:	48 83 c0 01          	add    $0x1,%rax
  800e3b:	88 50 ff             	mov    %dl,-0x1(%rax)
        while (--size > 0 && *src)
  800e3e:	48 39 c8             	cmp    %rcx,%rax
  800e41:	75 e9                	jne    800e2c <strlcpy+0x12>
        *dst = '\0';
  800e43:	c6 00 00             	movb   $0x0,(%rax)
    }
    return dst - dst_in;
  800e46:	48 29 f8             	sub    %rdi,%rax
}
  800e49:	c3                   	ret    

0000000000800e4a <strcmp>:
    return dstlen + srclen;
}

int
strcmp(const char *p, const char *q) {
    while (*p && *p == *q) p++, q++;
  800e4a:	0f b6 07             	movzbl (%rdi),%eax
  800e4d:	84 c0                	test   %al,%al
  800e4f:	74 13                	je     800e64 <strcmp+0x1a>
  800e51:	38 06                	cmp    %al,(%rsi)
  800e53:	75 0f                	jne    800e64 <strcmp+0x1a>
  800e55:	48 83 c7 01          	add    $0x1,%rdi
  800e59:	48 83 c6 01          	add    $0x1,%rsi
  800e5d:	0f b6 07             	movzbl (%rdi),%eax
  800e60:	84 c0                	test   %al,%al
  800e62:	75 ed                	jne    800e51 <strcmp+0x7>
    return (int)((unsigned char)*p - (unsigned char)*q);
  800e64:	0f b6 c0             	movzbl %al,%eax
  800e67:	0f b6 16             	movzbl (%rsi),%edx
  800e6a:	29 d0                	sub    %edx,%eax
}
  800e6c:	c3                   	ret    

0000000000800e6d <strncmp>:

int
strncmp(const char *p, const char *q, size_t n) {
    while (n && *p && *p == *q) n--, p++, q++;
  800e6d:	48 85 d2             	test   %rdx,%rdx
  800e70:	74 1f                	je     800e91 <strncmp+0x24>
  800e72:	0f b6 07             	movzbl (%rdi),%eax
  800e75:	84 c0                	test   %al,%al
  800e77:	74 1e                	je     800e97 <strncmp+0x2a>
  800e79:	3a 06                	cmp    (%rsi),%al
  800e7b:	75 1a                	jne    800e97 <strncmp+0x2a>
  800e7d:	48 83 c7 01          	add    $0x1,%rdi
  800e81:	48 83 c6 01          	add    $0x1,%rsi
  800e85:	48 83 ea 01          	sub    $0x1,%rdx
  800e89:	75 e7                	jne    800e72 <strncmp+0x5>

    if (!n) return 0;
  800e8b:	b8 00 00 00 00       	mov    $0x0,%eax
  800e90:	c3                   	ret    
  800e91:	b8 00 00 00 00       	mov    $0x0,%eax
  800e96:	c3                   	ret    
  800e97:	48 85 d2             	test   %rdx,%rdx
  800e9a:	74 09                	je     800ea5 <strncmp+0x38>

    return (int)((unsigned char)*p - (unsigned char)*q);
  800e9c:	0f b6 07             	movzbl (%rdi),%eax
  800e9f:	0f b6 16             	movzbl (%rsi),%edx
  800ea2:	29 d0                	sub    %edx,%eax
  800ea4:	c3                   	ret    
    if (!n) return 0;
  800ea5:	b8 00 00 00 00       	mov    $0x0,%eax
}
  800eaa:	c3                   	ret    

0000000000800eab <strchr>:

/* Return a pointer to the first occurrence of 'c' in 's',
 *  * or a null pointer if the string has no 'c' */
char *
strchr(const char *str, int c) {
    for (; *str; str++) {
  800eab:	0f b6 07             	movzbl (%rdi),%eax
  800eae:	84 c0                	test   %al,%al
  800eb0:	74 18                	je     800eca <strchr+0x1f>
        if (*str == c) {
  800eb2:	0f be c0             	movsbl %al,%eax
  800eb5:	39 f0                	cmp    %esi,%eax
  800eb7:	74 17                	je     800ed0 <strchr+0x25>
    for (; *str; str++) {
  800eb9:	48 83 c7 01          	add    $0x1,%rdi
  800ebd:	0f b6 07             	movzbl (%rdi),%eax
  800ec0:	84 c0                	test   %al,%al
  800ec2:	75 ee                	jne    800eb2 <strchr+0x7>
            return (char *)str;
        }
    }
    return NULL;
  800ec4:	b8 00 00 00 00       	mov    $0x0,%eax
  800ec9:	c3                   	ret    
  800eca:	b8 00 00 00 00       	mov    $0x0,%eax
  800ecf:	c3                   	ret    
  800ed0:	48 89 f8             	mov    %rdi,%rax
}
  800ed3:	c3                   	ret    

0000000000800ed4 <strfind>:

/* Return a pointer to the first occurrence of 'c' in 's',
 *  * or a pointer to the string-ending null character if the string has no 'c' */
char *
strfind(const char *str, int ch) {
    for (; *str && *str != ch; str++) /* nothing */
  800ed4:	0f b6 07             	movzbl (%rdi),%eax
  800ed7:	84 c0                	test   %al,%al
  800ed9:	74 16                	je     800ef1 <strfind+0x1d>
  800edb:	0f be c0             	movsbl %al,%eax
  800ede:	39 f0                	cmp    %esi,%eax
  800ee0:	74 13                	je     800ef5 <strfind+0x21>
  800ee2:	48 83 c7 01          	add    $0x1,%rdi
  800ee6:	0f b6 07             	movzbl (%rdi),%eax
  800ee9:	84 c0                	test   %al,%al
  800eeb:	75 ee                	jne    800edb <strfind+0x7>
  800eed:	48 89 f8             	mov    %rdi,%rax
        ;
    return (char *)str;
}
  800ef0:	c3                   	ret    
    for (; *str && *str != ch; str++) /* nothing */
  800ef1:	48 89 f8             	mov    %rdi,%rax
  800ef4:	c3                   	ret    
  800ef5:	48 89 f8             	mov    %rdi,%rax
  800ef8:	c3                   	ret    

0000000000800ef9 <memset>:


#if ASM
void *
memset(void *v, int c, size_t n) {
  800ef9:	49 89 f8             	mov    %rdi,%r8
    uint8_t *ptr = v;
    ssize_t ni = n;

    if (__builtin_expect((ni -= ((8 - ((uintptr_t)v & 7))) & 7) < 0, 0)) {
  800efc:	48 89 f8             	mov    %rdi,%rax
  800eff:	48 f7 d8             	neg    %rax
  800f02:	83 e0 07             	and    $0x7,%eax
  800f05:	49 89 d1             	mov    %rdx,%r9
  800f08:	49 29 c1             	sub    %rax,%r9
  800f0b:	78 32                	js     800f3f <memset+0x46>
        while (n-- > 0) *ptr++ = c;
        return v;
    }

    uint64_t k = 0x101010101010101ULL * (c & 0xFFU);
  800f0d:	40 0f b6 c6          	movzbl %sil,%eax
  800f11:	48 be 01 01 01 01 01 	movabs $0x101010101010101,%rsi
  800f18:	01 01 01 
  800f1b:	48 0f af c6          	imul   %rsi,%rax

    if (__builtin_expect((uintptr_t)ptr & 7, 0)) {
  800f1f:	40 f6 c7 07          	test   $0x7,%dil
  800f23:	75 34                	jne    800f59 <memset+0x60>
        if ((uintptr_t)ptr & 1) *ptr = k, ptr += 1;
        if ((uintptr_t)ptr & 2) *(uint16_t *)ptr = k, ptr += 2;
        if ((uintptr_t)ptr & 4) *(uint32_t *)ptr = k, ptr += 4;
    }

    if (__builtin_expect(ni >> 3, 1)) {
  800f25:	4c 89 c9             	mov    %r9,%rcx
  800f28:	48 c1 f9 03          	sar    $0x3,%rcx
  800f2c:	74 08                	je     800f36 <memset+0x3d>
        asm volatile("cld; rep stosq\n" ::"D"(ptr), "a"(k), "c"(ni >> 3)
  800f2e:	fc                   	cld    
  800f2f:	f3 48 ab             	rep stos %rax,%es:(%rdi)
                     : "cc", "memory");
        ni &= 7;
  800f32:	41 83 e1 07          	and    $0x7,%r9d
    }

    if (__builtin_expect(ni, 0)) {
  800f36:	4d 85 c9             	test   %r9,%r9
  800f39:	75 45                	jne    800f80 <memset+0x87>
        if (ni & 2) *(uint16_t *)ptr = k, ptr += 2;
        if (ni & 1) *ptr = k;
    }

    return v;
}
  800f3b:	4c 89 c0             	mov    %r8,%rax
  800f3e:	c3                   	ret    
        while (n-- > 0) *ptr++ = c;
  800f3f:	48 85 d2             	test   %rdx,%rdx
  800f42:	74 f7                	je     800f3b <memset+0x42>
  800f44:	48 01 fa             	add    %rdi,%rdx
    uint8_t *ptr = v;
  800f47:	48 89 f8             	mov    %rdi,%rax
        while (n-- > 0) *ptr++ = c;
  800f4a:	48 83 c0 01          	add    $0x1,%rax
  800f4e:	40 88 70 ff          	mov    %sil,-0x1(%rax)
  800f52:	48 39 c2             	cmp    %rax,%rdx
  800f55:	75 f3                	jne    800f4a <memset+0x51>
  800f57:	eb e2                	jmp    800f3b <memset+0x42>
        if ((uintptr_t)ptr & 1) *ptr = k, ptr += 1;
  800f59:	40 f6 c7 01          	test   $0x1,%dil
  800f5d:	74 06                	je     800f65 <memset+0x6c>
  800f5f:	88 07                	mov    %al,(%rdi)
  800f61:	48 8d 7f 01          	lea    0x1(%rdi),%rdi
        if ((uintptr_t)ptr & 2) *(uint16_t *)ptr = k, ptr += 2;
  800f65:	40 f6 c7 02          	test   $0x2,%dil
  800f69:	74 07                	je     800f72 <memset+0x79>
  800f6b:	66 89 07             	mov    %ax,(%rdi)
  800f6e:	48 83 c7 02          	add    $0x2,%rdi
        if ((uintptr_t)ptr & 4) *(uint32_t *)ptr = k, ptr += 4;
  800f72:	40 f6 c7 04          	test   $0x4,%dil
  800f76:	74 ad                	je     800f25 <memset+0x2c>
  800f78:	89 07                	mov    %eax,(%rdi)
  800f7a:	48 83 c7 04          	add    $0x4,%rdi
  800f7e:	eb a5                	jmp    800f25 <memset+0x2c>
        if (ni & 4) *(uint32_t *)ptr = k, ptr += 4;
  800f80:	41 f6 c1 04          	test   $0x4,%r9b
  800f84:	74 06                	je     800f8c <memset+0x93>
  800f86:	89 07                	mov    %eax,(%rdi)
  800f88:	48 83 c7 04          	add    $0x4,%rdi
        if (ni & 2) *(uint16_t *)ptr = k, ptr += 2;
  800f8c:	41 f6 c1 02          	test   $0x2,%r9b
  800f90:	74 07                	je     800f99 <memset+0xa0>
  800f92:	66 89 07             	mov    %ax,(%rdi)
  800f95:	48 83 c7 02          	add    $0x2,%rdi
        if (ni & 1) *ptr = k;
  800f99:	41 f6 c1 01          	test   $0x1,%r9b
  800f9d:	74 9c                	je     800f3b <memset+0x42>
  800f9f:	88 07                	mov    %al,(%rdi)
  800fa1:	eb 98                	jmp    800f3b <memset+0x42>

0000000000800fa3 <memmove>:

void *
memmove(void *dst, const void *src, size_t n) {
  800fa3:	48 89 f8             	mov    %rdi,%rax
  800fa6:	48 89 d1             	mov    %rdx,%rcx
    const char *s = src;
    char *d = dst;

    if (s < d && s + n > d) {
  800fa9:	48 39 fe             	cmp    %rdi,%rsi
  800fac:	73 39                	jae    800fe7 <memmove+0x44>
  800fae:	48 01 f2             	add    %rsi,%rdx
  800fb1:	48 39 fa             	cmp    %rdi,%rdx
  800fb4:	76 31                	jbe    800fe7 <memmove+0x44>
        s += n;
        d += n;
  800fb6:	48 01 cf             	add    %rcx,%rdi
        if (!(((intptr_t)s & 7) | ((intptr_t)d & 7) | (n & 7))) {
  800fb9:	48 89 d6             	mov    %rdx,%rsi
  800fbc:	48 09 fe             	or     %rdi,%rsi
  800fbf:	48 09 ce             	or     %rcx,%rsi
  800fc2:	40 f6 c6 07          	test   $0x7,%sil
  800fc6:	75 12                	jne    800fda <memmove+0x37>
            asm volatile("std; rep movsq\n" ::"D"(d - 8), "S"(s - 8), "c"(n / 8)
  800fc8:	48 83 ef 08          	sub    $0x8,%rdi
  800fcc:	48 8d 72 f8          	lea    -0x8(%rdx),%rsi
  800fd0:	48 c1 e9 03          	shr    $0x3,%rcx
  800fd4:	fd                   	std    
  800fd5:	f3 48 a5             	rep movsq %ds:(%rsi),%es:(%rdi)
        } else {
            asm volatile("std; rep movsb\n" ::"D"(d - 1), "S"(s - 1), "c"(n)
                         : "cc", "memory");
        }
        /* Some versions of GCC rely on DF being clear */
        asm volatile("cld" ::
  800fd8:	fc                   	cld    
  800fd9:	c3                   	ret    
            asm volatile("std; rep movsb\n" ::"D"(d - 1), "S"(s - 1), "c"(n)
  800fda:	48 83 ef 01          	sub    $0x1,%rdi
  800fde:	48 8d 72 ff          	lea    -0x1(%rdx),%rsi
  800fe2:	fd                   	std    
  800fe3:	f3 a4                	rep movsb %ds:(%rsi),%es:(%rdi)
  800fe5:	eb f1                	jmp    800fd8 <memmove+0x35>
                             : "cc");
    } else {
        if (!(((intptr_t)s & 7) | ((intptr_t)d & 7) | (n & 7))) {
  800fe7:	48 89 f2             	mov    %rsi,%rdx
  800fea:	48 09 c2             	or     %rax,%rdx
  800fed:	48 09 ca             	or     %rcx,%rdx
  800ff0:	f6 c2 07             	test   $0x7,%dl
  800ff3:	75 0c                	jne    801001 <memmove+0x5e>
            asm volatile("cld; rep movsq\n" ::"D"(d), "S"(s), "c"(n / 8)
  800ff5:	48 c1 e9 03          	shr    $0x3,%rcx
  800ff9:	48 89 c7             	mov    %rax,%rdi
  800ffc:	fc                   	cld    
  800ffd:	f3 48 a5             	rep movsq %ds:(%rsi),%es:(%rdi)
  801000:	c3                   	ret    
                         : "cc", "memory");
        } else {
            asm volatile("cld; rep movsb\n" ::"D"(d), "S"(s), "c"(n)
  801001:	48 89 c7             	mov    %rax,%rdi
  801004:	fc                   	cld    
  801005:	f3 a4                	rep movsb %ds:(%rsi),%es:(%rdi)
                         : "cc", "memory");
        }
    }
    return dst;
}
  801007:	c3                   	ret    

0000000000801008 <memcpy>:
    return dst;
}
#endif

void *
memcpy(void *dst, const void *src, size_t n) {
  801008:	55                   	push   %rbp
  801009:	48 89 e5             	mov    %rsp,%rbp
    return memmove(dst, src, n);
  80100c:	48 b8 a3 0f 80 00 00 	movabs $0x800fa3,%rax
  801013:	00 00 00 
  801016:	ff d0                	call   *%rax
}
  801018:	5d                   	pop    %rbp
  801019:	c3                   	ret    

000000000080101a <strlcat>:
strlcat(char *restrict dst, const char *restrict src, size_t maxlen) {
  80101a:	55                   	push   %rbp
  80101b:	48 89 e5             	mov    %rsp,%rbp
  80101e:	41 57                	push   %r15
  801020:	41 56                	push   %r14
  801022:	41 55                	push   %r13
  801024:	41 54                	push   %r12
  801026:	53                   	push   %rbx
  801027:	48 83 ec 08          	sub    $0x8,%rsp
  80102b:	49 89 fe             	mov    %rdi,%r14
  80102e:	49 89 f7             	mov    %rsi,%r15
  801031:	48 89 d3             	mov    %rdx,%rbx
    const size_t srclen = strlen(src);
  801034:	48 89 f7             	mov    %rsi,%rdi
  801037:	48 b8 6f 0d 80 00 00 	movabs $0x800d6f,%rax
  80103e:	00 00 00 
  801041:	ff d0                	call   *%rax
  801043:	49 89 c4             	mov    %rax,%r12
    const size_t dstlen = strnlen(dst, maxlen);
  801046:	48 89 de             	mov    %rbx,%rsi
  801049:	4c 89 f7             	mov    %r14,%rdi
  80104c:	48 b8 8a 0d 80 00 00 	movabs $0x800d8a,%rax
  801053:	00 00 00 
  801056:	ff d0                	call   *%rax
  801058:	49 89 c5             	mov    %rax,%r13
    if (dstlen == maxlen) return maxlen + srclen;
  80105b:	48 39 c3             	cmp    %rax,%rbx
  80105e:	74 36                	je     801096 <strlcat+0x7c>
    if (srclen < maxlen - dstlen) {
  801060:	48 89 d8             	mov    %rbx,%rax
  801063:	4c 29 e8             	sub    %r13,%rax
  801066:	4c 39 e0             	cmp    %r12,%rax
  801069:	76 30                	jbe    80109b <strlcat+0x81>
        memcpy(dst + dstlen, src, srclen + 1);
  80106b:	49 8d 54 24 01       	lea    0x1(%r12),%rdx
  801070:	4b 8d 3c 2e          	lea    (%r14,%r13,1),%rdi
  801074:	4c 89 fe             	mov    %r15,%rsi
  801077:	48 b8 08 10 80 00 00 	movabs $0x801008,%rax
  80107e:	00 00 00 
  801081:	ff d0                	call   *%rax
    return dstlen + srclen;
  801083:	4b 8d 04 2c          	lea    (%r12,%r13,1),%rax
}
  801087:	48 83 c4 08          	add    $0x8,%rsp
  80108b:	5b                   	pop    %rbx
  80108c:	41 5c                	pop    %r12
  80108e:	41 5d                	pop    %r13
  801090:	41 5e                	pop    %r14
  801092:	41 5f                	pop    %r15
  801094:	5d                   	pop    %rbp
  801095:	c3                   	ret    
    if (dstlen == maxlen) return maxlen + srclen;
  801096:	4c 01 e0             	add    %r12,%rax
  801099:	eb ec                	jmp    801087 <strlcat+0x6d>
        memcpy(dst + dstlen, src, maxlen - 1);
  80109b:	48 83 eb 01          	sub    $0x1,%rbx
  80109f:	4b 8d 3c 2e          	lea    (%r14,%r13,1),%rdi
  8010a3:	48 89 da             	mov    %rbx,%rdx
  8010a6:	4c 89 fe             	mov    %r15,%rsi
  8010a9:	48 b8 08 10 80 00 00 	movabs $0x801008,%rax
  8010b0:	00 00 00 
  8010b3:	ff d0                	call   *%rax
        dst[dstlen + maxlen - 1] = '\0';
  8010b5:	49 01 de             	add    %rbx,%r14
  8010b8:	43 c6 04 2e 00       	movb   $0x0,(%r14,%r13,1)
  8010bd:	eb c4                	jmp    801083 <strlcat+0x69>

00000000008010bf <memcmp>:

int
memcmp(const void *v1, const void *v2, size_t n) {
  8010bf:	49 89 f0             	mov    %rsi,%r8
  8010c2:	48 89 d6             	mov    %rdx,%rsi
    const uint8_t *s1 = (const uint8_t *)v1;
    const uint8_t *s2 = (const uint8_t *)v2;

    while (n-- > 0) {
  8010c5:	48 85 d2             	test   %rdx,%rdx
  8010c8:	74 2a                	je     8010f4 <memcmp+0x35>
  8010ca:	b8 00 00 00 00       	mov    $0x0,%eax
        if (*s1 != *s2) {
  8010cf:	0f b6 14 07          	movzbl (%rdi,%rax,1),%edx
  8010d3:	41 0f b6 0c 00       	movzbl (%r8,%rax,1),%ecx
  8010d8:	38 ca                	cmp    %cl,%dl
  8010da:	75 0f                	jne    8010eb <memcmp+0x2c>
    while (n-- > 0) {
  8010dc:	48 83 c0 01          	add    $0x1,%rax
  8010e0:	48 39 c6             	cmp    %rax,%rsi
  8010e3:	75 ea                	jne    8010cf <memcmp+0x10>
            return (int)*s1 - (int)*s2;
        }
        s1++, s2++;
    }

    return 0;
  8010e5:	b8 00 00 00 00       	mov    $0x0,%eax
  8010ea:	c3                   	ret    
            return (int)*s1 - (int)*s2;
  8010eb:	0f b6 c2             	movzbl %dl,%eax
  8010ee:	0f b6 c9             	movzbl %cl,%ecx
  8010f1:	29 c8                	sub    %ecx,%eax
  8010f3:	c3                   	ret    
    return 0;
  8010f4:	b8 00 00 00 00       	mov    $0x0,%eax
}
  8010f9:	c3                   	ret    

00000000008010fa <memfind>:

void *
memfind(const void *src, int c, size_t n) {
    const void *end = (const char *)src + n;
  8010fa:	48 8d 04 17          	lea    (%rdi,%rdx,1),%rax
    for (; src < end; src++) {
  8010fe:	48 39 c7             	cmp    %rax,%rdi
  801101:	73 0f                	jae    801112 <memfind+0x18>
        if (*(const unsigned char *)src == (unsigned char)c) break;
  801103:	40 38 37             	cmp    %sil,(%rdi)
  801106:	74 0e                	je     801116 <memfind+0x1c>
    for (; src < end; src++) {
  801108:	48 83 c7 01          	add    $0x1,%rdi
  80110c:	48 39 f8             	cmp    %rdi,%rax
  80110f:	75 f2                	jne    801103 <memfind+0x9>
  801111:	c3                   	ret    
  801112:	48 89 f8             	mov    %rdi,%rax
  801115:	c3                   	ret    
  801116:	48 89 f8             	mov    %rdi,%rax
    }
    return (void *)src;
}
  801119:	c3                   	ret    

000000000080111a <strtol>:

long
strtol(const char *s, char **endptr, int base) {
  80111a:	49 89 f2             	mov    %rsi,%r10
  80111d:	41 89 d0             	mov    %edx,%r8d
    /* Gobble initial whitespace */
    while (*s == ' ' || *s == '\t') s++;
  801120:	0f b6 37             	movzbl (%rdi),%esi
  801123:	40 80 fe 20          	cmp    $0x20,%sil
  801127:	74 06                	je     80112f <strtol+0x15>
  801129:	40 80 fe 09          	cmp    $0x9,%sil
  80112d:	75 13                	jne    801142 <strtol+0x28>
  80112f:	48 83 c7 01          	add    $0x1,%rdi
  801133:	0f b6 37             	movzbl (%rdi),%esi
  801136:	40 80 fe 20          	cmp    $0x20,%sil
  80113a:	74 f3                	je     80112f <strtol+0x15>
  80113c:	40 80 fe 09          	cmp    $0x9,%sil
  801140:	74 ed                	je     80112f <strtol+0x15>

    bool neg = *s == '-';

    /* Plus/minus sign */
    if (*s == '+' || *s == '-') s++;
  801142:	8d 46 d5             	lea    -0x2b(%rsi),%eax
  801145:	83 e0 fd             	and    $0xfffffffd,%eax
  801148:	3c 01                	cmp    $0x1,%al
  80114a:	48 83 d7 00          	adc    $0x0,%rdi

    /* Hex or octal base prefix */
    if ((!base || base == 16) && (s[0] == '0' && s[1] == 'x')) {
  80114e:	41 f7 c0 ef ff ff ff 	test   $0xffffffef,%r8d
  801155:	75 11                	jne    801168 <strtol+0x4e>
  801157:	80 3f 30             	cmpb   $0x30,(%rdi)
  80115a:	74 16                	je     801172 <strtol+0x58>
        s += 2;
    } else if (!base && s[0] == '0') {
        base = 8;
        s++;
    } else if (!base) {
        base = 10;
  80115c:	45 85 c0             	test   %r8d,%r8d
  80115f:	b8 0a 00 00 00       	mov    $0xa,%eax
  801164:	44 0f 44 c0          	cmove  %eax,%r8d
    }

    /* Digits */
    long val = 0;
  801168:	ba 00 00 00 00       	mov    $0x0,%edx
            break;

        if (dig >= base) break;

        /* We don't properly detect overflow! */
        val = val * base + dig;
  80116d:	4d 63 c8             	movslq %r8d,%r9
  801170:	eb 38                	jmp    8011aa <strtol+0x90>
    if ((!base || base == 16) && (s[0] == '0' && s[1] == 'x')) {
  801172:	80 7f 01 78          	cmpb   $0x78,0x1(%rdi)
  801176:	74 11                	je     801189 <strtol+0x6f>
    } else if (!base && s[0] == '0') {
  801178:	45 85 c0             	test   %r8d,%r8d
  80117b:	75 eb                	jne    801168 <strtol+0x4e>
        s++;
  80117d:	48 83 c7 01          	add    $0x1,%rdi
        base = 8;
  801181:	41 b8 08 00 00 00    	mov    $0x8,%r8d
        s++;
  801187:	eb df                	jmp    801168 <strtol+0x4e>
        s += 2;
  801189:	48 83 c7 02          	add    $0x2,%rdi
        base = 16;
  80118d:	41 b8 10 00 00 00    	mov    $0x10,%r8d
        s += 2;
  801193:	eb d3                	jmp    801168 <strtol+0x4e>
            dig -= '0';
  801195:	83 e8 30             	sub    $0x30,%eax
        if (dig >= base) break;
  801198:	0f b6 c8             	movzbl %al,%ecx
  80119b:	44 39 c1             	cmp    %r8d,%ecx
  80119e:	7d 1f                	jge    8011bf <strtol+0xa5>
        val = val * base + dig;
  8011a0:	49 0f af d1          	imul   %r9,%rdx
  8011a4:	0f b6 c0             	movzbl %al,%eax
  8011a7:	48 01 c2             	add    %rax,%rdx
        uint8_t dig = *s++;
  8011aa:	48 83 c7 01          	add    $0x1,%rdi
  8011ae:	0f b6 47 ff          	movzbl -0x1(%rdi),%eax
        if (dig - '0' < 10)
  8011b2:	3c 39                	cmp    $0x39,%al
  8011b4:	76 df                	jbe    801195 <strtol+0x7b>
        else if (dig - 'a' < 27)
  8011b6:	3c 7b                	cmp    $0x7b,%al
  8011b8:	77 05                	ja     8011bf <strtol+0xa5>
            dig -= 'a' - 10;
  8011ba:	83 e8 57             	sub    $0x57,%eax
  8011bd:	eb d9                	jmp    801198 <strtol+0x7e>
    }

    if (endptr) *endptr = (char *)s;
  8011bf:	4d 85 d2             	test   %r10,%r10
  8011c2:	74 03                	je     8011c7 <strtol+0xad>
  8011c4:	49 89 3a             	mov    %rdi,(%r10)

    return (neg ? -val : val);
  8011c7:	48 89 d0             	mov    %rdx,%rax
  8011ca:	48 f7 d8             	neg    %rax
  8011cd:	40 80 fe 2d          	cmp    $0x2d,%sil
  8011d1:	48 0f 44 d0          	cmove  %rax,%rdx
}
  8011d5:	48 89 d0             	mov    %rdx,%rax
  8011d8:	c3                   	ret    

00000000008011d9 <sys_cputs>:

    return ret;
}

void
sys_cputs(const char *s, size_t len) {
  8011d9:	55                   	push   %rbp
  8011da:	48 89 e5             	mov    %rsp,%rbp
  8011dd:	53                   	push   %rbx
  8011de:	48 89 fa             	mov    %rdi,%rdx
  8011e1:	48 89 f1             	mov    %rsi,%rcx
    register uintptr_t _a0 asm("rax") = num,
  8011e4:	b8 00 00 00 00       	mov    $0x0,%eax
                           _a3 asm("rbx") = a3, _a4 asm("rdi") = a4,
  8011e9:	bb 00 00 00 00       	mov    $0x0,%ebx
  8011ee:	bf 00 00 00 00       	mov    $0x0,%edi
                           _a5 asm("rsi") = a5, _a6 asm("r8") = a6;
  8011f3:	be 00 00 00 00       	mov    $0x0,%esi
  8011f8:	41 b8 00 00 00 00    	mov    $0x0,%r8d
    asm volatile("int %1\n"
  8011fe:	cd 30                	int    $0x30
    syscall(SYS_cputs, 0, (uintptr_t)s, len, 0, 0, 0, 0);
}
  801200:	48 8b 5d f8          	mov    -0x8(%rbp),%rbx
  801204:	c9                   	leave  
  801205:	c3                   	ret    

0000000000801206 <sys_cgetc>:

int
sys_cgetc(void) {
  801206:	55                   	push   %rbp
  801207:	48 89 e5             	mov    %rsp,%rbp
  80120a:	53                   	push   %rbx
    register uintptr_t _a0 asm("rax") = num,
  80120b:	b8 01 00 00 00       	mov    $0x1,%eax
                           _a1 asm("rdx") = a1, _a2 asm("rcx") = a2,
  801210:	ba 00 00 00 00       	mov    $0x0,%edx
  801215:	b9 00 00 00 00       	mov    $0x0,%ecx
                           _a3 asm("rbx") = a3, _a4 asm("rdi") = a4,
  80121a:	bb 00 00 00 00       	mov    $0x0,%ebx
  80121f:	bf 00 00 00 00       	mov    $0x0,%edi
                           _a5 asm("rsi") = a5, _a6 asm("r8") = a6;
  801224:	be 00 00 00 00       	mov    $0x0,%esi
  801229:	41 b8 00 00 00 00    	mov    $0x0,%r8d
    asm volatile("int %1\n"
  80122f:	cd 30                	int    $0x30
    return syscall(SYS_cgetc, 0, 0, 0, 0, 0, 0, 0);
}
  801231:	48 8b 5d f8          	mov    -0x8(%rbp),%rbx
  801235:	c9                   	leave  
  801236:	c3                   	ret    

0000000000801237 <sys_env_destroy>:

int
sys_env_destroy(envid_t envid) {
  801237:	55                   	push   %rbp
  801238:	48 89 e5             	mov    %rsp,%rbp
  80123b:	53                   	push   %rbx
  80123c:	48 83 ec 08          	sub    $0x8,%rsp
    return syscall(SYS_env_destroy, 1, envid, 0, 0, 0, 0, 0);
  801240:	48 63 d7             	movslq %edi,%rdx
    register uintptr_t _a0 asm("rax") = num,
  801243:	b8 03 00 00 00       	mov    $0x3,%eax
                           _a1 asm("rdx") = a1, _a2 asm("rcx") = a2,
  801248:	b9 00 00 00 00       	mov    $0x0,%ecx
                           _a3 asm("rbx") = a3, _a4 asm("rdi") = a4,
  80124d:	bb 00 00 00 00       	mov    $0x0,%ebx
  801252:	bf 00 00 00 00       	mov    $0x0,%edi
                           _a5 asm("rsi") = a5, _a6 asm("r8") = a6;
  801257:	be 00 00 00 00       	mov    $0x0,%esi
  80125c:	41 b8 00 00 00 00    	mov    $0x0,%r8d
    asm volatile("int %1\n"
  801262:	cd 30                	int    $0x30
    if (check && ret > 0) {
  801264:	48 85 c0             	test   %rax,%rax
  801267:	7f 06                	jg     80126f <sys_env_destroy+0x38>
}
  801269:	48 8b 5d f8          	mov    -0x8(%rbp),%rbx
  80126d:	c9                   	leave  
  80126e:	c3                   	ret    
        panic("syscall %zd returned %zd (> 0)", num, ret);
  80126f:	49 89 c0             	mov    %rax,%r8
  801272:	b9 03 00 00 00       	mov    $0x3,%ecx
  801277:	48 ba e0 19 81 00 00 	movabs $0x8119e0,%rdx
  80127e:	00 00 00 
  801281:	be 26 00 00 00       	mov    $0x26,%esi
  801286:	48 bf ff 19 81 00 00 	movabs $0x8119ff,%rdi
  80128d:	00 00 00 
  801290:	b8 00 00 00 00       	mov    $0x0,%eax
  801295:	49 b9 ce 11 81 00 00 	movabs $0x8111ce,%r9
  80129c:	00 00 00 
  80129f:	41 ff d1             	call   *%r9

00000000008012a2 <sys_getenvid>:

envid_t
sys_getenvid(void) {
  8012a2:	55                   	push   %rbp
  8012a3:	48 89 e5             	mov    %rsp,%rbp
  8012a6:	53                   	push   %rbx
    register uintptr_t _a0 asm("rax") = num,
  8012a7:	b8 02 00 00 00       	mov    $0x2,%eax
                           _a1 asm("rdx") = a1, _a2 asm("rcx") = a2,
  8012ac:	ba 00 00 00 00       	mov    $0x0,%edx
  8012b1:	b9 00 00 00 00       	mov    $0x0,%ecx
                           _a3 asm("rbx") = a3, _a4 asm("rdi") = a4,
  8012b6:	bb 00 00 00 00       	mov    $0x0,%ebx
  8012bb:	bf 00 00 00 00       	mov    $0x0,%edi
                           _a5 asm("rsi") = a5, _a6 asm("r8") = a6;
  8012c0:	be 00 00 00 00       	mov    $0x0,%esi
  8012c5:	41 b8 00 00 00 00    	mov    $0x0,%r8d
    asm volatile("int %1\n"
  8012cb:	cd 30                	int    $0x30
    return syscall(SYS_getenvid, 0, 0, 0, 0, 0, 0, 0);
}
  8012cd:	48 8b 5d f8          	mov    -0x8(%rbp),%rbx
  8012d1:	c9                   	leave  
  8012d2:	c3                   	ret    

00000000008012d3 <sys_yield>:

void
sys_yield(void) {
  8012d3:	55                   	push   %rbp
  8012d4:	48 89 e5             	mov    %rsp,%rbp
  8012d7:	53                   	push   %rbx
    register uintptr_t _a0 asm("rax") = num,
  8012d8:	b8 0c 00 00 00       	mov    $0xc,%eax
                           _a1 asm("rdx") = a1, _a2 asm("rcx") = a2,
  8012dd:	ba 00 00 00 00       	mov    $0x0,%edx
  8012e2:	b9 00 00 00 00       	mov    $0x0,%ecx
                           _a3 asm("rbx") = a3, _a4 asm("rdi") = a4,
  8012e7:	bb 00 00 00 00       	mov    $0x0,%ebx
  8012ec:	bf 00 00 00 00       	mov    $0x0,%edi
                           _a5 asm("rsi") = a5, _a6 asm("r8") = a6;
  8012f1:	be 00 00 00 00       	mov    $0x0,%esi
  8012f6:	41 b8 00 00 00 00    	mov    $0x0,%r8d
    asm volatile("int %1\n"
  8012fc:	cd 30                	int    $0x30
    syscall(SYS_yield, 0, 0, 0, 0, 0, 0, 0);
}
  8012fe:	48 8b 5d f8          	mov    -0x8(%rbp),%rbx
  801302:	c9                   	leave  
  801303:	c3                   	ret    

0000000000801304 <sys_region_refs>:

int
sys_region_refs(void *va, size_t size) {
  801304:	55                   	push   %rbp
  801305:	48 89 e5             	mov    %rsp,%rbp
  801308:	53                   	push   %rbx
  801309:	48 89 fa             	mov    %rdi,%rdx
  80130c:	48 89 f1             	mov    %rsi,%rcx
    register uintptr_t _a0 asm("rax") = num,
  80130f:	b8 07 00 00 00       	mov    $0x7,%eax
                           _a3 asm("rbx") = a3, _a4 asm("rdi") = a4,
  801314:	48 bb 00 00 00 00 80 	movabs $0x8000000000,%rbx
  80131b:	00 00 00 
  80131e:	bf 00 00 00 00       	mov    $0x0,%edi
                           _a5 asm("rsi") = a5, _a6 asm("r8") = a6;
  801323:	be 00 00 00 00       	mov    $0x0,%esi
  801328:	41 b8 00 00 00 00    	mov    $0x0,%r8d
    asm volatile("int %1\n"
  80132e:	cd 30                	int    $0x30
    return syscall(SYS_region_refs, 0, (uintptr_t)va, size, MAX_USER_ADDRESS, 0, 0, 0);
}
  801330:	48 8b 5d f8          	mov    -0x8(%rbp),%rbx
  801334:	c9                   	leave  
  801335:	c3                   	ret    

0000000000801336 <sys_region_refs2>:

int
sys_region_refs2(void *va, size_t size, void *va2, size_t size2) {
  801336:	55                   	push   %rbp
  801337:	48 89 e5             	mov    %rsp,%rbp
  80133a:	53                   	push   %rbx
  80133b:	49 89 f8             	mov    %rdi,%r8
  80133e:	48 89 d3             	mov    %rdx,%rbx
  801341:	48 89 cf             	mov    %rcx,%rdi
    register uintptr_t _a0 asm("rax") = num,
  801344:	b8 07 00 00 00       	mov    $0x7,%eax
                           _a1 asm("rdx") = a1, _a2 asm("rcx") = a2,
  801349:	4c 89 c2             	mov    %r8,%rdx
  80134c:	48 89 f1             	mov    %rsi,%rcx
                           _a5 asm("rsi") = a5, _a6 asm("r8") = a6;
  80134f:	be 00 00 00 00       	mov    $0x0,%esi
  801354:	41 b8 00 00 00 00    	mov    $0x0,%r8d
    asm volatile("int %1\n"
  80135a:	cd 30                	int    $0x30
    return syscall(SYS_region_refs, 0, (uintptr_t)va, size, (uintptr_t)va2, size2, 0, 0);
}
  80135c:	48 8b 5d f8          	mov    -0x8(%rbp),%rbx
  801360:	c9                   	leave  
  801361:	c3                   	ret    

0000000000801362 <sys_alloc_region>:

int
sys_alloc_region(envid_t envid, void *va, size_t size, int perm) {
  801362:	55                   	push   %rbp
  801363:	48 89 e5             	mov    %rsp,%rbp
  801366:	53                   	push   %rbx
  801367:	48 83 ec 08          	sub    $0x8,%rsp
  80136b:	89 f8                	mov    %edi,%eax
  80136d:	48 89 d3             	mov    %rdx,%rbx
    int res = syscall(SYS_alloc_region, 1, envid, (uintptr_t)va, size, perm, 0, 0);
  801370:	48 63 f9             	movslq %ecx,%rdi
  801373:	48 63 d0             	movslq %eax,%rdx
    register uintptr_t _a0 asm("rax") = num,
  801376:	b8 04 00 00 00       	mov    $0x4,%eax
                           _a1 asm("rdx") = a1, _a2 asm("rcx") = a2,
  80137b:	48 89 f1             	mov    %rsi,%rcx
                           _a5 asm("rsi") = a5, _a6 asm("r8") = a6;
  80137e:	be 00 00 00 00       	mov    $0x0,%esi
  801383:	41 b8 00 00 00 00    	mov    $0x0,%r8d
    asm volatile("int %1\n"
  801389:	cd 30                	int    $0x30
    if (check && ret > 0) {
  80138b:	48 85 c0             	test   %rax,%rax
  80138e:	7f 06                	jg     801396 <sys_alloc_region+0x34>
        platform_asan_unpoison(va, size);
    }
#endif

    return res;
}
  801390:	48 8b 5d f8          	mov    -0x8(%rbp),%rbx
  801394:	c9                   	leave  
  801395:	c3                   	ret    
        panic("syscall %zd returned %zd (> 0)", num, ret);
  801396:	49 89 c0             	mov    %rax,%r8
  801399:	b9 04 00 00 00       	mov    $0x4,%ecx
  80139e:	48 ba e0 19 81 00 00 	movabs $0x8119e0,%rdx
  8013a5:	00 00 00 
  8013a8:	be 26 00 00 00       	mov    $0x26,%esi
  8013ad:	48 bf ff 19 81 00 00 	movabs $0x8119ff,%rdi
  8013b4:	00 00 00 
  8013b7:	b8 00 00 00 00       	mov    $0x0,%eax
  8013bc:	49 b9 ce 11 81 00 00 	movabs $0x8111ce,%r9
  8013c3:	00 00 00 
  8013c6:	41 ff d1             	call   *%r9

00000000008013c9 <sys_map_region>:

int
sys_map_region(envid_t srcenv, void *srcva, envid_t dstenv, void *dstva, size_t size, int perm) {
  8013c9:	55                   	push   %rbp
  8013ca:	48 89 e5             	mov    %rsp,%rbp
  8013cd:	53                   	push   %rbx
  8013ce:	48 83 ec 08          	sub    $0x8,%rsp
  8013d2:	89 f8                	mov    %edi,%eax
  8013d4:	49 89 f2             	mov    %rsi,%r10
  8013d7:	48 89 cf             	mov    %rcx,%rdi
  8013da:	4c 89 c6             	mov    %r8,%rsi
    int res = syscall(SYS_map_region, 1, srcenv, (uintptr_t)srcva, dstenv, (uintptr_t)dstva, size, perm);
  8013dd:	48 63 da             	movslq %edx,%rbx
  8013e0:	48 63 d0             	movslq %eax,%rdx
    register uintptr_t _a0 asm("rax") = num,
  8013e3:	b8 05 00 00 00       	mov    $0x5,%eax
                           _a1 asm("rdx") = a1, _a2 asm("rcx") = a2,
  8013e8:	4c 89 d1             	mov    %r10,%rcx
                           _a5 asm("rsi") = a5, _a6 asm("r8") = a6;
  8013eb:	4d 63 c1             	movslq %r9d,%r8
    asm volatile("int %1\n"
  8013ee:	cd 30                	int    $0x30
    if (check && ret > 0) {
  8013f0:	48 85 c0             	test   %rax,%rax
  8013f3:	7f 06                	jg     8013fb <sys_map_region+0x32>
#ifdef SANITIZE_USER_SHADOW_BASE
    if (!res && dstenv == CURENVID)
        platform_asan_unpoison(dstva, size);
#endif
    return res;
}
  8013f5:	48 8b 5d f8          	mov    -0x8(%rbp),%rbx
  8013f9:	c9                   	leave  
  8013fa:	c3                   	ret    
        panic("syscall %zd returned %zd (> 0)", num, ret);
  8013fb:	49 89 c0             	mov    %rax,%r8
  8013fe:	b9 05 00 00 00       	mov    $0x5,%ecx
  801403:	48 ba e0 19 81 00 00 	movabs $0x8119e0,%rdx
  80140a:	00 00 00 
  80140d:	be 26 00 00 00       	mov    $0x26,%esi
  801412:	48 bf ff 19 81 00 00 	movabs $0x8119ff,%rdi
  801419:	00 00 00 
  80141c:	b8 00 00 00 00       	mov    $0x0,%eax
  801421:	49 b9 ce 11 81 00 00 	movabs $0x8111ce,%r9
  801428:	00 00 00 
  80142b:	41 ff d1             	call   *%r9

000000000080142e <sys_unmap_region>:

int
sys_unmap_region(envid_t envid, void *va, size_t size) {
  80142e:	55                   	push   %rbp
  80142f:	48 89 e5             	mov    %rsp,%rbp
  801432:	53                   	push   %rbx
  801433:	48 83 ec 08          	sub    $0x8,%rsp
  801437:	48 89 f1             	mov    %rsi,%rcx
  80143a:	48 89 d3             	mov    %rdx,%rbx
    int res = syscall(SYS_unmap_region, 1, envid, (uintptr_t)va, size, 0, 0, 0);
  80143d:	48 63 d7             	movslq %edi,%rdx
    register uintptr_t _a0 asm("rax") = num,
  801440:	b8 06 00 00 00       	mov    $0x6,%eax
                           _a3 asm("rbx") = a3, _a4 asm("rdi") = a4,
  801445:	bf 00 00 00 00       	mov    $0x0,%edi
                           _a5 asm("rsi") = a5, _a6 asm("r8") = a6;
  80144a:	be 00 00 00 00       	mov    $0x0,%esi
  80144f:	41 b8 00 00 00 00    	mov    $0x0,%r8d
    asm volatile("int %1\n"
  801455:	cd 30                	int    $0x30
    if (check && ret > 0) {
  801457:	48 85 c0             	test   %rax,%rax
  80145a:	7f 06                	jg     801462 <sys_unmap_region+0x34>
                 (uintptr_t)va >= SANITIZE_USER_SHADOW_SIZE + SANITIZE_USER_SHADOW_BASE)) {
        platform_asan_poison(va, size);
    }
#endif
    return res;
}
  80145c:	48 8b 5d f8          	mov    -0x8(%rbp),%rbx
  801460:	c9                   	leave  
  801461:	c3                   	ret    
        panic("syscall %zd returned %zd (> 0)", num, ret);
  801462:	49 89 c0             	mov    %rax,%r8
  801465:	b9 06 00 00 00       	mov    $0x6,%ecx
  80146a:	48 ba e0 19 81 00 00 	movabs $0x8119e0,%rdx
  801471:	00 00 00 
  801474:	be 26 00 00 00       	mov    $0x26,%esi
  801479:	48 bf ff 19 81 00 00 	movabs $0x8119ff,%rdi
  801480:	00 00 00 
  801483:	b8 00 00 00 00       	mov    $0x0,%eax
  801488:	49 b9 ce 11 81 00 00 	movabs $0x8111ce,%r9
  80148f:	00 00 00 
  801492:	41 ff d1             	call   *%r9

0000000000801495 <sys_env_set_status>:

/* sys_exofork is inlined in lib.h */

int
sys_env_set_status(envid_t envid, int status) {
  801495:	55                   	push   %rbp
  801496:	48 89 e5             	mov    %rsp,%rbp
  801499:	53                   	push   %rbx
  80149a:	48 83 ec 08          	sub    $0x8,%rsp
    return syscall(SYS_env_set_status, 1, envid, status, 0, 0, 0, 0);
  80149e:	48 63 ce             	movslq %esi,%rcx
  8014a1:	48 63 d7             	movslq %edi,%rdx
    register uintptr_t _a0 asm("rax") = num,
  8014a4:	b8 09 00 00 00       	mov    $0x9,%eax
                           _a3 asm("rbx") = a3, _a4 asm("rdi") = a4,
  8014a9:	bb 00 00 00 00       	mov    $0x0,%ebx
  8014ae:	bf 00 00 00 00       	mov    $0x0,%edi
                           _a5 asm("rsi") = a5, _a6 asm("r8") = a6;
  8014b3:	be 00 00 00 00       	mov    $0x0,%esi
  8014b8:	41 b8 00 00 00 00    	mov    $0x0,%r8d
    asm volatile("int %1\n"
  8014be:	cd 30                	int    $0x30
    if (check && ret > 0) {
  8014c0:	48 85 c0             	test   %rax,%rax
  8014c3:	7f 06                	jg     8014cb <sys_env_set_status+0x36>
}
  8014c5:	48 8b 5d f8          	mov    -0x8(%rbp),%rbx
  8014c9:	c9                   	leave  
  8014ca:	c3                   	ret    
        panic("syscall %zd returned %zd (> 0)", num, ret);
  8014cb:	49 89 c0             	mov    %rax,%r8
  8014ce:	b9 09 00 00 00       	mov    $0x9,%ecx
  8014d3:	48 ba e0 19 81 00 00 	movabs $0x8119e0,%rdx
  8014da:	00 00 00 
  8014dd:	be 26 00 00 00       	mov    $0x26,%esi
  8014e2:	48 bf ff 19 81 00 00 	movabs $0x8119ff,%rdi
  8014e9:	00 00 00 
  8014ec:	b8 00 00 00 00       	mov    $0x0,%eax
  8014f1:	49 b9 ce 11 81 00 00 	movabs $0x8111ce,%r9
  8014f8:	00 00 00 
  8014fb:	41 ff d1             	call   *%r9

00000000008014fe <sys_env_set_trapframe>:

int
sys_env_set_trapframe(envid_t envid, struct Trapframe *tf) {
  8014fe:	55                   	push   %rbp
  8014ff:	48 89 e5             	mov    %rsp,%rbp
  801502:	53                   	push   %rbx
  801503:	48 83 ec 08          	sub    $0x8,%rsp
  801507:	48 89 f1             	mov    %rsi,%rcx
    return syscall(SYS_env_set_trapframe, 1, envid, (uintptr_t)tf, 0, 0, 0, 0);
  80150a:	48 63 d7             	movslq %edi,%rdx
    register uintptr_t _a0 asm("rax") = num,
  80150d:	b8 0a 00 00 00       	mov    $0xa,%eax
                           _a3 asm("rbx") = a3, _a4 asm("rdi") = a4,
  801512:	bb 00 00 00 00       	mov    $0x0,%ebx
  801517:	bf 00 00 00 00       	mov    $0x0,%edi
                           _a5 asm("rsi") = a5, _a6 asm("r8") = a6;
  80151c:	be 00 00 00 00       	mov    $0x0,%esi
  801521:	41 b8 00 00 00 00    	mov    $0x0,%r8d
    asm volatile("int %1\n"
  801527:	cd 30                	int    $0x30
    if (check && ret > 0) {
  801529:	48 85 c0             	test   %rax,%rax
  80152c:	7f 06                	jg     801534 <sys_env_set_trapframe+0x36>
}
  80152e:	48 8b 5d f8          	mov    -0x8(%rbp),%rbx
  801532:	c9                   	leave  
  801533:	c3                   	ret    
        panic("syscall %zd returned %zd (> 0)", num, ret);
  801534:	49 89 c0             	mov    %rax,%r8
  801537:	b9 0a 00 00 00       	mov    $0xa,%ecx
  80153c:	48 ba e0 19 81 00 00 	movabs $0x8119e0,%rdx
  801543:	00 00 00 
  801546:	be 26 00 00 00       	mov    $0x26,%esi
  80154b:	48 bf ff 19 81 00 00 	movabs $0x8119ff,%rdi
  801552:	00 00 00 
  801555:	b8 00 00 00 00       	mov    $0x0,%eax
  80155a:	49 b9 ce 11 81 00 00 	movabs $0x8111ce,%r9
  801561:	00 00 00 
  801564:	41 ff d1             	call   *%r9

0000000000801567 <sys_env_set_pgfault_upcall>:

int
sys_env_set_pgfault_upcall(envid_t envid, void *upcall) {
  801567:	55                   	push   %rbp
  801568:	48 89 e5             	mov    %rsp,%rbp
  80156b:	53                   	push   %rbx
  80156c:	48 83 ec 08          	sub    $0x8,%rsp
  801570:	48 89 f1             	mov    %rsi,%rcx
    return syscall(SYS_env_set_pgfault_upcall, 1, envid, (uintptr_t)upcall, 0, 0, 0, 0);
  801573:	48 63 d7             	movslq %edi,%rdx
    register uintptr_t _a0 asm("rax") = num,
  801576:	b8 0b 00 00 00       	mov    $0xb,%eax
                           _a3 asm("rbx") = a3, _a4 asm("rdi") = a4,
  80157b:	bb 00 00 00 00       	mov    $0x0,%ebx
  801580:	bf 00 00 00 00       	mov    $0x0,%edi
                           _a5 asm("rsi") = a5, _a6 asm("r8") = a6;
  801585:	be 00 00 00 00       	mov    $0x0,%esi
  80158a:	41 b8 00 00 00 00    	mov    $0x0,%r8d
    asm volatile("int %1\n"
  801590:	cd 30                	int    $0x30
    if (check && ret > 0) {
  801592:	48 85 c0             	test   %rax,%rax
  801595:	7f 06                	jg     80159d <sys_env_set_pgfault_upcall+0x36>
}
  801597:	48 8b 5d f8          	mov    -0x8(%rbp),%rbx
  80159b:	c9                   	leave  
  80159c:	c3                   	ret    
        panic("syscall %zd returned %zd (> 0)", num, ret);
  80159d:	49 89 c0             	mov    %rax,%r8
  8015a0:	b9 0b 00 00 00       	mov    $0xb,%ecx
  8015a5:	48 ba e0 19 81 00 00 	movabs $0x8119e0,%rdx
  8015ac:	00 00 00 
  8015af:	be 26 00 00 00       	mov    $0x26,%esi
  8015b4:	48 bf ff 19 81 00 00 	movabs $0x8119ff,%rdi
  8015bb:	00 00 00 
  8015be:	b8 00 00 00 00       	mov    $0x0,%eax
  8015c3:	49 b9 ce 11 81 00 00 	movabs $0x8111ce,%r9
  8015ca:	00 00 00 
  8015cd:	41 ff d1             	call   *%r9

00000000008015d0 <sys_ipc_try_send>:

int
sys_ipc_try_send(envid_t envid, uintptr_t value, void *srcva, size_t size, int perm) {
  8015d0:	55                   	push   %rbp
  8015d1:	48 89 e5             	mov    %rsp,%rbp
  8015d4:	53                   	push   %rbx
  8015d5:	89 f8                	mov    %edi,%eax
  8015d7:	49 89 f1             	mov    %rsi,%r9
  8015da:	48 89 d3             	mov    %rdx,%rbx
  8015dd:	48 89 cf             	mov    %rcx,%rdi
    return syscall(SYS_ipc_try_send, 0, envid, value, (uintptr_t)srcva, size, perm, 0);
  8015e0:	49 63 f0             	movslq %r8d,%rsi
  8015e3:	48 63 d0             	movslq %eax,%rdx
    register uintptr_t _a0 asm("rax") = num,
  8015e6:	b8 0d 00 00 00       	mov    $0xd,%eax
                           _a1 asm("rdx") = a1, _a2 asm("rcx") = a2,
  8015eb:	4c 89 c9             	mov    %r9,%rcx
                           _a5 asm("rsi") = a5, _a6 asm("r8") = a6;
  8015ee:	41 b8 00 00 00 00    	mov    $0x0,%r8d
    asm volatile("int %1\n"
  8015f4:	cd 30                	int    $0x30
}
  8015f6:	48 8b 5d f8          	mov    -0x8(%rbp),%rbx
  8015fa:	c9                   	leave  
  8015fb:	c3                   	ret    

00000000008015fc <sys_ipc_recv>:

int
sys_ipc_recv(void *dstva, size_t size) {
  8015fc:	55                   	push   %rbp
  8015fd:	48 89 e5             	mov    %rsp,%rbp
  801600:	53                   	push   %rbx
  801601:	48 83 ec 08          	sub    $0x8,%rsp
  801605:	48 89 fa             	mov    %rdi,%rdx
  801608:	48 89 f1             	mov    %rsi,%rcx
    register uintptr_t _a0 asm("rax") = num,
  80160b:	b8 0e 00 00 00       	mov    $0xe,%eax
                           _a3 asm("rbx") = a3, _a4 asm("rdi") = a4,
  801610:	bb 00 00 00 00       	mov    $0x0,%ebx
  801615:	bf 00 00 00 00       	mov    $0x0,%edi
                           _a5 asm("rsi") = a5, _a6 asm("r8") = a6;
  80161a:	be 00 00 00 00       	mov    $0x0,%esi
  80161f:	41 b8 00 00 00 00    	mov    $0x0,%r8d
    asm volatile("int %1\n"
  801625:	cd 30                	int    $0x30
    if (check && ret > 0) {
  801627:	48 85 c0             	test   %rax,%rax
  80162a:	7f 06                	jg     801632 <sys_ipc_recv+0x36>
    int res = syscall(SYS_ipc_recv, 1, (uintptr_t)dstva, size, 0, 0, 0, 0);
#ifdef SANITIZE_USER_SHADOW_BASE
    if (!res) platform_asan_unpoison(dstva, thisenv->env_ipc_maxsz);
#endif
    return res;
}
  80162c:	48 8b 5d f8          	mov    -0x8(%rbp),%rbx
  801630:	c9                   	leave  
  801631:	c3                   	ret    
        panic("syscall %zd returned %zd (> 0)", num, ret);
  801632:	49 89 c0             	mov    %rax,%r8
  801635:	b9 0e 00 00 00       	mov    $0xe,%ecx
  80163a:	48 ba e0 19 81 00 00 	movabs $0x8119e0,%rdx
  801641:	00 00 00 
  801644:	be 26 00 00 00       	mov    $0x26,%esi
  801649:	48 bf ff 19 81 00 00 	movabs $0x8119ff,%rdi
  801650:	00 00 00 
  801653:	b8 00 00 00 00       	mov    $0x0,%eax
  801658:	49 b9 ce 11 81 00 00 	movabs $0x8111ce,%r9
  80165f:	00 00 00 
  801662:	41 ff d1             	call   *%r9

0000000000801665 <sys_gettime>:

int
sys_gettime(void) {
  801665:	55                   	push   %rbp
  801666:	48 89 e5             	mov    %rsp,%rbp
  801669:	53                   	push   %rbx
    register uintptr_t _a0 asm("rax") = num,
  80166a:	b8 0f 00 00 00       	mov    $0xf,%eax
                           _a1 asm("rdx") = a1, _a2 asm("rcx") = a2,
  80166f:	ba 00 00 00 00       	mov    $0x0,%edx
  801674:	b9 00 00 00 00       	mov    $0x0,%ecx
                           _a3 asm("rbx") = a3, _a4 asm("rdi") = a4,
  801679:	bb 00 00 00 00       	mov    $0x0,%ebx
  80167e:	bf 00 00 00 00       	mov    $0x0,%edi
                           _a5 asm("rsi") = a5, _a6 asm("r8") = a6;
  801683:	be 00 00 00 00       	mov    $0x0,%esi
  801688:	41 b8 00 00 00 00    	mov    $0x0,%r8d
    asm volatile("int %1\n"
  80168e:	cd 30                	int    $0x30
    return syscall(SYS_gettime, 0, 0, 0, 0, 0, 0, 0);
}
  801690:	48 8b 5d f8          	mov    -0x8(%rbp),%rbx
  801694:	c9                   	leave  
  801695:	c3                   	ret    

0000000000801696 <sys_framebuffer_init>:

int
sys_framebuffer_init(void) {
  801696:	55                   	push   %rbp
  801697:	48 89 e5             	mov    %rsp,%rbp
  80169a:	53                   	push   %rbx
    register uintptr_t _a0 asm("rax") = num,
  80169b:	b8 10 00 00 00       	mov    $0x10,%eax
                           _a1 asm("rdx") = a1, _a2 asm("rcx") = a2,
  8016a0:	ba 00 00 00 00       	mov    $0x0,%edx
  8016a5:	b9 00 00 00 00       	mov    $0x0,%ecx
                           _a3 asm("rbx") = a3, _a4 asm("rdi") = a4,
  8016aa:	bb 00 00 00 00       	mov    $0x0,%ebx
  8016af:	bf 00 00 00 00       	mov    $0x0,%edi
                           _a5 asm("rsi") = a5, _a6 asm("r8") = a6;
  8016b4:	be 00 00 00 00       	mov    $0x0,%esi
  8016b9:	41 b8 00 00 00 00    	mov    $0x0,%r8d
    asm volatile("int %1\n"
  8016bf:	cd 30                	int    $0x30
    return syscall(SYS_framebuffer_init, 0, 0, 0, 0, 0, 0, 0);
}
  8016c1:	48 8b 5d f8          	mov    -0x8(%rbp),%rbx
  8016c5:	c9                   	leave  
  8016c6:	c3                   	ret    

00000000008016c7 <fd2num>:

/********************File descriptor manipulators***********************/

uint64_t
fd2num(struct Fd *fd) {
    return ((uintptr_t)fd - FDTABLE) / PAGE_SIZE;
  8016c7:	48 b8 00 00 00 30 ff 	movabs $0xffffffff30000000,%rax
  8016ce:	ff ff ff 
  8016d1:	48 01 f8             	add    %rdi,%rax
  8016d4:	48 c1 e8 0c          	shr    $0xc,%rax
}
  8016d8:	c3                   	ret    

00000000008016d9 <fd2data>:
    return ((uintptr_t)fd - FDTABLE) / PAGE_SIZE;
  8016d9:	48 b8 00 00 00 30 ff 	movabs $0xffffffff30000000,%rax
  8016e0:	ff ff ff 
  8016e3:	48 01 f8             	add    %rdi,%rax
  8016e6:	48 c1 e8 0c          	shr    $0xc,%rax

char *
fd2data(struct Fd *fd) {
    return INDEX2DATA(fd2num(fd));
  8016ea:	48 05 20 00 0d 00    	add    $0xd0020,%rax
  8016f0:	48 c1 e0 0c          	shl    $0xc,%rax
}
  8016f4:	c3                   	ret    

00000000008016f5 <fd_alloc>:
 *
 * Returns 0 on success, < 0 on error.  Errors are:
 *  -E_MAX_FD: no more file descriptors
 * On error, *fd_store is set to 0. */
int
fd_alloc(struct Fd **fd_store) {
  8016f5:	55                   	push   %rbp
  8016f6:	48 89 e5             	mov    %rsp,%rbp
  8016f9:	41 57                	push   %r15
  8016fb:	41 56                	push   %r14
  8016fd:	41 55                	push   %r13
  8016ff:	41 54                	push   %r12
  801701:	53                   	push   %rbx
  801702:	48 83 ec 08          	sub    $0x8,%rsp
  801706:	49 89 ff             	mov    %rdi,%r15
  801709:	bb 00 00 00 d0       	mov    $0xd0000000,%ebx
    for (int i = 0; i < MAXFD; i++) {
        struct Fd *fd = INDEX2FD(i);
        if (!(get_prot(fd) & PROT_R)) {
  80170e:	49 bc a3 26 80 00 00 	movabs $0x8026a3,%r12
  801715:	00 00 00 
    for (int i = 0; i < MAXFD; i++) {
  801718:	41 be 00 00 02 d0    	mov    $0xd0020000,%r14d
        if (!(get_prot(fd) & PROT_R)) {
  80171e:	48 89 df             	mov    %rbx,%rdi
  801721:	41 ff d4             	call   *%r12
  801724:	83 e0 04             	and    $0x4,%eax
  801727:	74 1a                	je     801743 <fd_alloc+0x4e>
    for (int i = 0; i < MAXFD; i++) {
  801729:	48 81 c3 00 10 00 00 	add    $0x1000,%rbx
  801730:	4c 39 f3             	cmp    %r14,%rbx
  801733:	75 e9                	jne    80171e <fd_alloc+0x29>
            *fd_store = fd;
            return 0;
        }
    }
    *fd_store = 0;
  801735:	49 c7 07 00 00 00 00 	movq   $0x0,(%r15)
    return -E_MAX_OPEN;
  80173c:	b8 f2 ff ff ff       	mov    $0xfffffff2,%eax
  801741:	eb 03                	jmp    801746 <fd_alloc+0x51>
            *fd_store = fd;
  801743:	49 89 1f             	mov    %rbx,(%r15)
}
  801746:	48 83 c4 08          	add    $0x8,%rsp
  80174a:	5b                   	pop    %rbx
  80174b:	41 5c                	pop    %r12
  80174d:	41 5d                	pop    %r13
  80174f:	41 5e                	pop    %r14
  801751:	41 5f                	pop    %r15
  801753:	5d                   	pop    %rbp
  801754:	c3                   	ret    

0000000000801755 <fd_lookup>:
 * Returns 0 on success (the page is in range and mapped), < 0 on error.
 * Errors are:
 *  -E_INVAL: fdnum was either not in range or not mapped. */
int
fd_lookup(int fdnum, struct Fd **fd_store) {
    if (fdnum < 0 || fdnum >= MAXFD) {
  801755:	83 ff 1f             	cmp    $0x1f,%edi
  801758:	77 39                	ja     801793 <fd_lookup+0x3e>
fd_lookup(int fdnum, struct Fd **fd_store) {
  80175a:	55                   	push   %rbp
  80175b:	48 89 e5             	mov    %rsp,%rbp
  80175e:	41 54                	push   %r12
  801760:	53                   	push   %rbx
  801761:	49 89 f4             	mov    %rsi,%r12
        if (debug) cprintf("[%08x] bad fd %d\n", thisenv->env_id, fdnum);
        return -E_INVAL;
    }

    struct Fd *fd = INDEX2FD(fdnum);
  801764:	48 63 df             	movslq %edi,%rbx
  801767:	48 81 c3 00 00 0d 00 	add    $0xd0000,%rbx
  80176e:	48 c1 e3 0c          	shl    $0xc,%rbx

    if (!(get_prot(fd) & PROT_R)) {
  801772:	48 89 df             	mov    %rbx,%rdi
  801775:	48 b8 a3 26 80 00 00 	movabs $0x8026a3,%rax
  80177c:	00 00 00 
  80177f:	ff d0                	call   *%rax
  801781:	a8 04                	test   $0x4,%al
  801783:	74 14                	je     801799 <fd_lookup+0x44>
        if (debug) cprintf("[%08x] closed fd %d\n", thisenv->env_id, fdnum);
        return -E_INVAL;
    }

    *fd_store = fd;
  801785:	49 89 1c 24          	mov    %rbx,(%r12)
    return 0;
  801789:	b8 00 00 00 00       	mov    $0x0,%eax
}
  80178e:	5b                   	pop    %rbx
  80178f:	41 5c                	pop    %r12
  801791:	5d                   	pop    %rbp
  801792:	c3                   	ret    
        return -E_INVAL;
  801793:	b8 fd ff ff ff       	mov    $0xfffffffd,%eax
}
  801798:	c3                   	ret    
        return -E_INVAL;
  801799:	b8 fd ff ff ff       	mov    $0xfffffffd,%eax
  80179e:	eb ee                	jmp    80178e <fd_lookup+0x39>

00000000008017a0 <dev_lookup>:
        &devpipe,
        &devcons,
        NULL};

int
dev_lookup(int dev_id, struct Dev **dev) {
  8017a0:	55                   	push   %rbp
  8017a1:	48 89 e5             	mov    %rsp,%rbp
  8017a4:	53                   	push   %rbx
  8017a5:	48 83 ec 08          	sub    $0x8,%rsp
  8017a9:	48 89 f3             	mov    %rsi,%rbx
    for (size_t i = 0; devtab[i]; i++) {
  8017ac:	48 ba a0 1a 81 00 00 	movabs $0x811aa0,%rdx
  8017b3:	00 00 00 
  8017b6:	48 b8 20 40 81 00 00 	movabs $0x814020,%rax
  8017bd:	00 00 00 
        if (devtab[i]->dev_id == dev_id) {
  8017c0:	39 38                	cmp    %edi,(%rax)
  8017c2:	74 4b                	je     80180f <dev_lookup+0x6f>
    for (size_t i = 0; devtab[i]; i++) {
  8017c4:	48 83 c2 08          	add    $0x8,%rdx
  8017c8:	48 8b 02             	mov    (%rdx),%rax
  8017cb:	48 85 c0             	test   %rax,%rax
  8017ce:	75 f0                	jne    8017c0 <dev_lookup+0x20>
            *dev = devtab[i];
            return 0;
        }
    }
    cprintf("[%08x] unknown device type %d\n", thisenv->env_id, dev_id);
  8017d0:	48 a1 08 50 81 00 00 	movabs 0x815008,%rax
  8017d7:	00 00 00 
  8017da:	8b b0 c8 00 00 00    	mov    0xc8(%rax),%esi
  8017e0:	89 fa                	mov    %edi,%edx
  8017e2:	48 bf 10 1a 81 00 00 	movabs $0x811a10,%rdi
  8017e9:	00 00 00 
  8017ec:	b8 00 00 00 00       	mov    $0x0,%eax
  8017f1:	48 b9 67 04 80 00 00 	movabs $0x800467,%rcx
  8017f8:	00 00 00 
  8017fb:	ff d1                	call   *%rcx
    *dev = 0;
  8017fd:	48 c7 03 00 00 00 00 	movq   $0x0,(%rbx)
    return -E_INVAL;
  801804:	b8 fd ff ff ff       	mov    $0xfffffffd,%eax
}
  801809:	48 8b 5d f8          	mov    -0x8(%rbp),%rbx
  80180d:	c9                   	leave  
  80180e:	c3                   	ret    
            *dev = devtab[i];
  80180f:	48 89 03             	mov    %rax,(%rbx)
            return 0;
  801812:	b8 00 00 00 00       	mov    $0x0,%eax
  801817:	eb f0                	jmp    801809 <dev_lookup+0x69>

0000000000801819 <fd_close>:
fd_close(struct Fd *fd, bool must_exist) {
  801819:	55                   	push   %rbp
  80181a:	48 89 e5             	mov    %rsp,%rbp
  80181d:	41 55                	push   %r13
  80181f:	41 54                	push   %r12
  801821:	53                   	push   %rbx
  801822:	48 83 ec 18          	sub    $0x18,%rsp
  801826:	49 89 fc             	mov    %rdi,%r12
  801829:	41 89 f5             	mov    %esi,%r13d
    return ((uintptr_t)fd - FDTABLE) / PAGE_SIZE;
  80182c:	48 bf 00 00 00 30 ff 	movabs $0xffffffff30000000,%rdi
  801833:	ff ff ff 
  801836:	4c 01 e7             	add    %r12,%rdi
  801839:	48 c1 ef 0c          	shr    $0xc,%rdi
    if ((res = fd_lookup(fd2num(fd), &fd2)) < 0 || fd != fd2) {
  80183d:	48 8d 75 d8          	lea    -0x28(%rbp),%rsi
  801841:	48 b8 55 17 80 00 00 	movabs $0x801755,%rax
  801848:	00 00 00 
  80184b:	ff d0                	call   *%rax
  80184d:	89 c3                	mov    %eax,%ebx
  80184f:	85 c0                	test   %eax,%eax
  801851:	78 06                	js     801859 <fd_close+0x40>
  801853:	4c 39 65 d8          	cmp    %r12,-0x28(%rbp)
  801857:	74 18                	je     801871 <fd_close+0x58>
        return (must_exist ? res : 0);
  801859:	45 84 ed             	test   %r13b,%r13b
  80185c:	b8 00 00 00 00       	mov    $0x0,%eax
  801861:	0f 44 d8             	cmove  %eax,%ebx
}
  801864:	89 d8                	mov    %ebx,%eax
  801866:	48 83 c4 18          	add    $0x18,%rsp
  80186a:	5b                   	pop    %rbx
  80186b:	41 5c                	pop    %r12
  80186d:	41 5d                	pop    %r13
  80186f:	5d                   	pop    %rbp
  801870:	c3                   	ret    
    if ((res = dev_lookup(fd->fd_dev_id, &dev)) >= 0) {
  801871:	48 8d 75 d0          	lea    -0x30(%rbp),%rsi
  801875:	41 8b 3c 24          	mov    (%r12),%edi
  801879:	48 b8 a0 17 80 00 00 	movabs $0x8017a0,%rax
  801880:	00 00 00 
  801883:	ff d0                	call   *%rax
  801885:	89 c3                	mov    %eax,%ebx
  801887:	85 c0                	test   %eax,%eax
  801889:	78 19                	js     8018a4 <fd_close+0x8b>
        res = dev->dev_close ? (*dev->dev_close)(fd) : 0;
  80188b:	48 8b 45 d0          	mov    -0x30(%rbp),%rax
  80188f:	48 8b 40 20          	mov    0x20(%rax),%rax
  801893:	bb 00 00 00 00       	mov    $0x0,%ebx
  801898:	48 85 c0             	test   %rax,%rax
  80189b:	74 07                	je     8018a4 <fd_close+0x8b>
  80189d:	4c 89 e7             	mov    %r12,%rdi
  8018a0:	ff d0                	call   *%rax
  8018a2:	89 c3                	mov    %eax,%ebx
    USED(sys_unmap_region(0, fd, PAGE_SIZE));
  8018a4:	ba 00 10 00 00       	mov    $0x1000,%edx
  8018a9:	4c 89 e6             	mov    %r12,%rsi
  8018ac:	bf 00 00 00 00       	mov    $0x0,%edi
  8018b1:	48 b8 2e 14 80 00 00 	movabs $0x80142e,%rax
  8018b8:	00 00 00 
  8018bb:	ff d0                	call   *%rax
    return res;
  8018bd:	eb a5                	jmp    801864 <fd_close+0x4b>

00000000008018bf <close>:

int
close(int fdnum) {
  8018bf:	55                   	push   %rbp
  8018c0:	48 89 e5             	mov    %rsp,%rbp
  8018c3:	48 83 ec 10          	sub    $0x10,%rsp
    struct Fd *fd;
    int res = fd_lookup(fdnum, &fd);
  8018c7:	48 8d 75 f8          	lea    -0x8(%rbp),%rsi
  8018cb:	48 b8 55 17 80 00 00 	movabs $0x801755,%rax
  8018d2:	00 00 00 
  8018d5:	ff d0                	call   *%rax
    if (res < 0) return res;
  8018d7:	85 c0                	test   %eax,%eax
  8018d9:	78 15                	js     8018f0 <close+0x31>

    return fd_close(fd, 1);
  8018db:	be 01 00 00 00       	mov    $0x1,%esi
  8018e0:	48 8b 7d f8          	mov    -0x8(%rbp),%rdi
  8018e4:	48 b8 19 18 80 00 00 	movabs $0x801819,%rax
  8018eb:	00 00 00 
  8018ee:	ff d0                	call   *%rax
}
  8018f0:	c9                   	leave  
  8018f1:	c3                   	ret    

00000000008018f2 <close_all>:

void
close_all(void) {
  8018f2:	55                   	push   %rbp
  8018f3:	48 89 e5             	mov    %rsp,%rbp
  8018f6:	41 54                	push   %r12
  8018f8:	53                   	push   %rbx
    for (int i = 0; i < MAXFD; i++) close(i);
  8018f9:	bb 00 00 00 00       	mov    $0x0,%ebx
  8018fe:	49 bc bf 18 80 00 00 	movabs $0x8018bf,%r12
  801905:	00 00 00 
  801908:	89 df                	mov    %ebx,%edi
  80190a:	41 ff d4             	call   *%r12
  80190d:	83 c3 01             	add    $0x1,%ebx
  801910:	83 fb 20             	cmp    $0x20,%ebx
  801913:	75 f3                	jne    801908 <close_all+0x16>
}
  801915:	5b                   	pop    %rbx
  801916:	41 5c                	pop    %r12
  801918:	5d                   	pop    %rbp
  801919:	c3                   	ret    

000000000080191a <dup>:
 * For instance, writing onto either file descriptor will affect the
 * file and the file offset of the other.
 * Closes any previously open file descriptor at 'newfdnum'.
 * This is implemented using virtual memory tricks (of course!). */
int
dup(int oldfdnum, int newfdnum) {
  80191a:	55                   	push   %rbp
  80191b:	48 89 e5             	mov    %rsp,%rbp
  80191e:	41 56                	push   %r14
  801920:	41 55                	push   %r13
  801922:	41 54                	push   %r12
  801924:	53                   	push   %rbx
  801925:	48 83 ec 10          	sub    $0x10,%rsp
  801929:	41 89 f4             	mov    %esi,%r12d
    struct Fd *oldfd, *newfd;

    int res;
    if ((res = fd_lookup(oldfdnum, &oldfd)) < 0) return res;
  80192c:	48 8d 75 d8          	lea    -0x28(%rbp),%rsi
  801930:	48 b8 55 17 80 00 00 	movabs $0x801755,%rax
  801937:	00 00 00 
  80193a:	ff d0                	call   *%rax
  80193c:	89 c3                	mov    %eax,%ebx
  80193e:	85 c0                	test   %eax,%eax
  801940:	0f 88 b7 00 00 00    	js     8019fd <dup+0xe3>
    close(newfdnum);
  801946:	44 89 e7             	mov    %r12d,%edi
  801949:	48 b8 bf 18 80 00 00 	movabs $0x8018bf,%rax
  801950:	00 00 00 
  801953:	ff d0                	call   *%rax

    newfd = INDEX2FD(newfdnum);
  801955:	4d 63 ec             	movslq %r12d,%r13
  801958:	49 81 c5 00 00 0d 00 	add    $0xd0000,%r13
  80195f:	49 c1 e5 0c          	shl    $0xc,%r13
    char *oldva = fd2data(oldfd);
  801963:	48 8b 7d d8          	mov    -0x28(%rbp),%rdi
  801967:	49 be d9 16 80 00 00 	movabs $0x8016d9,%r14
  80196e:	00 00 00 
  801971:	41 ff d6             	call   *%r14
  801974:	48 89 c3             	mov    %rax,%rbx
    char *newva = fd2data(newfd);
  801977:	4c 89 ef             	mov    %r13,%rdi
  80197a:	41 ff d6             	call   *%r14
  80197d:	49 89 c6             	mov    %rax,%r14

    int prot = get_prot(oldva);
  801980:	48 89 df             	mov    %rbx,%rdi
  801983:	48 b8 a3 26 80 00 00 	movabs $0x8026a3,%rax
  80198a:	00 00 00 
  80198d:	ff d0                	call   *%rax
    if (prot & PROT_R) {
  80198f:	a8 04                	test   $0x4,%al
  801991:	74 2b                	je     8019be <dup+0xa4>
        if ((res = sys_map_region(0, oldva, 0, newva, PAGE_SIZE, prot)) < 0) goto err;
  801993:	41 89 c1             	mov    %eax,%r9d
  801996:	41 b8 00 10 00 00    	mov    $0x1000,%r8d
  80199c:	4c 89 f1             	mov    %r14,%rcx
  80199f:	ba 00 00 00 00       	mov    $0x0,%edx
  8019a4:	48 89 de             	mov    %rbx,%rsi
  8019a7:	bf 00 00 00 00       	mov    $0x0,%edi
  8019ac:	48 b8 c9 13 80 00 00 	movabs $0x8013c9,%rax
  8019b3:	00 00 00 
  8019b6:	ff d0                	call   *%rax
  8019b8:	89 c3                	mov    %eax,%ebx
  8019ba:	85 c0                	test   %eax,%eax
  8019bc:	78 4e                	js     801a0c <dup+0xf2>
    }
    prot = get_prot(oldfd);
  8019be:	48 8b 7d d8          	mov    -0x28(%rbp),%rdi
  8019c2:	48 b8 a3 26 80 00 00 	movabs $0x8026a3,%rax
  8019c9:	00 00 00 
  8019cc:	ff d0                	call   *%rax
  8019ce:	41 89 c1             	mov    %eax,%r9d
    if ((res = sys_map_region(0, oldfd, 0, newfd, PAGE_SIZE, prot)) < 0) goto err;
  8019d1:	41 b8 00 10 00 00    	mov    $0x1000,%r8d
  8019d7:	4c 89 e9             	mov    %r13,%rcx
  8019da:	ba 00 00 00 00       	mov    $0x0,%edx
  8019df:	48 8b 75 d8          	mov    -0x28(%rbp),%rsi
  8019e3:	bf 00 00 00 00       	mov    $0x0,%edi
  8019e8:	48 b8 c9 13 80 00 00 	movabs $0x8013c9,%rax
  8019ef:	00 00 00 
  8019f2:	ff d0                	call   *%rax
  8019f4:	89 c3                	mov    %eax,%ebx
  8019f6:	85 c0                	test   %eax,%eax
  8019f8:	78 12                	js     801a0c <dup+0xf2>

    return newfdnum;
  8019fa:	44 89 e3             	mov    %r12d,%ebx

err:
    sys_unmap_region(0, newfd, PAGE_SIZE);
    sys_unmap_region(0, newva, PAGE_SIZE);
    return res;
}
  8019fd:	89 d8                	mov    %ebx,%eax
  8019ff:	48 83 c4 10          	add    $0x10,%rsp
  801a03:	5b                   	pop    %rbx
  801a04:	41 5c                	pop    %r12
  801a06:	41 5d                	pop    %r13
  801a08:	41 5e                	pop    %r14
  801a0a:	5d                   	pop    %rbp
  801a0b:	c3                   	ret    
    sys_unmap_region(0, newfd, PAGE_SIZE);
  801a0c:	ba 00 10 00 00       	mov    $0x1000,%edx
  801a11:	4c 89 ee             	mov    %r13,%rsi
  801a14:	bf 00 00 00 00       	mov    $0x0,%edi
  801a19:	49 bc 2e 14 80 00 00 	movabs $0x80142e,%r12
  801a20:	00 00 00 
  801a23:	41 ff d4             	call   *%r12
    sys_unmap_region(0, newva, PAGE_SIZE);
  801a26:	ba 00 10 00 00       	mov    $0x1000,%edx
  801a2b:	4c 89 f6             	mov    %r14,%rsi
  801a2e:	bf 00 00 00 00       	mov    $0x0,%edi
  801a33:	41 ff d4             	call   *%r12
    return res;
  801a36:	eb c5                	jmp    8019fd <dup+0xe3>

0000000000801a38 <read>:

ssize_t
read(int fdnum, void *buf, size_t n) {
  801a38:	55                   	push   %rbp
  801a39:	48 89 e5             	mov    %rsp,%rbp
  801a3c:	41 55                	push   %r13
  801a3e:	41 54                	push   %r12
  801a40:	53                   	push   %rbx
  801a41:	48 83 ec 18          	sub    $0x18,%rsp
  801a45:	89 fb                	mov    %edi,%ebx
  801a47:	49 89 f4             	mov    %rsi,%r12
  801a4a:	49 89 d5             	mov    %rdx,%r13
    int res;

    struct Fd *fd;
    if ((res = fd_lookup(fdnum, &fd)) < 0) return res;
  801a4d:	48 8d 75 d8          	lea    -0x28(%rbp),%rsi
  801a51:	48 b8 55 17 80 00 00 	movabs $0x801755,%rax
  801a58:	00 00 00 
  801a5b:	ff d0                	call   *%rax
  801a5d:	85 c0                	test   %eax,%eax
  801a5f:	78 49                	js     801aaa <read+0x72>

    struct Dev *dev;
    if ((res = dev_lookup(fd->fd_dev_id, &dev)) < 0) return res;
  801a61:	48 8d 75 d0          	lea    -0x30(%rbp),%rsi
  801a65:	48 8b 45 d8          	mov    -0x28(%rbp),%rax
  801a69:	8b 38                	mov    (%rax),%edi
  801a6b:	48 b8 a0 17 80 00 00 	movabs $0x8017a0,%rax
  801a72:	00 00 00 
  801a75:	ff d0                	call   *%rax
  801a77:	85 c0                	test   %eax,%eax
  801a79:	78 33                	js     801aae <read+0x76>

    if ((fd->fd_omode & O_ACCMODE) == O_WRONLY) {
  801a7b:	48 8b 7d d8          	mov    -0x28(%rbp),%rdi
  801a7f:	8b 47 08             	mov    0x8(%rdi),%eax
  801a82:	83 e0 03             	and    $0x3,%eax
  801a85:	83 f8 01             	cmp    $0x1,%eax
  801a88:	74 28                	je     801ab2 <read+0x7a>
        cprintf("[%08x] read %d -- bad mode\n", thisenv->env_id, fdnum);
        return -E_INVAL;
    }

    if (!dev->dev_read) return -E_NOT_SUPP;
  801a8a:	48 8b 45 d0          	mov    -0x30(%rbp),%rax
  801a8e:	48 8b 40 10          	mov    0x10(%rax),%rax
  801a92:	48 85 c0             	test   %rax,%rax
  801a95:	74 51                	je     801ae8 <read+0xb0>

    return (*dev->dev_read)(fd, buf, n);
  801a97:	4c 89 ea             	mov    %r13,%rdx
  801a9a:	4c 89 e6             	mov    %r12,%rsi
  801a9d:	ff d0                	call   *%rax
}
  801a9f:	48 83 c4 18          	add    $0x18,%rsp
  801aa3:	5b                   	pop    %rbx
  801aa4:	41 5c                	pop    %r12
  801aa6:	41 5d                	pop    %r13
  801aa8:	5d                   	pop    %rbp
  801aa9:	c3                   	ret    
    if ((res = fd_lookup(fdnum, &fd)) < 0) return res;
  801aaa:	48 98                	cltq   
  801aac:	eb f1                	jmp    801a9f <read+0x67>
    if ((res = dev_lookup(fd->fd_dev_id, &dev)) < 0) return res;
  801aae:	48 98                	cltq   
  801ab0:	eb ed                	jmp    801a9f <read+0x67>
        cprintf("[%08x] read %d -- bad mode\n", thisenv->env_id, fdnum);
  801ab2:	48 a1 08 50 81 00 00 	movabs 0x815008,%rax
  801ab9:	00 00 00 
  801abc:	8b b0 c8 00 00 00    	mov    0xc8(%rax),%esi
  801ac2:	89 da                	mov    %ebx,%edx
  801ac4:	48 bf 51 1a 81 00 00 	movabs $0x811a51,%rdi
  801acb:	00 00 00 
  801ace:	b8 00 00 00 00       	mov    $0x0,%eax
  801ad3:	48 b9 67 04 80 00 00 	movabs $0x800467,%rcx
  801ada:	00 00 00 
  801add:	ff d1                	call   *%rcx
        return -E_INVAL;
  801adf:	48 c7 c0 fd ff ff ff 	mov    $0xfffffffffffffffd,%rax
  801ae6:	eb b7                	jmp    801a9f <read+0x67>
    if (!dev->dev_read) return -E_NOT_SUPP;
  801ae8:	48 c7 c0 ed ff ff ff 	mov    $0xffffffffffffffed,%rax
  801aef:	eb ae                	jmp    801a9f <read+0x67>

0000000000801af1 <readn>:

ssize_t
readn(int fdnum, void *buf, size_t n) {
  801af1:	55                   	push   %rbp
  801af2:	48 89 e5             	mov    %rsp,%rbp
  801af5:	41 57                	push   %r15
  801af7:	41 56                	push   %r14
  801af9:	41 55                	push   %r13
  801afb:	41 54                	push   %r12
  801afd:	53                   	push   %rbx
  801afe:	48 83 ec 08          	sub    $0x8,%rsp
    int inc = 1, res = 0;
    for (; inc && res < n; res += inc) {
  801b02:	48 85 d2             	test   %rdx,%rdx
  801b05:	74 54                	je     801b5b <readn+0x6a>
  801b07:	41 89 fd             	mov    %edi,%r13d
  801b0a:	49 89 f6             	mov    %rsi,%r14
  801b0d:	49 89 d4             	mov    %rdx,%r12
    int inc = 1, res = 0;
  801b10:	bb 00 00 00 00       	mov    $0x0,%ebx
    for (; inc && res < n; res += inc) {
  801b15:	be 00 00 00 00       	mov    $0x0,%esi
        inc = read(fdnum, (char *)buf + res, n - res);
  801b1a:	49 bf 38 1a 80 00 00 	movabs $0x801a38,%r15
  801b21:	00 00 00 
  801b24:	4c 89 e2             	mov    %r12,%rdx
  801b27:	48 29 f2             	sub    %rsi,%rdx
  801b2a:	4c 01 f6             	add    %r14,%rsi
  801b2d:	44 89 ef             	mov    %r13d,%edi
  801b30:	41 ff d7             	call   *%r15
        if (inc < 0) return inc;
  801b33:	85 c0                	test   %eax,%eax
  801b35:	78 20                	js     801b57 <readn+0x66>
    for (; inc && res < n; res += inc) {
  801b37:	01 c3                	add    %eax,%ebx
  801b39:	85 c0                	test   %eax,%eax
  801b3b:	74 08                	je     801b45 <readn+0x54>
  801b3d:	48 63 f3             	movslq %ebx,%rsi
  801b40:	4c 39 e6             	cmp    %r12,%rsi
  801b43:	72 df                	jb     801b24 <readn+0x33>
    }
    return res;
  801b45:	48 63 c3             	movslq %ebx,%rax
}
  801b48:	48 83 c4 08          	add    $0x8,%rsp
  801b4c:	5b                   	pop    %rbx
  801b4d:	41 5c                	pop    %r12
  801b4f:	41 5d                	pop    %r13
  801b51:	41 5e                	pop    %r14
  801b53:	41 5f                	pop    %r15
  801b55:	5d                   	pop    %rbp
  801b56:	c3                   	ret    
        if (inc < 0) return inc;
  801b57:	48 98                	cltq   
  801b59:	eb ed                	jmp    801b48 <readn+0x57>
    int inc = 1, res = 0;
  801b5b:	bb 00 00 00 00       	mov    $0x0,%ebx
  801b60:	eb e3                	jmp    801b45 <readn+0x54>

0000000000801b62 <write>:

ssize_t
write(int fdnum, const void *buf, size_t n) {
  801b62:	55                   	push   %rbp
  801b63:	48 89 e5             	mov    %rsp,%rbp
  801b66:	41 55                	push   %r13
  801b68:	41 54                	push   %r12
  801b6a:	53                   	push   %rbx
  801b6b:	48 83 ec 18          	sub    $0x18,%rsp
  801b6f:	89 fb                	mov    %edi,%ebx
  801b71:	49 89 f4             	mov    %rsi,%r12
  801b74:	49 89 d5             	mov    %rdx,%r13
    int res;

    struct Fd *fd;
    if ((res = fd_lookup(fdnum, &fd)) < 0) return res;
  801b77:	48 8d 75 d8          	lea    -0x28(%rbp),%rsi
  801b7b:	48 b8 55 17 80 00 00 	movabs $0x801755,%rax
  801b82:	00 00 00 
  801b85:	ff d0                	call   *%rax
  801b87:	85 c0                	test   %eax,%eax
  801b89:	78 44                	js     801bcf <write+0x6d>

    struct Dev *dev;
    if ((res = dev_lookup(fd->fd_dev_id, &dev)) < 0) return res;
  801b8b:	48 8d 75 d0          	lea    -0x30(%rbp),%rsi
  801b8f:	48 8b 45 d8          	mov    -0x28(%rbp),%rax
  801b93:	8b 38                	mov    (%rax),%edi
  801b95:	48 b8 a0 17 80 00 00 	movabs $0x8017a0,%rax
  801b9c:	00 00 00 
  801b9f:	ff d0                	call   *%rax
  801ba1:	85 c0                	test   %eax,%eax
  801ba3:	78 2e                	js     801bd3 <write+0x71>

    if ((fd->fd_omode & O_ACCMODE) == O_RDONLY) {
  801ba5:	48 8b 7d d8          	mov    -0x28(%rbp),%rdi
  801ba9:	f6 47 08 03          	testb  $0x3,0x8(%rdi)
  801bad:	74 28                	je     801bd7 <write+0x75>
    if (debug) {
        cprintf("write %d %p %lu via dev %s\n",
                fdnum, buf, (unsigned long)n, dev->dev_name);
    }

    if (!dev->dev_write) return -E_NOT_SUPP;
  801baf:	48 8b 45 d0          	mov    -0x30(%rbp),%rax
  801bb3:	48 8b 40 18          	mov    0x18(%rax),%rax
  801bb7:	48 85 c0             	test   %rax,%rax
  801bba:	74 51                	je     801c0d <write+0xab>

    return (*dev->dev_write)(fd, buf, n);
  801bbc:	4c 89 ea             	mov    %r13,%rdx
  801bbf:	4c 89 e6             	mov    %r12,%rsi
  801bc2:	ff d0                	call   *%rax
}
  801bc4:	48 83 c4 18          	add    $0x18,%rsp
  801bc8:	5b                   	pop    %rbx
  801bc9:	41 5c                	pop    %r12
  801bcb:	41 5d                	pop    %r13
  801bcd:	5d                   	pop    %rbp
  801bce:	c3                   	ret    
    if ((res = fd_lookup(fdnum, &fd)) < 0) return res;
  801bcf:	48 98                	cltq   
  801bd1:	eb f1                	jmp    801bc4 <write+0x62>
    if ((res = dev_lookup(fd->fd_dev_id, &dev)) < 0) return res;
  801bd3:	48 98                	cltq   
  801bd5:	eb ed                	jmp    801bc4 <write+0x62>
        cprintf("[%08x] write %d -- bad mode\n", thisenv->env_id, fdnum);
  801bd7:	48 a1 08 50 81 00 00 	movabs 0x815008,%rax
  801bde:	00 00 00 
  801be1:	8b b0 c8 00 00 00    	mov    0xc8(%rax),%esi
  801be7:	89 da                	mov    %ebx,%edx
  801be9:	48 bf 6d 1a 81 00 00 	movabs $0x811a6d,%rdi
  801bf0:	00 00 00 
  801bf3:	b8 00 00 00 00       	mov    $0x0,%eax
  801bf8:	48 b9 67 04 80 00 00 	movabs $0x800467,%rcx
  801bff:	00 00 00 
  801c02:	ff d1                	call   *%rcx
        return -E_INVAL;
  801c04:	48 c7 c0 fd ff ff ff 	mov    $0xfffffffffffffffd,%rax
  801c0b:	eb b7                	jmp    801bc4 <write+0x62>
    if (!dev->dev_write) return -E_NOT_SUPP;
  801c0d:	48 c7 c0 ed ff ff ff 	mov    $0xffffffffffffffed,%rax
  801c14:	eb ae                	jmp    801bc4 <write+0x62>

0000000000801c16 <seek>:

int
seek(int fdnum, off_t offset) {
  801c16:	55                   	push   %rbp
  801c17:	48 89 e5             	mov    %rsp,%rbp
  801c1a:	53                   	push   %rbx
  801c1b:	48 83 ec 18          	sub    $0x18,%rsp
  801c1f:	89 f3                	mov    %esi,%ebx
    int res;
    struct Fd *fd;

    if ((res = fd_lookup(fdnum, &fd)) < 0) return res;
  801c21:	48 8d 75 e8          	lea    -0x18(%rbp),%rsi
  801c25:	48 b8 55 17 80 00 00 	movabs $0x801755,%rax
  801c2c:	00 00 00 
  801c2f:	ff d0                	call   *%rax
  801c31:	85 c0                	test   %eax,%eax
  801c33:	78 0c                	js     801c41 <seek+0x2b>

    fd->fd_offset = offset;
  801c35:	48 8b 45 e8          	mov    -0x18(%rbp),%rax
  801c39:	89 58 04             	mov    %ebx,0x4(%rax)
    return 0;
  801c3c:	b8 00 00 00 00       	mov    $0x0,%eax
}
  801c41:	48 8b 5d f8          	mov    -0x8(%rbp),%rbx
  801c45:	c9                   	leave  
  801c46:	c3                   	ret    

0000000000801c47 <ftruncate>:

int
ftruncate(int fdnum, off_t newsize) {
  801c47:	55                   	push   %rbp
  801c48:	48 89 e5             	mov    %rsp,%rbp
  801c4b:	41 54                	push   %r12
  801c4d:	53                   	push   %rbx
  801c4e:	48 83 ec 10          	sub    $0x10,%rsp
  801c52:	89 fb                	mov    %edi,%ebx
  801c54:	41 89 f4             	mov    %esi,%r12d
    int res;

    struct Fd *fd;
    if ((res = fd_lookup(fdnum, &fd)) < 0) return res;
  801c57:	48 8d 75 e8          	lea    -0x18(%rbp),%rsi
  801c5b:	48 b8 55 17 80 00 00 	movabs $0x801755,%rax
  801c62:	00 00 00 
  801c65:	ff d0                	call   *%rax
  801c67:	85 c0                	test   %eax,%eax
  801c69:	78 36                	js     801ca1 <ftruncate+0x5a>

    struct Dev *dev;
    if ((res = dev_lookup(fd->fd_dev_id, &dev)) < 0) return res;
  801c6b:	48 8d 75 e0          	lea    -0x20(%rbp),%rsi
  801c6f:	48 8b 45 e8          	mov    -0x18(%rbp),%rax
  801c73:	8b 38                	mov    (%rax),%edi
  801c75:	48 b8 a0 17 80 00 00 	movabs $0x8017a0,%rax
  801c7c:	00 00 00 
  801c7f:	ff d0                	call   *%rax
  801c81:	85 c0                	test   %eax,%eax
  801c83:	78 1c                	js     801ca1 <ftruncate+0x5a>

    if ((fd->fd_omode & O_ACCMODE) == O_RDONLY) {
  801c85:	48 8b 7d e8          	mov    -0x18(%rbp),%rdi
  801c89:	f6 47 08 03          	testb  $0x3,0x8(%rdi)
  801c8d:	74 1b                	je     801caa <ftruncate+0x63>
        cprintf("[%08x] ftruncate %d -- bad mode\n",
                thisenv->env_id, fdnum);
        return -E_INVAL;
    }

    if (!dev->dev_trunc) return -E_NOT_SUPP;
  801c8f:	48 8b 45 e0          	mov    -0x20(%rbp),%rax
  801c93:	48 8b 40 30          	mov    0x30(%rax),%rax
  801c97:	48 85 c0             	test   %rax,%rax
  801c9a:	74 42                	je     801cde <ftruncate+0x97>

    return (*dev->dev_trunc)(fd, newsize);
  801c9c:	44 89 e6             	mov    %r12d,%esi
  801c9f:	ff d0                	call   *%rax
}
  801ca1:	48 83 c4 10          	add    $0x10,%rsp
  801ca5:	5b                   	pop    %rbx
  801ca6:	41 5c                	pop    %r12
  801ca8:	5d                   	pop    %rbp
  801ca9:	c3                   	ret    
                thisenv->env_id, fdnum);
  801caa:	48 a1 08 50 81 00 00 	movabs 0x815008,%rax
  801cb1:	00 00 00 
        cprintf("[%08x] ftruncate %d -- bad mode\n",
  801cb4:	8b b0 c8 00 00 00    	mov    0xc8(%rax),%esi
  801cba:	89 da                	mov    %ebx,%edx
  801cbc:	48 bf 30 1a 81 00 00 	movabs $0x811a30,%rdi
  801cc3:	00 00 00 
  801cc6:	b8 00 00 00 00       	mov    $0x0,%eax
  801ccb:	48 b9 67 04 80 00 00 	movabs $0x800467,%rcx
  801cd2:	00 00 00 
  801cd5:	ff d1                	call   *%rcx
        return -E_INVAL;
  801cd7:	b8 fd ff ff ff       	mov    $0xfffffffd,%eax
  801cdc:	eb c3                	jmp    801ca1 <ftruncate+0x5a>
    if (!dev->dev_trunc) return -E_NOT_SUPP;
  801cde:	b8 ed ff ff ff       	mov    $0xffffffed,%eax
  801ce3:	eb bc                	jmp    801ca1 <ftruncate+0x5a>

0000000000801ce5 <fstat>:

int
fstat(int fdnum, struct Stat *stat) {
  801ce5:	55                   	push   %rbp
  801ce6:	48 89 e5             	mov    %rsp,%rbp
  801ce9:	53                   	push   %rbx
  801cea:	48 83 ec 18          	sub    $0x18,%rsp
  801cee:	48 89 f3             	mov    %rsi,%rbx
    int res;

    struct Fd *fd;
    if ((res = fd_lookup(fdnum, &fd)) < 0) return res;
  801cf1:	48 8d 75 e8          	lea    -0x18(%rbp),%rsi
  801cf5:	48 b8 55 17 80 00 00 	movabs $0x801755,%rax
  801cfc:	00 00 00 
  801cff:	ff d0                	call   *%rax
  801d01:	85 c0                	test   %eax,%eax
  801d03:	78 4d                	js     801d52 <fstat+0x6d>

    struct Dev *dev;
    if ((res = dev_lookup(fd->fd_dev_id, &dev)) < 0) return res;
  801d05:	48 8d 75 e0          	lea    -0x20(%rbp),%rsi
  801d09:	48 8b 45 e8          	mov    -0x18(%rbp),%rax
  801d0d:	8b 38                	mov    (%rax),%edi
  801d0f:	48 b8 a0 17 80 00 00 	movabs $0x8017a0,%rax
  801d16:	00 00 00 
  801d19:	ff d0                	call   *%rax
  801d1b:	85 c0                	test   %eax,%eax
  801d1d:	78 33                	js     801d52 <fstat+0x6d>

    if (!dev->dev_stat) return -E_NOT_SUPP;
  801d1f:	48 8b 45 e0          	mov    -0x20(%rbp),%rax
  801d23:	48 83 78 28 00       	cmpq   $0x0,0x28(%rax)
  801d28:	74 2e                	je     801d58 <fstat+0x73>

    stat->st_name[0] = 0;
  801d2a:	c6 03 00             	movb   $0x0,(%rbx)
    stat->st_size = 0;
  801d2d:	c7 83 80 00 00 00 00 	movl   $0x0,0x80(%rbx)
  801d34:	00 00 00 
    stat->st_isdir = 0;
  801d37:	c7 83 84 00 00 00 00 	movl   $0x0,0x84(%rbx)
  801d3e:	00 00 00 
    stat->st_dev = dev;
  801d41:	48 89 83 88 00 00 00 	mov    %rax,0x88(%rbx)

    return (*dev->dev_stat)(fd, stat);
  801d48:	48 89 de             	mov    %rbx,%rsi
  801d4b:	48 8b 7d e8          	mov    -0x18(%rbp),%rdi
  801d4f:	ff 50 28             	call   *0x28(%rax)
}
  801d52:	48 8b 5d f8          	mov    -0x8(%rbp),%rbx
  801d56:	c9                   	leave  
  801d57:	c3                   	ret    
    if (!dev->dev_stat) return -E_NOT_SUPP;
  801d58:	b8 ed ff ff ff       	mov    $0xffffffed,%eax
  801d5d:	eb f3                	jmp    801d52 <fstat+0x6d>

0000000000801d5f <stat>:

int
stat(const char *path, struct Stat *stat) {
  801d5f:	55                   	push   %rbp
  801d60:	48 89 e5             	mov    %rsp,%rbp
  801d63:	41 54                	push   %r12
  801d65:	53                   	push   %rbx
  801d66:	49 89 f4             	mov    %rsi,%r12
    int fd = open(path, O_RDONLY);
  801d69:	be 00 00 00 00       	mov    $0x0,%esi
  801d6e:	48 b8 2a 20 80 00 00 	movabs $0x80202a,%rax
  801d75:	00 00 00 
  801d78:	ff d0                	call   *%rax
  801d7a:	89 c3                	mov    %eax,%ebx
    if (fd < 0) return fd;
  801d7c:	85 c0                	test   %eax,%eax
  801d7e:	78 25                	js     801da5 <stat+0x46>

    int res = fstat(fd, stat);
  801d80:	4c 89 e6             	mov    %r12,%rsi
  801d83:	89 c7                	mov    %eax,%edi
  801d85:	48 b8 e5 1c 80 00 00 	movabs $0x801ce5,%rax
  801d8c:	00 00 00 
  801d8f:	ff d0                	call   *%rax
  801d91:	41 89 c4             	mov    %eax,%r12d
    close(fd);
  801d94:	89 df                	mov    %ebx,%edi
  801d96:	48 b8 bf 18 80 00 00 	movabs $0x8018bf,%rax
  801d9d:	00 00 00 
  801da0:	ff d0                	call   *%rax

    return res;
  801da2:	44 89 e3             	mov    %r12d,%ebx
}
  801da5:	89 d8                	mov    %ebx,%eax
  801da7:	5b                   	pop    %rbx
  801da8:	41 5c                	pop    %r12
  801daa:	5d                   	pop    %rbp
  801dab:	c3                   	ret    

0000000000801dac <fsipc>:
 * response may be written back to fsipcbuf.
 * type: request code, passed as the simple integer IPC value.
 * dstva: virtual address at which to receive reply page, 0 if none.
 * Returns result from the file server. */
static int
fsipc(unsigned type, void *dstva) {
  801dac:	55                   	push   %rbp
  801dad:	48 89 e5             	mov    %rsp,%rbp
  801db0:	41 54                	push   %r12
  801db2:	53                   	push   %rbx
  801db3:	48 83 ec 10          	sub    $0x10,%rsp
  801db7:	41 89 fc             	mov    %edi,%r12d
  801dba:	48 89 f3             	mov    %rsi,%rbx
    static envid_t fsenv;

    if (!fsenv) fsenv = ipc_find_env(ENV_TYPE_FS);
  801dbd:	48 b8 00 70 81 00 00 	movabs $0x817000,%rax
  801dc4:	00 00 00 
  801dc7:	83 38 00             	cmpl   $0x0,(%rax)
  801dca:	74 5e                	je     801e2a <fsipc+0x7e>
    if (debug) {
        cprintf("[%08x] fsipc %d %08x\n",
                thisenv->env_id, type, *(uint32_t *)&fsipcbuf);
    }

    ipc_send(fsenv, type, &fsipcbuf, PAGE_SIZE, PROT_RW);
  801dcc:	41 b8 06 00 00 00    	mov    $0x6,%r8d
  801dd2:	b9 00 10 00 00       	mov    $0x1000,%ecx
  801dd7:	48 ba 00 60 81 00 00 	movabs $0x816000,%rdx
  801dde:	00 00 00 
  801de1:	44 89 e6             	mov    %r12d,%esi
  801de4:	48 b8 00 70 81 00 00 	movabs $0x817000,%rax
  801deb:	00 00 00 
  801dee:	8b 38                	mov    (%rax),%edi
  801df0:	48 b8 10 13 81 00 00 	movabs $0x811310,%rax
  801df7:	00 00 00 
  801dfa:	ff d0                	call   *%rax
    size_t maxsz = PAGE_SIZE;
  801dfc:	48 c7 45 e8 00 10 00 	movq   $0x1000,-0x18(%rbp)
  801e03:	00 
    return ipc_recv(NULL, dstva, &maxsz, NULL);
  801e04:	b9 00 00 00 00       	mov    $0x0,%ecx
  801e09:	48 8d 55 e8          	lea    -0x18(%rbp),%rdx
  801e0d:	48 89 de             	mov    %rbx,%rsi
  801e10:	bf 00 00 00 00       	mov    $0x0,%edi
  801e15:	48 b8 71 12 81 00 00 	movabs $0x811271,%rax
  801e1c:	00 00 00 
  801e1f:	ff d0                	call   *%rax
}
  801e21:	48 83 c4 10          	add    $0x10,%rsp
  801e25:	5b                   	pop    %rbx
  801e26:	41 5c                	pop    %r12
  801e28:	5d                   	pop    %rbp
  801e29:	c3                   	ret    
    if (!fsenv) fsenv = ipc_find_env(ENV_TYPE_FS);
  801e2a:	bf 03 00 00 00       	mov    $0x3,%edi
  801e2f:	48 b8 b3 13 81 00 00 	movabs $0x8113b3,%rax
  801e36:	00 00 00 
  801e39:	ff d0                	call   *%rax
  801e3b:	a3 00 70 81 00 00 00 	movabs %eax,0x817000
  801e42:	00 00 
  801e44:	eb 86                	jmp    801dcc <fsipc+0x20>

0000000000801e46 <devfile_trunc>:
    return 0;
}

/* Truncate or extend an open file to 'size' bytes */
static int
devfile_trunc(struct Fd *fd, off_t newsize) {
  801e46:	55                   	push   %rbp
  801e47:	48 89 e5             	mov    %rsp,%rbp
    fsipcbuf.set_size.req_fileid = fd->fd_file.id;
  801e4a:	48 b8 00 60 81 00 00 	movabs $0x816000,%rax
  801e51:	00 00 00 
  801e54:	8b 57 0c             	mov    0xc(%rdi),%edx
  801e57:	89 10                	mov    %edx,(%rax)
    fsipcbuf.set_size.req_size = newsize;
  801e59:	89 70 04             	mov    %esi,0x4(%rax)

    return fsipc(FSREQ_SET_SIZE, NULL);
  801e5c:	be 00 00 00 00       	mov    $0x0,%esi
  801e61:	bf 02 00 00 00       	mov    $0x2,%edi
  801e66:	48 b8 ac 1d 80 00 00 	movabs $0x801dac,%rax
  801e6d:	00 00 00 
  801e70:	ff d0                	call   *%rax
}
  801e72:	5d                   	pop    %rbp
  801e73:	c3                   	ret    

0000000000801e74 <devfile_flush>:
devfile_flush(struct Fd *fd) {
  801e74:	55                   	push   %rbp
  801e75:	48 89 e5             	mov    %rsp,%rbp
    fsipcbuf.flush.req_fileid = fd->fd_file.id;
  801e78:	8b 47 0c             	mov    0xc(%rdi),%eax
  801e7b:	a3 00 60 81 00 00 00 	movabs %eax,0x816000
  801e82:	00 00 
    return fsipc(FSREQ_FLUSH, NULL);
  801e84:	be 00 00 00 00       	mov    $0x0,%esi
  801e89:	bf 06 00 00 00       	mov    $0x6,%edi
  801e8e:	48 b8 ac 1d 80 00 00 	movabs $0x801dac,%rax
  801e95:	00 00 00 
  801e98:	ff d0                	call   *%rax
}
  801e9a:	5d                   	pop    %rbp
  801e9b:	c3                   	ret    

0000000000801e9c <devfile_stat>:
devfile_stat(struct Fd *fd, struct Stat *st) {
  801e9c:	55                   	push   %rbp
  801e9d:	48 89 e5             	mov    %rsp,%rbp
  801ea0:	53                   	push   %rbx
  801ea1:	48 83 ec 08          	sub    $0x8,%rsp
  801ea5:	48 89 f3             	mov    %rsi,%rbx
    fsipcbuf.stat.req_fileid = fd->fd_file.id;
  801ea8:	8b 47 0c             	mov    0xc(%rdi),%eax
  801eab:	a3 00 60 81 00 00 00 	movabs %eax,0x816000
  801eb2:	00 00 
    int res = fsipc(FSREQ_STAT, NULL);
  801eb4:	be 00 00 00 00       	mov    $0x0,%esi
  801eb9:	bf 05 00 00 00       	mov    $0x5,%edi
  801ebe:	48 b8 ac 1d 80 00 00 	movabs $0x801dac,%rax
  801ec5:	00 00 00 
  801ec8:	ff d0                	call   *%rax
    if (res < 0) return res;
  801eca:	85 c0                	test   %eax,%eax
  801ecc:	78 40                	js     801f0e <devfile_stat+0x72>
    strcpy(st->st_name, fsipcbuf.statRet.ret_name);
  801ece:	48 be 00 60 81 00 00 	movabs $0x816000,%rsi
  801ed5:	00 00 00 
  801ed8:	48 89 df             	mov    %rbx,%rdi
  801edb:	48 b8 a8 0d 80 00 00 	movabs $0x800da8,%rax
  801ee2:	00 00 00 
  801ee5:	ff d0                	call   *%rax
    st->st_size = fsipcbuf.statRet.ret_size;
  801ee7:	48 b8 00 60 81 00 00 	movabs $0x816000,%rax
  801eee:	00 00 00 
  801ef1:	8b 90 80 00 00 00    	mov    0x80(%rax),%edx
  801ef7:	89 93 80 00 00 00    	mov    %edx,0x80(%rbx)
    st->st_isdir = fsipcbuf.statRet.ret_isdir;
  801efd:	8b 80 84 00 00 00    	mov    0x84(%rax),%eax
  801f03:	89 83 84 00 00 00    	mov    %eax,0x84(%rbx)
    return 0;
  801f09:	b8 00 00 00 00       	mov    $0x0,%eax
}
  801f0e:	48 8b 5d f8          	mov    -0x8(%rbp),%rbx
  801f12:	c9                   	leave  
  801f13:	c3                   	ret    

0000000000801f14 <devfile_write>:
devfile_write(struct Fd *fd, const void *buf, size_t n) {
  801f14:	55                   	push   %rbp
  801f15:	48 89 e5             	mov    %rsp,%rbp
  801f18:	41 57                	push   %r15
  801f1a:	41 56                	push   %r14
  801f1c:	41 55                	push   %r13
  801f1e:	41 54                	push   %r12
  801f20:	53                   	push   %rbx
  801f21:	48 83 ec 18          	sub    $0x18,%rsp
    while (n) {
  801f25:	48 85 d2             	test   %rdx,%rdx
  801f28:	0f 84 91 00 00 00    	je     801fbf <devfile_write+0xab>
  801f2e:	49 89 ff             	mov    %rdi,%r15
  801f31:	49 89 f4             	mov    %rsi,%r12
  801f34:	48 89 d3             	mov    %rdx,%rbx
    int ext = 0;
  801f37:	c7 45 cc 00 00 00 00 	movl   $0x0,-0x34(%rbp)
        fsipcbuf.write.req_fileid = fd->fd_file.id;
  801f3e:	49 be 00 60 81 00 00 	movabs $0x816000,%r14
  801f45:	00 00 00 
        size_t tmp = MIN(n, sizeof(fsipcbuf.write.req_buf));
  801f48:	48 81 fb f0 0f 00 00 	cmp    $0xff0,%rbx
  801f4f:	41 bd f0 0f 00 00    	mov    $0xff0,%r13d
  801f55:	4c 0f 46 eb          	cmovbe %rbx,%r13
        memcpy(fsipcbuf.write.req_buf, buf, tmp);
  801f59:	4c 89 ea             	mov    %r13,%rdx
  801f5c:	4c 89 e6             	mov    %r12,%rsi
  801f5f:	48 bf 10 60 81 00 00 	movabs $0x816010,%rdi
  801f66:	00 00 00 
  801f69:	48 b8 08 10 80 00 00 	movabs $0x801008,%rax
  801f70:	00 00 00 
  801f73:	ff d0                	call   *%rax
        fsipcbuf.write.req_fileid = fd->fd_file.id;
  801f75:	41 8b 47 0c          	mov    0xc(%r15),%eax
  801f79:	41 89 06             	mov    %eax,(%r14)
        fsipcbuf.write.req_n = tmp;
  801f7c:	4d 89 6e 08          	mov    %r13,0x8(%r14)
        int res = fsipc(FSREQ_WRITE, NULL);
  801f80:	be 00 00 00 00       	mov    $0x0,%esi
  801f85:	bf 04 00 00 00       	mov    $0x4,%edi
  801f8a:	48 b8 ac 1d 80 00 00 	movabs $0x801dac,%rax
  801f91:	00 00 00 
  801f94:	ff d0                	call   *%rax
        if (res < 0)
  801f96:	85 c0                	test   %eax,%eax
  801f98:	78 21                	js     801fbb <devfile_write+0xa7>
        buf += res;
  801f9a:	48 63 d0             	movslq %eax,%rdx
  801f9d:	49 01 d4             	add    %rdx,%r12
        ext += res;
  801fa0:	01 45 cc             	add    %eax,-0x34(%rbp)
    while (n) {
  801fa3:	48 29 d3             	sub    %rdx,%rbx
  801fa6:	75 a0                	jne    801f48 <devfile_write+0x34>
    return ext;
  801fa8:	48 63 45 cc          	movslq -0x34(%rbp),%rax
}
  801fac:	48 83 c4 18          	add    $0x18,%rsp
  801fb0:	5b                   	pop    %rbx
  801fb1:	41 5c                	pop    %r12
  801fb3:	41 5d                	pop    %r13
  801fb5:	41 5e                	pop    %r14
  801fb7:	41 5f                	pop    %r15
  801fb9:	5d                   	pop    %rbp
  801fba:	c3                   	ret    
            return res;
  801fbb:	48 98                	cltq   
  801fbd:	eb ed                	jmp    801fac <devfile_write+0x98>
    int ext = 0;
  801fbf:	c7 45 cc 00 00 00 00 	movl   $0x0,-0x34(%rbp)
  801fc6:	eb e0                	jmp    801fa8 <devfile_write+0x94>

0000000000801fc8 <devfile_read>:
devfile_read(struct Fd *fd, void *buf, size_t n) {
  801fc8:	55                   	push   %rbp
  801fc9:	48 89 e5             	mov    %rsp,%rbp
  801fcc:	41 54                	push   %r12
  801fce:	53                   	push   %rbx
  801fcf:	49 89 f4             	mov    %rsi,%r12
    fsipcbuf.read.req_fileid = fd->fd_file.id;
  801fd2:	48 b8 00 60 81 00 00 	movabs $0x816000,%rax
  801fd9:	00 00 00 
  801fdc:	8b 4f 0c             	mov    0xc(%rdi),%ecx
  801fdf:	89 08                	mov    %ecx,(%rax)
    fsipcbuf.read.req_n = n;
  801fe1:	48 89 50 08          	mov    %rdx,0x8(%rax)
    int read = fsipc(FSREQ_READ, NULL);
  801fe5:	be 00 00 00 00       	mov    $0x0,%esi
  801fea:	bf 03 00 00 00       	mov    $0x3,%edi
  801fef:	48 b8 ac 1d 80 00 00 	movabs $0x801dac,%rax
  801ff6:	00 00 00 
  801ff9:	ff d0                	call   *%rax
    if (read < 0) 
  801ffb:	85 c0                	test   %eax,%eax
  801ffd:	78 27                	js     802026 <devfile_read+0x5e>
    memmove(buf, fsipcbuf.readRet.ret_buf, read);
  801fff:	48 63 d8             	movslq %eax,%rbx
  802002:	48 89 da             	mov    %rbx,%rdx
  802005:	48 be 00 60 81 00 00 	movabs $0x816000,%rsi
  80200c:	00 00 00 
  80200f:	4c 89 e7             	mov    %r12,%rdi
  802012:	48 b8 a3 0f 80 00 00 	movabs $0x800fa3,%rax
  802019:	00 00 00 
  80201c:	ff d0                	call   *%rax
    return read;
  80201e:	48 89 d8             	mov    %rbx,%rax
}
  802021:	5b                   	pop    %rbx
  802022:	41 5c                	pop    %r12
  802024:	5d                   	pop    %rbp
  802025:	c3                   	ret    
		return read;
  802026:	48 98                	cltq   
  802028:	eb f7                	jmp    802021 <devfile_read+0x59>

000000000080202a <open>:
open(const char *path, int mode) {
  80202a:	55                   	push   %rbp
  80202b:	48 89 e5             	mov    %rsp,%rbp
  80202e:	41 55                	push   %r13
  802030:	41 54                	push   %r12
  802032:	53                   	push   %rbx
  802033:	48 83 ec 18          	sub    $0x18,%rsp
  802037:	49 89 fc             	mov    %rdi,%r12
  80203a:	41 89 f5             	mov    %esi,%r13d
    if (strlen(path) >= MAXPATHLEN)
  80203d:	48 b8 6f 0d 80 00 00 	movabs $0x800d6f,%rax
  802044:	00 00 00 
  802047:	ff d0                	call   *%rax
  802049:	48 3d ff 03 00 00    	cmp    $0x3ff,%rax
  80204f:	0f 87 8c 00 00 00    	ja     8020e1 <open+0xb7>
    if ((res = fd_alloc(&fd)) < 0) return res;
  802055:	48 8d 7d d8          	lea    -0x28(%rbp),%rdi
  802059:	48 b8 f5 16 80 00 00 	movabs $0x8016f5,%rax
  802060:	00 00 00 
  802063:	ff d0                	call   *%rax
  802065:	89 c3                	mov    %eax,%ebx
  802067:	85 c0                	test   %eax,%eax
  802069:	78 52                	js     8020bd <open+0x93>
    strcpy(fsipcbuf.open.req_path, path);
  80206b:	4c 89 e6             	mov    %r12,%rsi
  80206e:	48 bf 00 60 81 00 00 	movabs $0x816000,%rdi
  802075:	00 00 00 
  802078:	48 b8 a8 0d 80 00 00 	movabs $0x800da8,%rax
  80207f:	00 00 00 
  802082:	ff d0                	call   *%rax
    fsipcbuf.open.req_omode = mode;
  802084:	44 89 e8             	mov    %r13d,%eax
  802087:	a3 00 64 81 00 00 00 	movabs %eax,0x816400
  80208e:	00 00 
    if ((res = fsipc(FSREQ_OPEN, fd)) < 0) {
  802090:	48 8b 75 d8          	mov    -0x28(%rbp),%rsi
  802094:	bf 01 00 00 00       	mov    $0x1,%edi
  802099:	48 b8 ac 1d 80 00 00 	movabs $0x801dac,%rax
  8020a0:	00 00 00 
  8020a3:	ff d0                	call   *%rax
  8020a5:	89 c3                	mov    %eax,%ebx
  8020a7:	85 c0                	test   %eax,%eax
  8020a9:	78 1f                	js     8020ca <open+0xa0>
    return fd2num(fd);
  8020ab:	48 8b 7d d8          	mov    -0x28(%rbp),%rdi
  8020af:	48 b8 c7 16 80 00 00 	movabs $0x8016c7,%rax
  8020b6:	00 00 00 
  8020b9:	ff d0                	call   *%rax
  8020bb:	89 c3                	mov    %eax,%ebx
}
  8020bd:	89 d8                	mov    %ebx,%eax
  8020bf:	48 83 c4 18          	add    $0x18,%rsp
  8020c3:	5b                   	pop    %rbx
  8020c4:	41 5c                	pop    %r12
  8020c6:	41 5d                	pop    %r13
  8020c8:	5d                   	pop    %rbp
  8020c9:	c3                   	ret    
        fd_close(fd, 0);
  8020ca:	be 00 00 00 00       	mov    $0x0,%esi
  8020cf:	48 8b 7d d8          	mov    -0x28(%rbp),%rdi
  8020d3:	48 b8 19 18 80 00 00 	movabs $0x801819,%rax
  8020da:	00 00 00 
  8020dd:	ff d0                	call   *%rax
        return res;
  8020df:	eb dc                	jmp    8020bd <open+0x93>
        return -E_BAD_PATH;
  8020e1:	bb f0 ff ff ff       	mov    $0xfffffff0,%ebx
  8020e6:	eb d5                	jmp    8020bd <open+0x93>

00000000008020e8 <sync>:

/* Synchronize disk with buffer cache */
int
sync(void) {
  8020e8:	55                   	push   %rbp
  8020e9:	48 89 e5             	mov    %rsp,%rbp
    /* Ask the file server to update the disk
     * by writing any dirty blocks in the buffer cache. */

    return fsipc(FSREQ_SYNC, NULL);
  8020ec:	be 00 00 00 00       	mov    $0x0,%esi
  8020f1:	bf 08 00 00 00       	mov    $0x8,%edi
  8020f6:	48 b8 ac 1d 80 00 00 	movabs $0x801dac,%rax
  8020fd:	00 00 00 
  802100:	ff d0                	call   *%rax
}
  802102:	5d                   	pop    %rbp
  802103:	c3                   	ret    

0000000000802104 <devpipe_stat>:

    return n;
}

static int
devpipe_stat(struct Fd *fd, struct Stat *stat) {
  802104:	55                   	push   %rbp
  802105:	48 89 e5             	mov    %rsp,%rbp
  802108:	41 54                	push   %r12
  80210a:	53                   	push   %rbx
  80210b:	48 89 f3             	mov    %rsi,%rbx
    struct Pipe *p = (struct Pipe *)fd2data(fd);
  80210e:	48 b8 d9 16 80 00 00 	movabs $0x8016d9,%rax
  802115:	00 00 00 
  802118:	ff d0                	call   *%rax
  80211a:	49 89 c4             	mov    %rax,%r12
    strcpy(stat->st_name, "<pipe>");
  80211d:	48 be c0 1a 81 00 00 	movabs $0x811ac0,%rsi
  802124:	00 00 00 
  802127:	48 89 df             	mov    %rbx,%rdi
  80212a:	48 b8 a8 0d 80 00 00 	movabs $0x800da8,%rax
  802131:	00 00 00 
  802134:	ff d0                	call   *%rax
    stat->st_size = p->p_wpos - p->p_rpos;
  802136:	41 8b 44 24 04       	mov    0x4(%r12),%eax
  80213b:	41 2b 04 24          	sub    (%r12),%eax
  80213f:	89 83 80 00 00 00    	mov    %eax,0x80(%rbx)
    stat->st_isdir = 0;
  802145:	c7 83 84 00 00 00 00 	movl   $0x0,0x84(%rbx)
  80214c:	00 00 00 
    stat->st_dev = &devpipe;
  80214f:	48 b8 60 40 81 00 00 	movabs $0x814060,%rax
  802156:	00 00 00 
  802159:	48 89 83 88 00 00 00 	mov    %rax,0x88(%rbx)
    return 0;
}
  802160:	b8 00 00 00 00       	mov    $0x0,%eax
  802165:	5b                   	pop    %rbx
  802166:	41 5c                	pop    %r12
  802168:	5d                   	pop    %rbp
  802169:	c3                   	ret    

000000000080216a <devpipe_close>:

static int
devpipe_close(struct Fd *fd) {
  80216a:	55                   	push   %rbp
  80216b:	48 89 e5             	mov    %rsp,%rbp
  80216e:	41 54                	push   %r12
  802170:	53                   	push   %rbx
  802171:	48 89 fb             	mov    %rdi,%rbx
    USED(sys_unmap_region(0, fd, PAGE_SIZE));
  802174:	ba 00 10 00 00       	mov    $0x1000,%edx
  802179:	48 89 fe             	mov    %rdi,%rsi
  80217c:	bf 00 00 00 00       	mov    $0x0,%edi
  802181:	49 bc 2e 14 80 00 00 	movabs $0x80142e,%r12
  802188:	00 00 00 
  80218b:	41 ff d4             	call   *%r12
    return sys_unmap_region(0, fd2data(fd), PAGE_SIZE);
  80218e:	48 89 df             	mov    %rbx,%rdi
  802191:	48 b8 d9 16 80 00 00 	movabs $0x8016d9,%rax
  802198:	00 00 00 
  80219b:	ff d0                	call   *%rax
  80219d:	48 89 c6             	mov    %rax,%rsi
  8021a0:	ba 00 10 00 00       	mov    $0x1000,%edx
  8021a5:	bf 00 00 00 00       	mov    $0x0,%edi
  8021aa:	41 ff d4             	call   *%r12
}
  8021ad:	5b                   	pop    %rbx
  8021ae:	41 5c                	pop    %r12
  8021b0:	5d                   	pop    %rbp
  8021b1:	c3                   	ret    

00000000008021b2 <devpipe_write>:
devpipe_write(struct Fd *fd, const void *vbuf, size_t n) {
  8021b2:	55                   	push   %rbp
  8021b3:	48 89 e5             	mov    %rsp,%rbp
  8021b6:	41 57                	push   %r15
  8021b8:	41 56                	push   %r14
  8021ba:	41 55                	push   %r13
  8021bc:	41 54                	push   %r12
  8021be:	53                   	push   %rbx
  8021bf:	48 83 ec 18          	sub    $0x18,%rsp
  8021c3:	49 89 fc             	mov    %rdi,%r12
  8021c6:	49 89 f5             	mov    %rsi,%r13
  8021c9:	49 89 d7             	mov    %rdx,%r15
  8021cc:	48 89 55 c0          	mov    %rdx,-0x40(%rbp)
    struct Pipe *p = (struct Pipe *)fd2data(fd);
  8021d0:	48 b8 d9 16 80 00 00 	movabs $0x8016d9,%rax
  8021d7:	00 00 00 
  8021da:	ff d0                	call   *%rax
    for (size_t i = 0; i < n; i++) {
  8021dc:	4d 85 ff             	test   %r15,%r15
  8021df:	0f 84 ac 00 00 00    	je     802291 <devpipe_write+0xdf>
  8021e5:	48 89 c3             	mov    %rax,%rbx
  8021e8:	4c 89 f8             	mov    %r15,%rax
  8021eb:	4d 89 ef             	mov    %r13,%r15
  8021ee:	49 01 c5             	add    %rax,%r13
  8021f1:	4c 89 6d c8          	mov    %r13,-0x38(%rbp)
    return !sys_region_refs2(fd, PAGE_SIZE, p, PAGE_SIZE);
  8021f5:	49 bd 36 13 80 00 00 	movabs $0x801336,%r13
  8021fc:	00 00 00 
            sys_yield();
  8021ff:	49 be d3 12 80 00 00 	movabs $0x8012d3,%r14
  802206:	00 00 00 
        while (p->p_wpos >= p->p_rpos + sizeof(p->p_buf)) /* pipe is full */ {
  802209:	8b 73 04             	mov    0x4(%rbx),%esi
  80220c:	48 63 ce             	movslq %esi,%rcx
  80220f:	48 63 03             	movslq (%rbx),%rax
  802212:	48 05 f8 0f 00 00    	add    $0xff8,%rax
  802218:	48 39 c1             	cmp    %rax,%rcx
  80221b:	72 2e                	jb     80224b <devpipe_write+0x99>
    return !sys_region_refs2(fd, PAGE_SIZE, p, PAGE_SIZE);
  80221d:	b9 00 10 00 00       	mov    $0x1000,%ecx
  802222:	48 89 da             	mov    %rbx,%rdx
  802225:	be 00 10 00 00       	mov    $0x1000,%esi
  80222a:	4c 89 e7             	mov    %r12,%rdi
  80222d:	41 ff d5             	call   *%r13
            if (_pipeisclosed(fd, p)) return 0;
  802230:	85 c0                	test   %eax,%eax
  802232:	74 63                	je     802297 <devpipe_write+0xe5>
            sys_yield();
  802234:	41 ff d6             	call   *%r14
        while (p->p_wpos >= p->p_rpos + sizeof(p->p_buf)) /* pipe is full */ {
  802237:	8b 73 04             	mov    0x4(%rbx),%esi
  80223a:	48 63 ce             	movslq %esi,%rcx
  80223d:	48 63 03             	movslq (%rbx),%rax
  802240:	48 05 f8 0f 00 00    	add    $0xff8,%rax
  802246:	48 39 c1             	cmp    %rax,%rcx
  802249:	73 d2                	jae    80221d <devpipe_write+0x6b>
        p->p_buf[p->p_wpos % PIPEBUFSIZ] = buf[i];
  80224b:	41 0f b6 3f          	movzbl (%r15),%edi
  80224f:	48 89 ca             	mov    %rcx,%rdx
  802252:	48 c1 ea 03          	shr    $0x3,%rdx
  802256:	48 b8 81 00 01 02 04 	movabs $0x2010080402010081,%rax
  80225d:	08 10 20 
  802260:	48 f7 e2             	mul    %rdx
  802263:	48 c1 ea 06          	shr    $0x6,%rdx
  802267:	48 89 d0             	mov    %rdx,%rax
  80226a:	48 c1 e0 09          	shl    $0x9,%rax
  80226e:	48 29 d0             	sub    %rdx,%rax
  802271:	48 c1 e0 03          	shl    $0x3,%rax
  802275:	48 29 c1             	sub    %rax,%rcx
  802278:	40 88 7c 0b 08       	mov    %dil,0x8(%rbx,%rcx,1)
        p->p_wpos++;
  80227d:	83 c6 01             	add    $0x1,%esi
  802280:	89 73 04             	mov    %esi,0x4(%rbx)
    for (size_t i = 0; i < n; i++) {
  802283:	49 83 c7 01          	add    $0x1,%r15
  802287:	4c 3b 7d c8          	cmp    -0x38(%rbp),%r15
  80228b:	0f 85 78 ff ff ff    	jne    802209 <devpipe_write+0x57>
    return n;
  802291:	48 8b 45 c0          	mov    -0x40(%rbp),%rax
  802295:	eb 05                	jmp    80229c <devpipe_write+0xea>
            if (_pipeisclosed(fd, p)) return 0;
  802297:	b8 00 00 00 00       	mov    $0x0,%eax
}
  80229c:	48 83 c4 18          	add    $0x18,%rsp
  8022a0:	5b                   	pop    %rbx
  8022a1:	41 5c                	pop    %r12
  8022a3:	41 5d                	pop    %r13
  8022a5:	41 5e                	pop    %r14
  8022a7:	41 5f                	pop    %r15
  8022a9:	5d                   	pop    %rbp
  8022aa:	c3                   	ret    

00000000008022ab <devpipe_read>:
devpipe_read(struct Fd *fd, void *vbuf, size_t n) {
  8022ab:	55                   	push   %rbp
  8022ac:	48 89 e5             	mov    %rsp,%rbp
  8022af:	41 57                	push   %r15
  8022b1:	41 56                	push   %r14
  8022b3:	41 55                	push   %r13
  8022b5:	41 54                	push   %r12
  8022b7:	53                   	push   %rbx
  8022b8:	48 83 ec 18          	sub    $0x18,%rsp
  8022bc:	49 89 fc             	mov    %rdi,%r12
  8022bf:	48 89 75 c0          	mov    %rsi,-0x40(%rbp)
  8022c3:	48 89 55 c8          	mov    %rdx,-0x38(%rbp)
    struct Pipe *p = (struct Pipe *)fd2data(fd);
  8022c7:	48 b8 d9 16 80 00 00 	movabs $0x8016d9,%rax
  8022ce:	00 00 00 
  8022d1:	ff d0                	call   *%rax
  8022d3:	48 89 c3             	mov    %rax,%rbx
    for (size_t i = 0; i < n; i++) {
  8022d6:	41 bf 00 00 00 00    	mov    $0x0,%r15d
    return !sys_region_refs2(fd, PAGE_SIZE, p, PAGE_SIZE);
  8022dc:	49 bd 36 13 80 00 00 	movabs $0x801336,%r13
  8022e3:	00 00 00 
            sys_yield();
  8022e6:	49 be d3 12 80 00 00 	movabs $0x8012d3,%r14
  8022ed:	00 00 00 
    for (size_t i = 0; i < n; i++) {
  8022f0:	48 83 7d c8 00       	cmpq   $0x0,-0x38(%rbp)
  8022f5:	74 7a                	je     802371 <devpipe_read+0xc6>
        while (p->p_rpos == p->p_wpos) /* pipe is empty */ {
  8022f7:	8b 03                	mov    (%rbx),%eax
  8022f9:	3b 43 04             	cmp    0x4(%rbx),%eax
  8022fc:	75 26                	jne    802324 <devpipe_read+0x79>
            if (i > 0) return i;
  8022fe:	4d 85 ff             	test   %r15,%r15
  802301:	75 74                	jne    802377 <devpipe_read+0xcc>
    return !sys_region_refs2(fd, PAGE_SIZE, p, PAGE_SIZE);
  802303:	b9 00 10 00 00       	mov    $0x1000,%ecx
  802308:	48 89 da             	mov    %rbx,%rdx
  80230b:	be 00 10 00 00       	mov    $0x1000,%esi
  802310:	4c 89 e7             	mov    %r12,%rdi
  802313:	41 ff d5             	call   *%r13
            if (_pipeisclosed(fd, p)) return 0;
  802316:	85 c0                	test   %eax,%eax
  802318:	74 6f                	je     802389 <devpipe_read+0xde>
            sys_yield();
  80231a:	41 ff d6             	call   *%r14
        while (p->p_rpos == p->p_wpos) /* pipe is empty */ {
  80231d:	8b 03                	mov    (%rbx),%eax
  80231f:	3b 43 04             	cmp    0x4(%rbx),%eax
  802322:	74 df                	je     802303 <devpipe_read+0x58>
        buf[i] = p->p_buf[p->p_rpos % PIPEBUFSIZ];
  802324:	48 63 c8             	movslq %eax,%rcx
  802327:	48 89 ca             	mov    %rcx,%rdx
  80232a:	48 c1 ea 03          	shr    $0x3,%rdx
  80232e:	48 b8 81 00 01 02 04 	movabs $0x2010080402010081,%rax
  802335:	08 10 20 
  802338:	48 f7 e2             	mul    %rdx
  80233b:	48 c1 ea 06          	shr    $0x6,%rdx
  80233f:	48 89 d0             	mov    %rdx,%rax
  802342:	48 c1 e0 09          	shl    $0x9,%rax
  802346:	48 29 d0             	sub    %rdx,%rax
  802349:	48 8d 14 c5 00 00 00 	lea    0x0(,%rax,8),%rdx
  802350:	00 
  802351:	48 89 c8             	mov    %rcx,%rax
  802354:	48 29 d0             	sub    %rdx,%rax
  802357:	0f b6 44 03 08       	movzbl 0x8(%rbx,%rax,1),%eax
  80235c:	48 8b 4d c0          	mov    -0x40(%rbp),%rcx
  802360:	42 88 04 39          	mov    %al,(%rcx,%r15,1)
        p->p_rpos++;
  802364:	83 03 01             	addl   $0x1,(%rbx)
    for (size_t i = 0; i < n; i++) {
  802367:	49 83 c7 01          	add    $0x1,%r15
  80236b:	4c 39 7d c8          	cmp    %r15,-0x38(%rbp)
  80236f:	75 86                	jne    8022f7 <devpipe_read+0x4c>
    return n;
  802371:	48 8b 45 c8          	mov    -0x38(%rbp),%rax
  802375:	eb 03                	jmp    80237a <devpipe_read+0xcf>
            if (i > 0) return i;
  802377:	4c 89 f8             	mov    %r15,%rax
}
  80237a:	48 83 c4 18          	add    $0x18,%rsp
  80237e:	5b                   	pop    %rbx
  80237f:	41 5c                	pop    %r12
  802381:	41 5d                	pop    %r13
  802383:	41 5e                	pop    %r14
  802385:	41 5f                	pop    %r15
  802387:	5d                   	pop    %rbp
  802388:	c3                   	ret    
            if (_pipeisclosed(fd, p)) return 0;
  802389:	b8 00 00 00 00       	mov    $0x0,%eax
  80238e:	eb ea                	jmp    80237a <devpipe_read+0xcf>

0000000000802390 <pipe>:
pipe(int pfd[2]) {
  802390:	55                   	push   %rbp
  802391:	48 89 e5             	mov    %rsp,%rbp
  802394:	41 55                	push   %r13
  802396:	41 54                	push   %r12
  802398:	53                   	push   %rbx
  802399:	48 83 ec 18          	sub    $0x18,%rsp
  80239d:	49 89 fc             	mov    %rdi,%r12
    if ((res = fd_alloc(&fd0)) < 0 ||
  8023a0:	48 8d 7d d8          	lea    -0x28(%rbp),%rdi
  8023a4:	48 b8 f5 16 80 00 00 	movabs $0x8016f5,%rax
  8023ab:	00 00 00 
  8023ae:	ff d0                	call   *%rax
  8023b0:	89 c3                	mov    %eax,%ebx
  8023b2:	85 c0                	test   %eax,%eax
  8023b4:	0f 88 a0 01 00 00    	js     80255a <pipe+0x1ca>
        (res = sys_alloc_region(0, fd0, PAGE_SIZE, PROT_RW | PROT_SHARE)) < 0) goto err;
  8023ba:	b9 46 00 00 00       	mov    $0x46,%ecx
  8023bf:	ba 00 10 00 00       	mov    $0x1000,%edx
  8023c4:	48 8b 75 d8          	mov    -0x28(%rbp),%rsi
  8023c8:	bf 00 00 00 00       	mov    $0x0,%edi
  8023cd:	48 b8 62 13 80 00 00 	movabs $0x801362,%rax
  8023d4:	00 00 00 
  8023d7:	ff d0                	call   *%rax
  8023d9:	89 c3                	mov    %eax,%ebx
    if ((res = fd_alloc(&fd0)) < 0 ||
  8023db:	85 c0                	test   %eax,%eax
  8023dd:	0f 88 77 01 00 00    	js     80255a <pipe+0x1ca>
    if ((res = fd_alloc(&fd1)) < 0 ||
  8023e3:	48 8d 7d d0          	lea    -0x30(%rbp),%rdi
  8023e7:	48 b8 f5 16 80 00 00 	movabs $0x8016f5,%rax
  8023ee:	00 00 00 
  8023f1:	ff d0                	call   *%rax
  8023f3:	89 c3                	mov    %eax,%ebx
  8023f5:	85 c0                	test   %eax,%eax
  8023f7:	0f 88 43 01 00 00    	js     802540 <pipe+0x1b0>
        (res = sys_alloc_region(0, fd1, PAGE_SIZE, PROT_RW | PROT_SHARE)) < 0) goto err1;
  8023fd:	b9 46 00 00 00       	mov    $0x46,%ecx
  802402:	ba 00 10 00 00       	mov    $0x1000,%edx
  802407:	48 8b 75 d0          	mov    -0x30(%rbp),%rsi
  80240b:	bf 00 00 00 00       	mov    $0x0,%edi
  802410:	48 b8 62 13 80 00 00 	movabs $0x801362,%rax
  802417:	00 00 00 
  80241a:	ff d0                	call   *%rax
  80241c:	89 c3                	mov    %eax,%ebx
    if ((res = fd_alloc(&fd1)) < 0 ||
  80241e:	85 c0                	test   %eax,%eax
  802420:	0f 88 1a 01 00 00    	js     802540 <pipe+0x1b0>
    va = fd2data(fd0);
  802426:	48 8b 7d d8          	mov    -0x28(%rbp),%rdi
  80242a:	48 b8 d9 16 80 00 00 	movabs $0x8016d9,%rax
  802431:	00 00 00 
  802434:	ff d0                	call   *%rax
  802436:	49 89 c5             	mov    %rax,%r13
    if ((res = sys_alloc_region(0, va, PAGE_SIZE, PROT_RW | PROT_SHARE)) < 0) goto err2;
  802439:	b9 46 00 00 00       	mov    $0x46,%ecx
  80243e:	ba 00 10 00 00       	mov    $0x1000,%edx
  802443:	48 89 c6             	mov    %rax,%rsi
  802446:	bf 00 00 00 00       	mov    $0x0,%edi
  80244b:	48 b8 62 13 80 00 00 	movabs $0x801362,%rax
  802452:	00 00 00 
  802455:	ff d0                	call   *%rax
  802457:	89 c3                	mov    %eax,%ebx
  802459:	85 c0                	test   %eax,%eax
  80245b:	0f 88 c5 00 00 00    	js     802526 <pipe+0x196>
    if ((res = sys_map_region(0, va, 0, fd2data(fd1), PAGE_SIZE, PROT_RW | PROT_SHARE)) < 0) goto err3;
  802461:	48 8b 7d d0          	mov    -0x30(%rbp),%rdi
  802465:	48 b8 d9 16 80 00 00 	movabs $0x8016d9,%rax
  80246c:	00 00 00 
  80246f:	ff d0                	call   *%rax
  802471:	48 89 c1             	mov    %rax,%rcx
  802474:	41 b9 46 00 00 00    	mov    $0x46,%r9d
  80247a:	41 b8 00 10 00 00    	mov    $0x1000,%r8d
  802480:	ba 00 00 00 00       	mov    $0x0,%edx
  802485:	4c 89 ee             	mov    %r13,%rsi
  802488:	bf 00 00 00 00       	mov    $0x0,%edi
  80248d:	48 b8 c9 13 80 00 00 	movabs $0x8013c9,%rax
  802494:	00 00 00 
  802497:	ff d0                	call   *%rax
  802499:	89 c3                	mov    %eax,%ebx
  80249b:	85 c0                	test   %eax,%eax
  80249d:	78 6e                	js     80250d <pipe+0x17d>
    assert(sys_region_refs(va, PAGE_SIZE) == 2);
  80249f:	be 00 10 00 00       	mov    $0x1000,%esi
  8024a4:	4c 89 ef             	mov    %r13,%rdi
  8024a7:	48 b8 04 13 80 00 00 	movabs $0x801304,%rax
  8024ae:	00 00 00 
  8024b1:	ff d0                	call   *%rax
  8024b3:	83 f8 02             	cmp    $0x2,%eax
  8024b6:	0f 85 ab 00 00 00    	jne    802567 <pipe+0x1d7>
    fd0->fd_dev_id = devpipe.dev_id;
  8024bc:	a1 60 40 81 00 00 00 	movabs 0x814060,%eax
  8024c3:	00 00 
  8024c5:	48 8b 55 d8          	mov    -0x28(%rbp),%rdx
  8024c9:	89 02                	mov    %eax,(%rdx)
    fd0->fd_omode = O_RDONLY;
  8024cb:	48 8b 55 d8          	mov    -0x28(%rbp),%rdx
  8024cf:	c7 42 08 00 00 00 00 	movl   $0x0,0x8(%rdx)
    fd1->fd_dev_id = devpipe.dev_id;
  8024d6:	48 8b 55 d0          	mov    -0x30(%rbp),%rdx
  8024da:	89 02                	mov    %eax,(%rdx)
    fd1->fd_omode = O_WRONLY;
  8024dc:	48 8b 45 d0          	mov    -0x30(%rbp),%rax
  8024e0:	c7 40 08 01 00 00 00 	movl   $0x1,0x8(%rax)
    pfd[0] = fd2num(fd0);
  8024e7:	48 8b 7d d8          	mov    -0x28(%rbp),%rdi
  8024eb:	48 bb c7 16 80 00 00 	movabs $0x8016c7,%rbx
  8024f2:	00 00 00 
  8024f5:	ff d3                	call   *%rbx
  8024f7:	41 89 04 24          	mov    %eax,(%r12)
    pfd[1] = fd2num(fd1);
  8024fb:	48 8b 7d d0          	mov    -0x30(%rbp),%rdi
  8024ff:	ff d3                	call   *%rbx
  802501:	41 89 44 24 04       	mov    %eax,0x4(%r12)
    return 0;
  802506:	bb 00 00 00 00       	mov    $0x0,%ebx
  80250b:	eb 4d                	jmp    80255a <pipe+0x1ca>
    sys_unmap_region(0, va, PAGE_SIZE);
  80250d:	ba 00 10 00 00       	mov    $0x1000,%edx
  802512:	4c 89 ee             	mov    %r13,%rsi
  802515:	bf 00 00 00 00       	mov    $0x0,%edi
  80251a:	48 b8 2e 14 80 00 00 	movabs $0x80142e,%rax
  802521:	00 00 00 
  802524:	ff d0                	call   *%rax
    sys_unmap_region(0, fd1, PAGE_SIZE);
  802526:	ba 00 10 00 00       	mov    $0x1000,%edx
  80252b:	48 8b 75 d0          	mov    -0x30(%rbp),%rsi
  80252f:	bf 00 00 00 00       	mov    $0x0,%edi
  802534:	48 b8 2e 14 80 00 00 	movabs $0x80142e,%rax
  80253b:	00 00 00 
  80253e:	ff d0                	call   *%rax
    sys_unmap_region(0, fd0, PAGE_SIZE);
  802540:	ba 00 10 00 00       	mov    $0x1000,%edx
  802545:	48 8b 75 d8          	mov    -0x28(%rbp),%rsi
  802549:	bf 00 00 00 00       	mov    $0x0,%edi
  80254e:	48 b8 2e 14 80 00 00 	movabs $0x80142e,%rax
  802555:	00 00 00 
  802558:	ff d0                	call   *%rax
}
  80255a:	89 d8                	mov    %ebx,%eax
  80255c:	48 83 c4 18          	add    $0x18,%rsp
  802560:	5b                   	pop    %rbx
  802561:	41 5c                	pop    %r12
  802563:	41 5d                	pop    %r13
  802565:	5d                   	pop    %rbp
  802566:	c3                   	ret    
    assert(sys_region_refs(va, PAGE_SIZE) == 2);
  802567:	48 b9 f0 1a 81 00 00 	movabs $0x811af0,%rcx
  80256e:	00 00 00 
  802571:	48 ba c7 1a 81 00 00 	movabs $0x811ac7,%rdx
  802578:	00 00 00 
  80257b:	be 2e 00 00 00       	mov    $0x2e,%esi
  802580:	48 bf dc 1a 81 00 00 	movabs $0x811adc,%rdi
  802587:	00 00 00 
  80258a:	b8 00 00 00 00       	mov    $0x0,%eax
  80258f:	49 b8 ce 11 81 00 00 	movabs $0x8111ce,%r8
  802596:	00 00 00 
  802599:	41 ff d0             	call   *%r8

000000000080259c <pipeisclosed>:
pipeisclosed(int fdnum) {
  80259c:	55                   	push   %rbp
  80259d:	48 89 e5             	mov    %rsp,%rbp
  8025a0:	48 83 ec 10          	sub    $0x10,%rsp
    int res = fd_lookup(fdnum, &fd);
  8025a4:	48 8d 75 f8          	lea    -0x8(%rbp),%rsi
  8025a8:	48 b8 55 17 80 00 00 	movabs $0x801755,%rax
  8025af:	00 00 00 
  8025b2:	ff d0                	call   *%rax
    if (res < 0) return res;
  8025b4:	85 c0                	test   %eax,%eax
  8025b6:	78 35                	js     8025ed <pipeisclosed+0x51>
    struct Pipe *pip = (struct Pipe *)fd2data(fd);
  8025b8:	48 8b 7d f8          	mov    -0x8(%rbp),%rdi
  8025bc:	48 b8 d9 16 80 00 00 	movabs $0x8016d9,%rax
  8025c3:	00 00 00 
  8025c6:	ff d0                	call   *%rax
  8025c8:	48 89 c2             	mov    %rax,%rdx
    return !sys_region_refs2(fd, PAGE_SIZE, p, PAGE_SIZE);
  8025cb:	b9 00 10 00 00       	mov    $0x1000,%ecx
  8025d0:	be 00 10 00 00       	mov    $0x1000,%esi
  8025d5:	48 8b 7d f8          	mov    -0x8(%rbp),%rdi
  8025d9:	48 b8 36 13 80 00 00 	movabs $0x801336,%rax
  8025e0:	00 00 00 
  8025e3:	ff d0                	call   *%rax
  8025e5:	85 c0                	test   %eax,%eax
  8025e7:	0f 94 c0             	sete   %al
  8025ea:	0f b6 c0             	movzbl %al,%eax
}
  8025ed:	c9                   	leave  
  8025ee:	c3                   	ret    

00000000008025ef <get_uvpt_entry>:
extern volatile pdpe_t uvpdp[];   /* VA of current page directory pointer */
extern volatile pml4e_t uvpml4[]; /* VA of current page map level 4 */

pte_t
get_uvpt_entry(void *va) {
    if (!(uvpml4[VPML4(va)] & PTE_P)) return uvpml4[VPML4(va)];
  8025ef:	48 89 f8             	mov    %rdi,%rax
  8025f2:	48 c1 e8 27          	shr    $0x27,%rax
  8025f6:	48 ba 00 20 40 80 00 	movabs $0x10080402000,%rdx
  8025fd:	01 00 00 
  802600:	48 8b 14 c2          	mov    (%rdx,%rax,8),%rdx
  802604:	f6 c2 01             	test   $0x1,%dl
  802607:	74 6d                	je     802676 <get_uvpt_entry+0x87>
    if (!(uvpdp[VPDP(va)] & PTE_P) || (uvpdp[VPDP(va)] & PTE_PS)) return uvpdp[VPDP(va)];
  802609:	48 89 f8             	mov    %rdi,%rax
  80260c:	48 c1 e8 1e          	shr    $0x1e,%rax
  802610:	48 ba 00 00 40 80 00 	movabs $0x10080400000,%rdx
  802617:	01 00 00 
  80261a:	48 8b 14 c2          	mov    (%rdx,%rax,8),%rdx
  80261e:	f6 c2 01             	test   $0x1,%dl
  802621:	74 62                	je     802685 <get_uvpt_entry+0x96>
  802623:	48 ba 00 00 40 80 00 	movabs $0x10080400000,%rdx
  80262a:	01 00 00 
  80262d:	48 8b 14 c2          	mov    (%rdx,%rax,8),%rdx
  802631:	f6 c2 80             	test   $0x80,%dl
  802634:	75 4f                	jne    802685 <get_uvpt_entry+0x96>
    if (!(uvpd[VPD(va)] & PTE_P) || (uvpd[VPD(va)] & PTE_PS)) return uvpd[VPD(va)];
  802636:	48 89 f8             	mov    %rdi,%rax
  802639:	48 c1 e8 15          	shr    $0x15,%rax
  80263d:	48 ba 00 00 00 80 00 	movabs $0x10080000000,%rdx
  802644:	01 00 00 
  802647:	48 8b 14 c2          	mov    (%rdx,%rax,8),%rdx
  80264b:	f6 c2 01             	test   $0x1,%dl
  80264e:	74 44                	je     802694 <get_uvpt_entry+0xa5>
  802650:	48 ba 00 00 00 80 00 	movabs $0x10080000000,%rdx
  802657:	01 00 00 
  80265a:	48 8b 14 c2          	mov    (%rdx,%rax,8),%rdx
  80265e:	f6 c2 80             	test   $0x80,%dl
  802661:	75 31                	jne    802694 <get_uvpt_entry+0xa5>
    return uvpt[VPT(va)];
  802663:	48 c1 ef 0c          	shr    $0xc,%rdi
  802667:	48 b8 00 00 00 00 00 	movabs $0x10000000000,%rax
  80266e:	01 00 00 
  802671:	48 8b 04 f8          	mov    (%rax,%rdi,8),%rax
}
  802675:	c3                   	ret    
    if (!(uvpml4[VPML4(va)] & PTE_P)) return uvpml4[VPML4(va)];
  802676:	48 ba 00 20 40 80 00 	movabs $0x10080402000,%rdx
  80267d:	01 00 00 
  802680:	48 8b 04 c2          	mov    (%rdx,%rax,8),%rax
  802684:	c3                   	ret    
    if (!(uvpdp[VPDP(va)] & PTE_P) || (uvpdp[VPDP(va)] & PTE_PS)) return uvpdp[VPDP(va)];
  802685:	48 ba 00 00 40 80 00 	movabs $0x10080400000,%rdx
  80268c:	01 00 00 
  80268f:	48 8b 04 c2          	mov    (%rdx,%rax,8),%rax
  802693:	c3                   	ret    
    if (!(uvpd[VPD(va)] & PTE_P) || (uvpd[VPD(va)] & PTE_PS)) return uvpd[VPD(va)];
  802694:	48 ba 00 00 00 80 00 	movabs $0x10080000000,%rdx
  80269b:	01 00 00 
  80269e:	48 8b 04 c2          	mov    (%rdx,%rax,8),%rax
  8026a2:	c3                   	ret    

00000000008026a3 <get_prot>:

int
get_prot(void *va) {
  8026a3:	55                   	push   %rbp
  8026a4:	48 89 e5             	mov    %rsp,%rbp
    pte_t pte = get_uvpt_entry(va);
  8026a7:	48 b8 ef 25 80 00 00 	movabs $0x8025ef,%rax
  8026ae:	00 00 00 
  8026b1:	ff d0                	call   *%rax
  8026b3:	48 89 c2             	mov    %rax,%rdx
    int prot = pte & PTE_AVAIL & ~PTE_SHARE;
  8026b6:	25 00 0a 00 00       	and    $0xa00,%eax
    if (pte & PTE_P) prot |= PROT_R;
  8026bb:	89 c1                	mov    %eax,%ecx
  8026bd:	83 c9 04             	or     $0x4,%ecx
  8026c0:	f6 c2 01             	test   $0x1,%dl
  8026c3:	0f 45 c1             	cmovne %ecx,%eax
    if (pte & PTE_W) prot |= PROT_W;
  8026c6:	89 c1                	mov    %eax,%ecx
  8026c8:	83 c9 02             	or     $0x2,%ecx
  8026cb:	f6 c2 02             	test   $0x2,%dl
  8026ce:	0f 45 c1             	cmovne %ecx,%eax
    if (!(pte & PTE_NX)) prot |= PROT_X;
  8026d1:	89 c1                	mov    %eax,%ecx
  8026d3:	83 c9 01             	or     $0x1,%ecx
  8026d6:	48 85 d2             	test   %rdx,%rdx
  8026d9:	0f 49 c1             	cmovns %ecx,%eax
    if (pte & PTE_SHARE) prot |= PROT_SHARE;
  8026dc:	89 c1                	mov    %eax,%ecx
  8026de:	83 c9 40             	or     $0x40,%ecx
  8026e1:	f6 c6 04             	test   $0x4,%dh
  8026e4:	0f 45 c1             	cmovne %ecx,%eax
    return prot;
}
  8026e7:	5d                   	pop    %rbp
  8026e8:	c3                   	ret    

00000000008026e9 <is_page_dirty>:

bool
is_page_dirty(void *va) {
  8026e9:	55                   	push   %rbp
  8026ea:	48 89 e5             	mov    %rsp,%rbp
    pte_t pte = get_uvpt_entry(va);
  8026ed:	48 b8 ef 25 80 00 00 	movabs $0x8025ef,%rax
  8026f4:	00 00 00 
  8026f7:	ff d0                	call   *%rax
    return pte & PTE_D;
  8026f9:	48 c1 e8 06          	shr    $0x6,%rax
  8026fd:	83 e0 01             	and    $0x1,%eax
}
  802700:	5d                   	pop    %rbp
  802701:	c3                   	ret    

0000000000802702 <is_page_present>:

bool
is_page_present(void *va) {
  802702:	55                   	push   %rbp
  802703:	48 89 e5             	mov    %rsp,%rbp
    return get_uvpt_entry(va) & PTE_P;
  802706:	48 b8 ef 25 80 00 00 	movabs $0x8025ef,%rax
  80270d:	00 00 00 
  802710:	ff d0                	call   *%rax
  802712:	83 e0 01             	and    $0x1,%eax
}
  802715:	5d                   	pop    %rbp
  802716:	c3                   	ret    

0000000000802717 <foreach_shared_region>:

int
foreach_shared_region(int (*fun)(void *start, void *end, void *arg), void *arg) {
  802717:	55                   	push   %rbp
  802718:	48 89 e5             	mov    %rsp,%rbp
  80271b:	41 57                	push   %r15
  80271d:	41 56                	push   %r14
  80271f:	41 55                	push   %r13
  802721:	41 54                	push   %r12
  802723:	53                   	push   %rbx
  802724:	48 83 ec 28          	sub    $0x28,%rsp
  802728:	48 89 7d c0          	mov    %rdi,-0x40(%rbp)
  80272c:	48 89 75 b8          	mov    %rsi,-0x48(%rbp)
    /* Calls fun() for every shared region */
    // LAB 11: Your code here
    int res;

    for (uintptr_t i = 0; i < MAX_USER_ADDRESS; ) {
  802730:	bb 00 00 00 00       	mov    $0x0,%ebx
        
        if (!(uvpml4[VPML4(i)] & PTE_P) || !(uvpdp[VPDP(i)] & PTE_P) || !(uvpd[VPD(i)] & PTE_P)) {
  802735:	49 bc 00 20 40 80 00 	movabs $0x10080402000,%r12
  80273c:	01 00 00 
  80273f:	49 bd 00 00 40 80 00 	movabs $0x10080400000,%r13
  802746:	01 00 00 
  802749:	49 be 00 00 00 80 00 	movabs $0x10080000000,%r14
  802750:	01 00 00 
           i += HUGE_PAGE_SIZE;  
           continue;
        } 
        void *start = (void*)i;
        if (get_prot(start) & PROT_SHARE && is_page_present(start))  {
  802753:	49 bf a3 26 80 00 00 	movabs $0x8026a3,%r15
  80275a:	00 00 00 
  80275d:	eb 16                	jmp    802775 <foreach_shared_region+0x5e>
           i += HUGE_PAGE_SIZE;  
  80275f:	48 81 c3 00 00 20 00 	add    $0x200000,%rbx
    for (uintptr_t i = 0; i < MAX_USER_ADDRESS; ) {
  802766:	48 b8 ff ff ff ff 7f 	movabs $0x7fffffffff,%rax
  80276d:	00 00 00 
  802770:	48 39 c3             	cmp    %rax,%rbx
  802773:	77 73                	ja     8027e8 <foreach_shared_region+0xd1>
        if (!(uvpml4[VPML4(i)] & PTE_P) || !(uvpdp[VPDP(i)] & PTE_P) || !(uvpd[VPD(i)] & PTE_P)) {
  802775:	48 89 d8             	mov    %rbx,%rax
  802778:	48 c1 e8 27          	shr    $0x27,%rax
  80277c:	49 8b 04 c4          	mov    (%r12,%rax,8),%rax
  802780:	a8 01                	test   $0x1,%al
  802782:	74 db                	je     80275f <foreach_shared_region+0x48>
  802784:	48 89 d8             	mov    %rbx,%rax
  802787:	48 c1 e8 1e          	shr    $0x1e,%rax
  80278b:	49 8b 44 c5 00       	mov    0x0(%r13,%rax,8),%rax
  802790:	a8 01                	test   $0x1,%al
  802792:	74 cb                	je     80275f <foreach_shared_region+0x48>
  802794:	48 89 d8             	mov    %rbx,%rax
  802797:	48 c1 e8 15          	shr    $0x15,%rax
  80279b:	49 8b 04 c6          	mov    (%r14,%rax,8),%rax
  80279f:	a8 01                	test   $0x1,%al
  8027a1:	74 bc                	je     80275f <foreach_shared_region+0x48>
        void *start = (void*)i;
  8027a3:	48 89 5d c8          	mov    %rbx,-0x38(%rbp)
        if (get_prot(start) & PROT_SHARE && is_page_present(start))  {
  8027a7:	48 89 df             	mov    %rbx,%rdi
  8027aa:	41 ff d7             	call   *%r15
  8027ad:	a8 40                	test   $0x40,%al
  8027af:	75 09                	jne    8027ba <foreach_shared_region+0xa3>
            void *end = (void*)(i + PAGE_SIZE);
            if ((res = fun(start, end, arg)) < 0)
                return res;
        }
        i += PAGE_SIZE;
  8027b1:	48 81 c3 00 10 00 00 	add    $0x1000,%rbx
  8027b8:	eb ac                	jmp    802766 <foreach_shared_region+0x4f>
        if (get_prot(start) & PROT_SHARE && is_page_present(start))  {
  8027ba:	48 89 df             	mov    %rbx,%rdi
  8027bd:	48 b8 02 27 80 00 00 	movabs $0x802702,%rax
  8027c4:	00 00 00 
  8027c7:	ff d0                	call   *%rax
  8027c9:	84 c0                	test   %al,%al
  8027cb:	74 e4                	je     8027b1 <foreach_shared_region+0x9a>
            void *end = (void*)(i + PAGE_SIZE);
  8027cd:	48 8d b3 00 10 00 00 	lea    0x1000(%rbx),%rsi
            if ((res = fun(start, end, arg)) < 0)
  8027d4:	48 8b 55 b8          	mov    -0x48(%rbp),%rdx
  8027d8:	48 8b 7d c8          	mov    -0x38(%rbp),%rdi
  8027dc:	48 8b 45 c0          	mov    -0x40(%rbp),%rax
  8027e0:	ff d0                	call   *%rax
  8027e2:	85 c0                	test   %eax,%eax
  8027e4:	79 cb                	jns    8027b1 <foreach_shared_region+0x9a>
  8027e6:	eb 05                	jmp    8027ed <foreach_shared_region+0xd6>
    }
    return 0;
  8027e8:	b8 00 00 00 00       	mov    $0x0,%eax
}
  8027ed:	48 83 c4 28          	add    $0x28,%rsp
  8027f1:	5b                   	pop    %rbx
  8027f2:	41 5c                	pop    %r12
  8027f4:	41 5d                	pop    %r13
  8027f6:	41 5e                	pop    %r14
  8027f8:	41 5f                	pop    %r15
  8027fa:	5d                   	pop    %rbp
  8027fb:	c3                   	ret    

00000000008027fc <FramebufferInit>:
#include <inc/lib.h>


//returns 0 on success

int FramebufferInit(FRAMEBUFFER_CONTEXT *context) {
  8027fc:	55                   	push   %rbp
  8027fd:	48 89 e5             	mov    %rsp,%rbp
  802800:	53                   	push   %rbx
  802801:	48 83 ec 08          	sub    $0x8,%rsp
  802805:	48 89 fb             	mov    %rdi,%rbx
   context->width = vsys_getframebuffer_width();
  802808:	48 b8 b5 28 80 00 00 	movabs $0x8028b5,%rax
  80280f:	00 00 00 
  802812:	ff d0                	call   *%rax
  802814:	89 03                	mov    %eax,(%rbx)
   context->height = vsys_getframebuffer_height();
  802816:	48 b8 bf 28 80 00 00 	movabs $0x8028bf,%rax
  80281d:	00 00 00 
  802820:	ff d0                	call   *%rax
  802822:	89 43 04             	mov    %eax,0x4(%rbx)
   context->bits_per_pixel = vsys_getframebuffer_bpp();
  802825:	48 b8 c9 28 80 00 00 	movabs $0x8028c9,%rax
  80282c:	00 00 00 
  80282f:	ff d0                	call   *%rax
  802831:	89 43 0c             	mov    %eax,0xc(%rbx)
   context->size = context->width * context->height * (context->bits_per_pixel / 8);
  802834:	8b 13                	mov    (%rbx),%edx
  802836:	0f af 53 04          	imul   0x4(%rbx),%edx
  80283a:	c1 e8 03             	shr    $0x3,%eax
  80283d:	0f af d0             	imul   %eax,%edx
  802840:	89 53 10             	mov    %edx,0x10(%rbx)
   //graphics convention
   context->front = UTEMP - context->size;
  802843:	89 d2                	mov    %edx,%edx
  802845:	b8 00 00 40 00       	mov    $0x400000,%eax
  80284a:	48 29 d0             	sub    %rdx,%rax
  80284d:	48 89 43 18          	mov    %rax,0x18(%rbx)
   int res = sys_alloc_region(thisenv->env_id, UTEMP, context->size, PROT_R | PROT_W);
  802851:	48 a1 08 50 81 00 00 	movabs 0x815008,%rax
  802858:	00 00 00 
  80285b:	8b b8 c8 00 00 00    	mov    0xc8(%rax),%edi
  802861:	b9 06 00 00 00       	mov    $0x6,%ecx
  802866:	be 00 00 40 00       	mov    $0x400000,%esi
  80286b:	48 b8 62 13 80 00 00 	movabs $0x801362,%rax
  802872:	00 00 00 
  802875:	ff d0                	call   *%rax
   if (res < 0)
  802877:	85 c0                	test   %eax,%eax
  802879:	78 0d                	js     802888 <FramebufferInit+0x8c>
       return res;
   context->back = UTEMP;
  80287b:	48 c7 43 20 00 00 40 	movq   $0x400000,0x20(%rbx)
  802882:	00 
   return 0;
  802883:	b8 00 00 00 00       	mov    $0x0,%eax
}
  802888:	48 8b 5d f8          	mov    -0x8(%rbp),%rbx
  80288c:	c9                   	leave  
  80288d:	c3                   	ret    

000000000080288e <FramebufferFlip>:


void FramebufferFlip(FRAMEBUFFER_CONTEXT *context) {
  80288e:	55                   	push   %rbp
  80288f:	48 89 e5             	mov    %rsp,%rbp
    memcpy(context->front, context->back, context->size);
  802892:	8b 57 10             	mov    0x10(%rdi),%edx
  802895:	48 8b 77 20          	mov    0x20(%rdi),%rsi
  802899:	48 8b 7f 18          	mov    0x18(%rdi),%rdi
  80289d:	48 b8 08 10 80 00 00 	movabs $0x801008,%rax
  8028a4:	00 00 00 
  8028a7:	ff d0                	call   *%rax
}
  8028a9:	5d                   	pop    %rbp
  8028aa:	c3                   	ret    

00000000008028ab <vsys_gettime>:
#include <inc/lib.h>

static inline uint64_t
vsyscall(int num) {
    // LAB 12: Your code here
    return vsys[num];
  8028ab:	a1 00 f0 bf 1f 80 00 	movabs 0x801fbff000,%eax
  8028b2:	00 00 
}

int
vsys_gettime(void) {
    return vsyscall(VSYS_gettime);
}
  8028b4:	c3                   	ret    

00000000008028b5 <vsys_getframebuffer_width>:
    return vsys[num];
  8028b5:	a1 04 f0 bf 1f 80 00 	movabs 0x801fbff004,%eax
  8028bc:	00 00 

uint32_t vsys_getframebuffer_width(void) {
    return vsyscall(VSYS_getframebuffer_width);
}
  8028be:	c3                   	ret    

00000000008028bf <vsys_getframebuffer_height>:
    return vsys[num];
  8028bf:	a1 08 f0 bf 1f 80 00 	movabs 0x801fbff008,%eax
  8028c6:	00 00 
uint32_t vsys_getframebuffer_height(void) {
    return vsyscall(VSYS_getframebuffer_height);

}
  8028c8:	c3                   	ret    

00000000008028c9 <vsys_getframebuffer_bpp>:
    return vsys[num];
  8028c9:	a1 0c f0 bf 1f 80 00 	movabs 0x801fbff00c,%eax
  8028d0:	00 00 
uint32_t vsys_getframebuffer_bpp(void) {
    return vsyscall(VSYS_getframebuffer_bpp);
}
  8028d2:	c3                   	ret    

00000000008028d3 <lodepng_strlen>:
/* does not check memory out of bounds, do not use on untrusted data */
static size_t lodepng_strlen(const char* a) {
  const char* orig = a;
  /* avoid warning about unused function in case of disabled COMPILE... macros */
  (void)(&lodepng_strlen);
  while(*a) a++;
  8028d3:	80 3f 00             	cmpb   $0x0,(%rdi)
  8028d6:	74 10                	je     8028e8 <lodepng_strlen+0x15>
  8028d8:	48 89 f8             	mov    %rdi,%rax
  8028db:	48 83 c0 01          	add    $0x1,%rax
  8028df:	80 38 00             	cmpb   $0x0,(%rax)
  8028e2:	75 f7                	jne    8028db <lodepng_strlen+0x8>
  return (size_t)(a - orig);
  8028e4:	48 29 f8             	sub    %rdi,%rax
}
  8028e7:	c3                   	ret    
  while(*a) a++;
  8028e8:	48 89 f8             	mov    %rdi,%rax
  8028eb:	eb f7                	jmp    8028e4 <lodepng_strlen+0x11>

00000000008028ed <lodepng_read32bitInt>:

/* ////////////////////////////////////////////////////////////////////////// */

#if defined(LODEPNG_COMPILE_DECODER) || defined(LODEPNG_COMPILE_PNG)
static unsigned lodepng_read32bitInt(const unsigned char* buffer) {
  return (((unsigned)buffer[0] << 24u) | ((unsigned)buffer[1] << 16u) |
  8028ed:	0f b6 07             	movzbl (%rdi),%eax
  8028f0:	c1 e0 18             	shl    $0x18,%eax
  8028f3:	0f b6 57 01          	movzbl 0x1(%rdi),%edx
  8028f7:	c1 e2 10             	shl    $0x10,%edx
  8028fa:	09 d0                	or     %edx,%eax
         ((unsigned)buffer[2] << 8u) | (unsigned)buffer[3]);
  8028fc:	0f b6 57 03          	movzbl 0x3(%rdi),%edx
  802900:	09 d0                	or     %edx,%eax
  802902:	0f b6 57 02          	movzbl 0x2(%rdi),%edx
  802906:	c1 e2 08             	shl    $0x8,%edx
  802909:	09 d0                	or     %edx,%eax
}
  80290b:	c3                   	ret    

000000000080290c <lodepng_set32bitInt>:
#endif /*defined(LODEPNG_COMPILE_DECODER) || defined(LODEPNG_COMPILE_PNG)*/

#if defined(LODEPNG_COMPILE_PNG) || defined(LODEPNG_COMPILE_ENCODER)
/*buffer must have at least 4 allocated bytes available*/
static void lodepng_set32bitInt(unsigned char* buffer, unsigned value) {
  80290c:	89 f0                	mov    %esi,%eax
  buffer[0] = (unsigned char)((value >> 24) & 0xff);
  80290e:	89 f2                	mov    %esi,%edx
  802910:	c1 ea 18             	shr    $0x18,%edx
  802913:	88 17                	mov    %dl,(%rdi)
  buffer[1] = (unsigned char)((value >> 16) & 0xff);
  802915:	89 f2                	mov    %esi,%edx
  802917:	c1 ea 10             	shr    $0x10,%edx
  80291a:	88 57 01             	mov    %dl,0x1(%rdi)
  buffer[2] = (unsigned char)((value >>  8) & 0xff);
  80291d:	0f b6 cc             	movzbl %ah,%ecx
  802920:	88 4f 02             	mov    %cl,0x2(%rdi)
  buffer[3] = (unsigned char)((value      ) & 0xff);
  802923:	40 88 77 03          	mov    %sil,0x3(%rdi)
}
  802927:	c3                   	ret    

0000000000802928 <ensureBits9>:
  reader->buffer = (unsigned)reader->data[reader->bp >> 3u] >> (reader->bp & 7u);
  return 1;
}*/

/*See ensureBits documentation above. This one ensures up to 9 bits */
static unsigned ensureBits9(LodePNGBitReader* reader, size_t nbits) {
  802928:	48 89 f0             	mov    %rsi,%rax
  size_t start = reader->bp >> 3u;
  80292b:	48 8b 77 18          	mov    0x18(%rdi),%rsi
  80292f:	48 89 f2             	mov    %rsi,%rdx
  802932:	48 c1 ea 03          	shr    $0x3,%rdx
  size_t size = reader->size;
  802936:	48 8b 4f 08          	mov    0x8(%rdi),%rcx
  if(start + 1u < size) {
  80293a:	4c 8d 42 01          	lea    0x1(%rdx),%r8
  80293e:	49 39 c8             	cmp    %rcx,%r8
  802941:	73 21                	jae    802964 <ensureBits9+0x3c>
    reader->buffer = (unsigned)reader->data[start + 0] | ((unsigned)reader->data[start + 1] << 8u);
  802943:	48 8b 0f             	mov    (%rdi),%rcx
  802946:	0f b6 44 11 01       	movzbl 0x1(%rcx,%rdx,1),%eax
  80294b:	c1 e0 08             	shl    $0x8,%eax
  80294e:	0f b6 14 11          	movzbl (%rcx,%rdx,1),%edx
  802952:	09 d0                	or     %edx,%eax
    reader->buffer >>= (reader->bp & 7u);
  802954:	89 f1                	mov    %esi,%ecx
  802956:	83 e1 07             	and    $0x7,%ecx
  802959:	d3 e8                	shr    %cl,%eax
  80295b:	89 47 20             	mov    %eax,0x20(%rdi)
    return 1;
  80295e:	b8 01 00 00 00       	mov    $0x1,%eax
  802963:	c3                   	ret    
  } else {
    reader->buffer = 0;
  802964:	c7 47 20 00 00 00 00 	movl   $0x0,0x20(%rdi)
    if(start + 0u < size) reader->buffer |= reader->data[start + 0];
  80296b:	48 39 ca             	cmp    %rcx,%rdx
  80296e:	73 0a                	jae    80297a <ensureBits9+0x52>
  802970:	48 8b 0f             	mov    (%rdi),%rcx
  802973:	0f b6 14 11          	movzbl (%rcx,%rdx,1),%edx
  802977:	89 57 20             	mov    %edx,0x20(%rdi)
    reader->buffer >>= (reader->bp & 7u);
  80297a:	89 f1                	mov    %esi,%ecx
  80297c:	83 e1 07             	and    $0x7,%ecx
  80297f:	d3 6f 20             	shrl   %cl,0x20(%rdi)
    return reader->bp + nbits <= reader->bitsize;
  802982:	48 01 c6             	add    %rax,%rsi
  802985:	48 3b 77 10          	cmp    0x10(%rdi),%rsi
  802989:	0f 96 c0             	setbe  %al
  80298c:	0f b6 c0             	movzbl %al,%eax
  }
}
  80298f:	c3                   	ret    

0000000000802990 <ensureBits17>:

/*See ensureBits documentation above. This one ensures up to 17 bits */
static unsigned ensureBits17(LodePNGBitReader* reader, size_t nbits) {
  802990:	48 89 f2             	mov    %rsi,%rdx
  size_t start = reader->bp >> 3u;
  802993:	48 8b 77 18          	mov    0x18(%rdi),%rsi
  802997:	48 89 f0             	mov    %rsi,%rax
  80299a:	48 c1 e8 03          	shr    $0x3,%rax
  size_t size = reader->size;
  80299e:	48 8b 4f 08          	mov    0x8(%rdi),%rcx
  if(start + 2u < size) {
  8029a2:	4c 8d 40 02          	lea    0x2(%rax),%r8
  8029a6:	49 39 c8             	cmp    %rcx,%r8
  8029a9:	73 2e                	jae    8029d9 <ensureBits17+0x49>
    reader->buffer = (unsigned)reader->data[start + 0] | ((unsigned)reader->data[start + 1] << 8u) |
  8029ab:	48 8b 0f             	mov    (%rdi),%rcx
  8029ae:	0f b6 54 01 01       	movzbl 0x1(%rcx,%rax,1),%edx
  8029b3:	c1 e2 08             	shl    $0x8,%edx
                     ((unsigned)reader->data[start + 2] << 16u);
  8029b6:	44 0f b6 44 01 02    	movzbl 0x2(%rcx,%rax,1),%r8d
  8029bc:	41 c1 e0 10          	shl    $0x10,%r8d
    reader->buffer = (unsigned)reader->data[start + 0] | ((unsigned)reader->data[start + 1] << 8u) |
  8029c0:	44 09 c2             	or     %r8d,%edx
  8029c3:	0f b6 04 01          	movzbl (%rcx,%rax,1),%eax
  8029c7:	09 d0                	or     %edx,%eax
    reader->buffer >>= (reader->bp & 7u);
  8029c9:	89 f1                	mov    %esi,%ecx
  8029cb:	83 e1 07             	and    $0x7,%ecx
  8029ce:	d3 e8                	shr    %cl,%eax
  8029d0:	89 47 20             	mov    %eax,0x20(%rdi)
    return 1;
  8029d3:	b8 01 00 00 00       	mov    $0x1,%eax
  8029d8:	c3                   	ret    
  } else {
    reader->buffer = 0;
  8029d9:	c7 47 20 00 00 00 00 	movl   $0x0,0x20(%rdi)
    if(start + 0u < size) reader->buffer |= reader->data[start + 0];
  8029e0:	48 39 c8             	cmp    %rcx,%rax
  8029e3:	73 0c                	jae    8029f1 <ensureBits17+0x61>
  8029e5:	4c 8b 07             	mov    (%rdi),%r8
  8029e8:	45 0f b6 04 00       	movzbl (%r8,%rax,1),%r8d
  8029ed:	44 89 47 20          	mov    %r8d,0x20(%rdi)
    if(start + 1u < size) reader->buffer |= ((unsigned)reader->data[start + 1] << 8u);
  8029f1:	4c 8d 40 01          	lea    0x1(%rax),%r8
  8029f5:	49 39 c8             	cmp    %rcx,%r8
  8029f8:	73 0e                	jae    802a08 <ensureBits17+0x78>
  8029fa:	48 8b 0f             	mov    (%rdi),%rcx
  8029fd:	0f b6 44 01 01       	movzbl 0x1(%rcx,%rax,1),%eax
  802a02:	c1 e0 08             	shl    $0x8,%eax
  802a05:	09 47 20             	or     %eax,0x20(%rdi)
    reader->buffer >>= (reader->bp & 7u);
  802a08:	89 f1                	mov    %esi,%ecx
  802a0a:	83 e1 07             	and    $0x7,%ecx
  802a0d:	d3 6f 20             	shrl   %cl,0x20(%rdi)
    return reader->bp + nbits <= reader->bitsize;
  802a10:	48 01 d6             	add    %rdx,%rsi
  802a13:	48 3b 77 10          	cmp    0x10(%rdi),%rsi
  802a17:	0f 96 c0             	setbe  %al
  802a1a:	0f b6 c0             	movzbl %al,%eax
  }
}
  802a1d:	c3                   	ret    

0000000000802a1e <readBits>:
  reader->buffer >>= nbits;
  reader->bp += nbits;
}

/* Must have enough bits available with ensureBits */
static unsigned readBits(LodePNGBitReader* reader, size_t nbits) {
  802a1e:	48 89 f1             	mov    %rsi,%rcx
  return reader->buffer & ((1u << nbits) - 1u);
  802a21:	8b 57 20             	mov    0x20(%rdi),%edx
  reader->buffer >>= nbits;
  802a24:	89 d0                	mov    %edx,%eax
  802a26:	d3 e8                	shr    %cl,%eax
  802a28:	89 47 20             	mov    %eax,0x20(%rdi)
  reader->bp += nbits;
  802a2b:	48 01 77 18          	add    %rsi,0x18(%rdi)
  return reader->buffer & ((1u << nbits) - 1u);
  802a2f:	b8 ff ff ff ff       	mov    $0xffffffff,%eax
  802a34:	d3 e0                	shl    %cl,%eax
  802a36:	f7 d0                	not    %eax
  802a38:	21 d0                	and    %edx,%eax
  unsigned result = peekBits(reader, nbits);
  advanceBits(reader, nbits);
  return result;
}
  802a3a:	c3                   	ret    

0000000000802a3b <bpmnode_create>:
  BPMNode** chains0;
  BPMNode** chains1;
} BPMLists;

/*creates a new chain node with the given parameters, from the memory in the lists */
static BPMNode* bpmnode_create(BPMLists* lists, int weight, unsigned index, BPMNode* tail) {
  802a3b:	41 89 d0             	mov    %edx,%r8d
  802a3e:	49 89 c9             	mov    %rcx,%r9
  unsigned i;
  BPMNode* result;

  /*memory full, so garbage collect*/
  if(lists->nextfree >= lists->numfree) {
  802a41:	8b 47 10             	mov    0x10(%rdi),%eax
  802a44:	39 47 14             	cmp    %eax,0x14(%rdi)
  802a47:	0f 82 c1 00 00 00    	jb     802b0e <bpmnode_create+0xd3>
    /*mark only those that are in use*/
    for(i = 0; i != lists->memsize; ++i) lists->memory[i].in_use = 0;
  802a4d:	83 3f 00             	cmpl   $0x0,(%rdi)
  802a50:	74 21                	je     802a73 <bpmnode_create+0x38>
  802a52:	ba 00 00 00 00       	mov    $0x0,%edx
  802a57:	89 d0                	mov    %edx,%eax
  802a59:	48 8d 04 40          	lea    (%rax,%rax,2),%rax
  802a5d:	48 c1 e0 03          	shl    $0x3,%rax
  802a61:	48 03 47 08          	add    0x8(%rdi),%rax
  802a65:	c7 40 10 00 00 00 00 	movl   $0x0,0x10(%rax)
  802a6c:	83 c2 01             	add    $0x1,%edx
  802a6f:	39 17                	cmp    %edx,(%rdi)
  802a71:	75 e4                	jne    802a57 <bpmnode_create+0x1c>
    for(i = 0; i != lists->listsize; ++i) {
  802a73:	83 7f 20 00          	cmpl   $0x0,0x20(%rdi)
  802a77:	74 49                	je     802ac2 <bpmnode_create+0x87>
  802a79:	ba 00 00 00 00       	mov    $0x0,%edx
      BPMNode* node;
      for(node = lists->chains0[i]; node != 0; node = node->tail) node->in_use = 1;
  802a7e:	89 d1                	mov    %edx,%ecx
  802a80:	48 8b 47 28          	mov    0x28(%rdi),%rax
  802a84:	48 8b 04 c8          	mov    (%rax,%rcx,8),%rax
  802a88:	48 85 c0             	test   %rax,%rax
  802a8b:	74 10                	je     802a9d <bpmnode_create+0x62>
  802a8d:	c7 40 10 01 00 00 00 	movl   $0x1,0x10(%rax)
  802a94:	48 8b 40 08          	mov    0x8(%rax),%rax
  802a98:	48 85 c0             	test   %rax,%rax
  802a9b:	75 f0                	jne    802a8d <bpmnode_create+0x52>
      for(node = lists->chains1[i]; node != 0; node = node->tail) node->in_use = 1;
  802a9d:	48 8b 47 30          	mov    0x30(%rdi),%rax
  802aa1:	48 8b 04 c8          	mov    (%rax,%rcx,8),%rax
  802aa5:	48 85 c0             	test   %rax,%rax
  802aa8:	74 10                	je     802aba <bpmnode_create+0x7f>
  802aaa:	c7 40 10 01 00 00 00 	movl   $0x1,0x10(%rax)
  802ab1:	48 8b 40 08          	mov    0x8(%rax),%rax
  802ab5:	48 85 c0             	test   %rax,%rax
  802ab8:	75 f0                	jne    802aaa <bpmnode_create+0x6f>
    for(i = 0; i != lists->listsize; ++i) {
  802aba:	83 c2 01             	add    $0x1,%edx
  802abd:	39 57 20             	cmp    %edx,0x20(%rdi)
  802ac0:	75 bc                	jne    802a7e <bpmnode_create+0x43>
    }
    /*collect those that are free*/
    lists->numfree = 0;
  802ac2:	c7 47 10 00 00 00 00 	movl   $0x0,0x10(%rdi)
    for(i = 0; i != lists->memsize; ++i) {
  802ac9:	83 3f 00             	cmpl   $0x0,(%rdi)
  802acc:	74 39                	je     802b07 <bpmnode_create+0xcc>
  802ace:	b8 00 00 00 00       	mov    $0x0,%eax
  802ad3:	eb 07                	jmp    802adc <bpmnode_create+0xa1>
  802ad5:	83 c0 01             	add    $0x1,%eax
  802ad8:	39 07                	cmp    %eax,(%rdi)
  802ada:	74 2b                	je     802b07 <bpmnode_create+0xcc>
      if(!lists->memory[i].in_use) lists->freelist[lists->numfree++] = &lists->memory[i];
  802adc:	89 c2                	mov    %eax,%edx
  802ade:	48 8d 0c 52          	lea    (%rdx,%rdx,2),%rcx
  802ae2:	48 8b 57 08          	mov    0x8(%rdi),%rdx
  802ae6:	48 8d 0c ca          	lea    (%rdx,%rcx,8),%rcx
  802aea:	83 79 10 00          	cmpl   $0x0,0x10(%rcx)
  802aee:	75 e5                	jne    802ad5 <bpmnode_create+0x9a>
  802af0:	4c 8b 57 18          	mov    0x18(%rdi),%r10
  802af4:	8b 57 10             	mov    0x10(%rdi),%edx
  802af7:	44 8d 5a 01          	lea    0x1(%rdx),%r11d
  802afb:	44 89 5f 10          	mov    %r11d,0x10(%rdi)
  802aff:	89 d2                	mov    %edx,%edx
  802b01:	49 89 0c d2          	mov    %rcx,(%r10,%rdx,8)
  802b05:	eb ce                	jmp    802ad5 <bpmnode_create+0x9a>
    }
    lists->nextfree = 0;
  802b07:	c7 47 14 00 00 00 00 	movl   $0x0,0x14(%rdi)
  }

  result = lists->freelist[lists->nextfree++];
  802b0e:	48 8b 57 18          	mov    0x18(%rdi),%rdx
  802b12:	8b 47 14             	mov    0x14(%rdi),%eax
  802b15:	8d 48 01             	lea    0x1(%rax),%ecx
  802b18:	89 4f 14             	mov    %ecx,0x14(%rdi)
  802b1b:	89 c0                	mov    %eax,%eax
  802b1d:	48 8b 04 c2          	mov    (%rdx,%rax,8),%rax
  result->weight = weight;
  802b21:	89 30                	mov    %esi,(%rax)
  result->index = index;
  802b23:	44 89 40 04          	mov    %r8d,0x4(%rax)
  result->tail = tail;
  802b27:	4c 89 48 08          	mov    %r9,0x8(%rax)
  return result;
}
  802b2b:	c3                   	ret    

0000000000802b2c <boundaryPM>:
  if(counter & 1) lodepng_memcpy(leaves, mem, sizeof(*leaves) * num);
  lodepng_free(mem);
}

/*Boundary Package Merge step, numpresent is the amount of leaves, and c is the current chain.*/
static void boundaryPM(BPMLists* lists, BPMNode* leaves, size_t numpresent, int c, int num) {
  802b2c:	55                   	push   %rbp
  802b2d:	48 89 e5             	mov    %rsp,%rbp
  802b30:	41 57                	push   %r15
  802b32:	41 56                	push   %r14
  802b34:	41 55                	push   %r13
  802b36:	41 54                	push   %r12
  802b38:	53                   	push   %rbx
  802b39:	48 83 ec 18          	sub    $0x18,%rsp
  802b3d:	48 89 fb             	mov    %rdi,%rbx
  802b40:	49 89 f6             	mov    %rsi,%r14
  802b43:	49 89 d5             	mov    %rdx,%r13
  802b46:	41 89 cc             	mov    %ecx,%r12d
  802b49:	44 89 45 cc          	mov    %r8d,-0x34(%rbp)
  unsigned lastindex = lists->chains1[c]->index;
  802b4d:	48 8b 7f 30          	mov    0x30(%rdi),%rdi
  802b51:	48 63 d1             	movslq %ecx,%rdx
  802b54:	48 8d 04 d5 00 00 00 	lea    0x0(,%rdx,8),%rax
  802b5b:	00 
  802b5c:	48 8b 0c d7          	mov    (%rdi,%rdx,8),%rcx
  802b60:	8b 71 04             	mov    0x4(%rcx),%esi

  if(c == 0) {
  802b63:	45 85 e4             	test   %r12d,%r12d
  802b66:	75 3f                	jne    802ba7 <boundaryPM+0x7b>
    if(lastindex >= numpresent) return;
  802b68:	89 f7                	mov    %esi,%edi
  802b6a:	4c 39 ef             	cmp    %r13,%rdi
  802b6d:	0f 83 91 00 00 00    	jae    802c04 <boundaryPM+0xd8>
    lists->chains0[c] = lists->chains1[c];
  802b73:	4c 8b 43 28          	mov    0x28(%rbx),%r8
  802b77:	49 89 0c d0          	mov    %rcx,(%r8,%rdx,8)
    lists->chains1[c] = bpmnode_create(lists, leaves[lastindex].weight, lastindex + 1, 0);
  802b7b:	48 03 43 30          	add    0x30(%rbx),%rax
  802b7f:	49 89 c4             	mov    %rax,%r12
  802b82:	8d 56 01             	lea    0x1(%rsi),%edx
  802b85:	48 8d 04 7f          	lea    (%rdi,%rdi,2),%rax
  802b89:	b9 00 00 00 00       	mov    $0x0,%ecx
  802b8e:	41 8b 34 c6          	mov    (%r14,%rax,8),%esi
  802b92:	48 89 df             	mov    %rbx,%rdi
  802b95:	48 b8 3b 2a 80 00 00 	movabs $0x802a3b,%rax
  802b9c:	00 00 00 
  802b9f:	ff d0                	call   *%rax
  802ba1:	49 89 04 24          	mov    %rax,(%r12)
  802ba5:	eb 5d                	jmp    802c04 <boundaryPM+0xd8>
  } else {
    /*sum of the weights of the head nodes of the previous lookahead chains.*/
    int sum = lists->chains0[c - 1]->weight + lists->chains1[c - 1]->weight;
  802ba7:	4c 8b 43 28          	mov    0x28(%rbx),%r8
  802bab:	4d 8b 4c 00 f8       	mov    -0x8(%r8,%rax,1),%r9
  802bb0:	48 8b 7c 07 f8       	mov    -0x8(%rdi,%rax,1),%rdi
  802bb5:	8b 3f                	mov    (%rdi),%edi
  802bb7:	41 03 39             	add    (%r9),%edi
    lists->chains0[c] = lists->chains1[c];
  802bba:	49 89 0c d0          	mov    %rcx,(%r8,%rdx,8)
    if(lastindex < numpresent && sum > leaves[lastindex].weight) {
  802bbe:	89 f2                	mov    %esi,%edx
  802bc0:	4c 39 ea             	cmp    %r13,%rdx
  802bc3:	73 0d                	jae    802bd2 <boundaryPM+0xa6>
  802bc5:	48 8d 14 52          	lea    (%rdx,%rdx,2),%rdx
  802bc9:	45 8b 04 d6          	mov    (%r14,%rdx,8),%r8d
  802bcd:	41 39 f8             	cmp    %edi,%r8d
  802bd0:	7c 41                	jl     802c13 <boundaryPM+0xe7>
      lists->chains1[c] = bpmnode_create(lists, leaves[lastindex].weight, lastindex + 1, lists->chains1[c]->tail);
      return;
    }
    lists->chains1[c] = bpmnode_create(lists, sum, lastindex, lists->chains1[c - 1]);
  802bd2:	48 8b 53 30          	mov    0x30(%rbx),%rdx
  802bd6:	4c 8d 3c 02          	lea    (%rdx,%rax,1),%r15
  802bda:	48 8b 4c 02 f8       	mov    -0x8(%rdx,%rax,1),%rcx
  802bdf:	89 f2                	mov    %esi,%edx
  802be1:	89 fe                	mov    %edi,%esi
  802be3:	48 89 df             	mov    %rbx,%rdi
  802be6:	48 b8 3b 2a 80 00 00 	movabs $0x802a3b,%rax
  802bed:	00 00 00 
  802bf0:	ff d0                	call   *%rax
  802bf2:	49 89 07             	mov    %rax,(%r15)
    /*in the end we are only interested in the chain of the last list, so no
    need to recurse if we're at the last one (this gives measurable speedup)*/
    if(num + 1 < (int)(2 * numpresent - 2)) {
  802bf5:	8b 45 cc             	mov    -0x34(%rbp),%eax
  802bf8:	8d 50 01             	lea    0x1(%rax),%edx
  802bfb:	43 8d 44 2d fe       	lea    -0x2(%r13,%r13,1),%eax
  802c00:	39 c2                	cmp    %eax,%edx
  802c02:	7c 38                	jl     802c3c <boundaryPM+0x110>
      boundaryPM(lists, leaves, numpresent, c - 1, num);
      boundaryPM(lists, leaves, numpresent, c - 1, num);
    }
  }
}
  802c04:	48 83 c4 18          	add    $0x18,%rsp
  802c08:	5b                   	pop    %rbx
  802c09:	41 5c                	pop    %r12
  802c0b:	41 5d                	pop    %r13
  802c0d:	41 5e                	pop    %r14
  802c0f:	41 5f                	pop    %r15
  802c11:	5d                   	pop    %rbp
  802c12:	c3                   	ret    
      lists->chains1[c] = bpmnode_create(lists, leaves[lastindex].weight, lastindex + 1, lists->chains1[c]->tail);
  802c13:	48 03 43 30          	add    0x30(%rbx),%rax
  802c17:	49 89 c4             	mov    %rax,%r12
  802c1a:	48 8b 00             	mov    (%rax),%rax
  802c1d:	48 8b 48 08          	mov    0x8(%rax),%rcx
  802c21:	8d 56 01             	lea    0x1(%rsi),%edx
  802c24:	44 89 c6             	mov    %r8d,%esi
  802c27:	48 89 df             	mov    %rbx,%rdi
  802c2a:	48 b8 3b 2a 80 00 00 	movabs $0x802a3b,%rax
  802c31:	00 00 00 
  802c34:	ff d0                	call   *%rax
  802c36:	49 89 04 24          	mov    %rax,(%r12)
      return;
  802c3a:	eb c8                	jmp    802c04 <boundaryPM+0xd8>
      boundaryPM(lists, leaves, numpresent, c - 1, num);
  802c3c:	45 8d 7c 24 ff       	lea    -0x1(%r12),%r15d
  802c41:	44 8b 45 cc          	mov    -0x34(%rbp),%r8d
  802c45:	44 89 f9             	mov    %r15d,%ecx
  802c48:	4c 89 ea             	mov    %r13,%rdx
  802c4b:	4c 89 f6             	mov    %r14,%rsi
  802c4e:	48 89 df             	mov    %rbx,%rdi
  802c51:	49 bc 2c 2b 80 00 00 	movabs $0x802b2c,%r12
  802c58:	00 00 00 
  802c5b:	41 ff d4             	call   *%r12
      boundaryPM(lists, leaves, numpresent, c - 1, num);
  802c5e:	44 8b 45 cc          	mov    -0x34(%rbp),%r8d
  802c62:	44 89 f9             	mov    %r15d,%ecx
  802c65:	4c 89 ea             	mov    %r13,%rdx
  802c68:	4c 89 f6             	mov    %r14,%rsi
  802c6b:	48 89 df             	mov    %rbx,%rdi
  802c6e:	41 ff d4             	call   *%r12
  802c71:	eb 91                	jmp    802c04 <boundaryPM+0xd8>

0000000000802c73 <searchCodeIndex>:

static const size_t MAX_SUPPORTED_DEFLATE_LENGTH = 258;

/*search the index in the array, that has the largest value smaller than or equal to the given value,
given array must be sorted (if no value is smaller, it returns the size of the given array)*/
static size_t searchCodeIndex(const unsigned* array, size_t array_size, size_t value) {
  802c73:	49 89 f8             	mov    %rdi,%r8
  802c76:	49 89 f1             	mov    %rsi,%r9
  802c79:	48 89 d7             	mov    %rdx,%rdi
  /*binary search (only small gain over linear). TODO: use CPU log2 instruction for getting symbols instead*/
  size_t left = 1;
  size_t right = array_size - 1;

  while(left <= right) {
  802c7c:	48 89 f1             	mov    %rsi,%rcx
  802c7f:	48 83 e9 01          	sub    $0x1,%rcx
  802c83:	74 3c                	je     802cc1 <searchCodeIndex+0x4e>
  size_t left = 1;
  802c85:	ba 01 00 00 00       	mov    $0x1,%edx
  802c8a:	eb 09                	jmp    802c95 <searchCodeIndex+0x22>
    size_t mid = (left + right) >> 1;
    if(array[mid] >= value) right = mid - 1;
    else left = mid + 1;
  802c8c:	48 8d 50 01          	lea    0x1(%rax),%rdx
  while(left <= right) {
  802c90:	48 39 d1             	cmp    %rdx,%rcx
  802c93:	72 16                	jb     802cab <searchCodeIndex+0x38>
    size_t mid = (left + right) >> 1;
  802c95:	48 8d 04 0a          	lea    (%rdx,%rcx,1),%rax
  802c99:	48 d1 e8             	shr    %rax
    if(array[mid] >= value) right = mid - 1;
  802c9c:	41 8b 34 80          	mov    (%r8,%rax,4),%esi
  802ca0:	48 39 fe             	cmp    %rdi,%rsi
  802ca3:	72 e7                	jb     802c8c <searchCodeIndex+0x19>
  802ca5:	48 8d 48 ff          	lea    -0x1(%rax),%rcx
  802ca9:	eb e5                	jmp    802c90 <searchCodeIndex+0x1d>
  }
  if(left >= array_size || array[left] > value) left--;
  802cab:	49 39 d1             	cmp    %rdx,%r9
  802cae:	76 09                	jbe    802cb9 <searchCodeIndex+0x46>
  802cb0:	41 8b 04 90          	mov    (%r8,%rdx,4),%eax
  802cb4:	48 39 f8             	cmp    %rdi,%rax
  802cb7:	76 04                	jbe    802cbd <searchCodeIndex+0x4a>
  802cb9:	48 83 ea 01          	sub    $0x1,%rdx
  return left;
}
  802cbd:	48 89 d0             	mov    %rdx,%rax
  802cc0:	c3                   	ret    
  size_t left = 1;
  802cc1:	ba 01 00 00 00       	mov    $0x1,%edx
  802cc6:	eb f1                	jmp    802cb9 <searchCodeIndex+0x46>

0000000000802cc8 <getHash>:
  lodepng_free(hash->chainz);
}



static unsigned getHash(const unsigned char* data, size_t size, size_t pos) {
  802cc8:	49 89 f8             	mov    %rdi,%r8
  802ccb:	48 89 f7             	mov    %rsi,%rdi
  802cce:	48 89 d1             	mov    %rdx,%rcx
  unsigned result = 0;
  if(pos + 2 < size) {
  802cd1:	48 8d 42 02          	lea    0x2(%rdx),%rax
  802cd5:	48 39 f0             	cmp    %rsi,%rax
  802cd8:	73 1f                	jae    802cf9 <getHash+0x31>
    /*A simple shift and xor hash is used. Since the data of PNGs is dominated
    by zeroes due to the filters, a better hash does not have a significant
    effect on speed in traversing the chain, and causes more time spend on
    calculating the hash.*/
    result ^= ((unsigned)data[pos + 0] << 0u);
    result ^= ((unsigned)data[pos + 1] << 4u);
  802cda:	41 0f b6 54 10 01    	movzbl 0x1(%r8,%rdx,1),%edx
  802ce0:	c1 e2 04             	shl    $0x4,%edx
    result ^= ((unsigned)data[pos + 2] << 8u);
  802ce3:	41 0f b6 44 08 02    	movzbl 0x2(%r8,%rcx,1),%eax
  802ce9:	c1 e0 08             	shl    $0x8,%eax
  802cec:	31 c2                	xor    %eax,%edx
    result ^= ((unsigned)data[pos + 0] << 0u);
  802cee:	41 0f b6 04 08       	movzbl (%r8,%rcx,1),%eax
    result ^= ((unsigned)data[pos + 2] << 8u);
  802cf3:	31 c2                	xor    %eax,%edx
    size_t amount, i;
    if(pos >= size) return 0;
    amount = size - pos;
    for(i = 0; i != amount; ++i) result ^= ((unsigned)data[pos + i] << (i * 8u));
  }
  return result & HASH_BIT_MASK;
  802cf5:	0f b7 c2             	movzwl %dx,%eax
}
  802cf8:	c3                   	ret    
    if(pos >= size) return 0;
  802cf9:	b8 00 00 00 00       	mov    $0x0,%eax
  802cfe:	48 39 f2             	cmp    %rsi,%rdx
  802d01:	73 f5                	jae    802cf8 <getHash+0x30>
    amount = size - pos;
  802d03:	48 29 d7             	sub    %rdx,%rdi
    for(i = 0; i != amount; ++i) result ^= ((unsigned)data[pos + i] << (i * 8u));
  802d06:	b8 00 00 00 00       	mov    $0x0,%eax
  unsigned result = 0;
  802d0b:	ba 00 00 00 00       	mov    $0x0,%edx
    for(i = 0; i != amount; ++i) result ^= ((unsigned)data[pos + i] << (i * 8u));
  802d10:	49 01 c8             	add    %rcx,%r8
  802d13:	41 0f b6 34 00       	movzbl (%r8,%rax,1),%esi
  802d18:	8d 0c c5 00 00 00 00 	lea    0x0(,%rax,8),%ecx
  802d1f:	d3 e6                	shl    %cl,%esi
  802d21:	31 f2                	xor    %esi,%edx
  802d23:	48 83 c0 01          	add    $0x1,%rax
  802d27:	48 39 c7             	cmp    %rax,%rdi
  802d2a:	75 e7                	jne    802d13 <getHash+0x4b>
  802d2c:	eb c7                	jmp    802cf5 <getHash+0x2d>

0000000000802d2e <updateHashChain>:
  return (unsigned)(data - start);
}

/*wpos = pos & (windowsize - 1)*/
static void updateHashChain(Hash* hash, size_t wpos, unsigned hashval, unsigned short numzeros) {
  hash->val[wpos] = (int)hashval;
  802d2e:	48 8b 47 10          	mov    0x10(%rdi),%rax
  802d32:	89 14 b0             	mov    %edx,(%rax,%rsi,4)
  if(hash->head[hashval] != -1) hash->chain[wpos] = hash->head[hashval];
  802d35:	89 d2                	mov    %edx,%edx
  802d37:	48 8b 07             	mov    (%rdi),%rax
  802d3a:	8b 04 90             	mov    (%rax,%rdx,4),%eax
  802d3d:	83 f8 ff             	cmp    $0xffffffff,%eax
  802d40:	74 09                	je     802d4b <updateHashChain+0x1d>
  802d42:	4c 8b 47 08          	mov    0x8(%rdi),%r8
  802d46:	66 41 89 04 70       	mov    %ax,(%r8,%rsi,2)
  hash->head[hashval] = (int)wpos;
  802d4b:	48 8b 07             	mov    (%rdi),%rax
  802d4e:	89 34 90             	mov    %esi,(%rax,%rdx,4)

  hash->zeros[wpos] = numzeros;
  802d51:	48 8b 47 28          	mov    0x28(%rdi),%rax
  802d55:	66 89 0c 70          	mov    %cx,(%rax,%rsi,2)
  if(hash->headz[numzeros] != -1) hash->chainz[wpos] = hash->headz[numzeros];
  802d59:	0f b7 c9             	movzwl %cx,%ecx
  802d5c:	48 8b 47 18          	mov    0x18(%rdi),%rax
  802d60:	8b 04 88             	mov    (%rax,%rcx,4),%eax
  802d63:	83 f8 ff             	cmp    $0xffffffff,%eax
  802d66:	74 08                	je     802d70 <updateHashChain+0x42>
  802d68:	48 8b 57 20          	mov    0x20(%rdi),%rdx
  802d6c:	66 89 04 72          	mov    %ax,(%rdx,%rsi,2)
  hash->headz[numzeros] = (int)wpos;
  802d70:	48 8b 47 18          	mov    0x18(%rdi),%rax
  802d74:	89 34 88             	mov    %esi,(%rax,%rcx,4)
}
  802d77:	c3                   	ret    

0000000000802d78 <readBitFromReversedStream>:

/* The color channel bits of less-than-8-bit pixels are read with the MSB of bytes first,
so LodePNGBitWriter and LodePNGBitReader can't be used for those. */

static unsigned char readBitFromReversedStream(size_t* bitpointer, const unsigned char* bitstream) {
  unsigned char result = (unsigned char)((bitstream[(*bitpointer) >> 3] >> (7 - ((*bitpointer) & 0x7))) & 1);
  802d78:	48 8b 17             	mov    (%rdi),%rdx
  802d7b:	48 89 d0             	mov    %rdx,%rax
  802d7e:	48 c1 e8 03          	shr    $0x3,%rax
  802d82:	0f b6 04 06          	movzbl (%rsi,%rax,1),%eax
  802d86:	89 d1                	mov    %edx,%ecx
  802d88:	f7 d1                	not    %ecx
  802d8a:	83 e1 07             	and    $0x7,%ecx
  802d8d:	d3 f8                	sar    %cl,%eax
  802d8f:	83 e0 01             	and    $0x1,%eax
  ++(*bitpointer);
  802d92:	48 83 c2 01          	add    $0x1,%rdx
  802d96:	48 89 17             	mov    %rdx,(%rdi)
  return result;
}
  802d99:	c3                   	ret    

0000000000802d9a <readBitsFromReversedStream>:

/* TODO: make this faster */
static unsigned readBitsFromReversedStream(size_t* bitpointer, const unsigned char* bitstream, size_t nbits) {
  802d9a:	55                   	push   %rbp
  802d9b:	48 89 e5             	mov    %rsp,%rbp
  802d9e:	41 57                	push   %r15
  802da0:	41 56                	push   %r14
  802da2:	41 55                	push   %r13
  802da4:	41 54                	push   %r12
  802da6:	53                   	push   %rbx
  802da7:	48 83 ec 18          	sub    $0x18,%rsp
  802dab:	48 89 7d c8          	mov    %rdi,-0x38(%rbp)
  unsigned result = 0;
  size_t i;
  for(i = 0 ; i < nbits; ++i) {
  802daf:	48 85 d2             	test   %rdx,%rdx
  802db2:	74 45                	je     802df9 <readBitsFromReversedStream+0x5f>
  802db4:	49 89 f6             	mov    %rsi,%r14
  802db7:	49 89 d5             	mov    %rdx,%r13
  802dba:	41 bc 00 00 00 00    	mov    $0x0,%r12d
  unsigned result = 0;
  802dc0:	b8 00 00 00 00       	mov    $0x0,%eax
    result <<= 1u;
    result |= (unsigned)readBitFromReversedStream(bitpointer, bitstream);
  802dc5:	49 bf 78 2d 80 00 00 	movabs $0x802d78,%r15
  802dcc:	00 00 00 
    result <<= 1u;
  802dcf:	8d 1c 00             	lea    (%rax,%rax,1),%ebx
    result |= (unsigned)readBitFromReversedStream(bitpointer, bitstream);
  802dd2:	4c 89 f6             	mov    %r14,%rsi
  802dd5:	48 8b 7d c8          	mov    -0x38(%rbp),%rdi
  802dd9:	41 ff d7             	call   *%r15
  802ddc:	0f b6 c0             	movzbl %al,%eax
  802ddf:	09 d8                	or     %ebx,%eax
  for(i = 0 ; i < nbits; ++i) {
  802de1:	49 83 c4 01          	add    $0x1,%r12
  802de5:	4d 39 e5             	cmp    %r12,%r13
  802de8:	75 e5                	jne    802dcf <readBitsFromReversedStream+0x35>
  }
  return result;
}
  802dea:	48 83 c4 18          	add    $0x18,%rsp
  802dee:	5b                   	pop    %rbx
  802def:	41 5c                	pop    %r12
  802df1:	41 5d                	pop    %r13
  802df3:	41 5e                	pop    %r14
  802df5:	41 5f                	pop    %r15
  802df7:	5d                   	pop    %rbp
  802df8:	c3                   	ret    
  unsigned result = 0;
  802df9:	b8 00 00 00 00       	mov    $0x0,%eax
  return result;
  802dfe:	eb ea                	jmp    802dea <readBitsFromReversedStream+0x50>

0000000000802e00 <setBitOfReversedStream>:

static void setBitOfReversedStream(size_t* bitpointer, unsigned char* bitstream, unsigned char bit) {
  /*the current bit in bitstream may be 0 or 1 for this to work*/
  if(bit == 0) bitstream[(*bitpointer) >> 3u] &=  (unsigned char)(~(1u << (7u - ((*bitpointer) & 7u))));
  802e00:	84 d2                	test   %dl,%dl
  802e02:	75 20                	jne    802e24 <setBitOfReversedStream+0x24>
  802e04:	48 8b 0f             	mov    (%rdi),%rcx
  802e07:	48 89 ca             	mov    %rcx,%rdx
  802e0a:	48 c1 ea 03          	shr    $0x3,%rdx
  802e0e:	f7 d1                	not    %ecx
  802e10:	83 e1 07             	and    $0x7,%ecx
  802e13:	b8 01 00 00 00       	mov    $0x1,%eax
  802e18:	d3 e0                	shl    %cl,%eax
  802e1a:	f7 d0                	not    %eax
  802e1c:	20 04 16             	and    %al,(%rsi,%rdx,1)
  else         bitstream[(*bitpointer) >> 3u] |=  (1u << (7u - ((*bitpointer) & 7u)));
  ++(*bitpointer);
  802e1f:	48 83 07 01          	addq   $0x1,(%rdi)
}
  802e23:	c3                   	ret    
  else         bitstream[(*bitpointer) >> 3u] |=  (1u << (7u - ((*bitpointer) & 7u)));
  802e24:	48 8b 0f             	mov    (%rdi),%rcx
  802e27:	48 89 ca             	mov    %rcx,%rdx
  802e2a:	48 c1 ea 03          	shr    $0x3,%rdx
  802e2e:	f7 d1                	not    %ecx
  802e30:	83 e1 07             	and    $0x7,%ecx
  802e33:	b8 01 00 00 00       	mov    $0x1,%eax
  802e38:	d3 e0                	shl    %cl,%eax
  802e3a:	08 04 16             	or     %al,(%rsi,%rdx,1)
  802e3d:	eb e0                	jmp    802e1f <setBitOfReversedStream+0x1f>

0000000000802e3f <checkColorValidity>:
/* / Color types, channels, bits                                            / */
/* ////////////////////////////////////////////////////////////////////////// */

/*checks if the colortype is valid and the bitdepth bd is allowed for this colortype.
Return value is a LodePNG error code.*/
static unsigned checkColorValidity(LodePNGColorType colortype, unsigned bd) {
  802e3f:	89 f1                	mov    %esi,%ecx
  switch(colortype) {
  802e41:	83 ff 06             	cmp    $0x6,%edi
  802e44:	77 77                	ja     802ebd <checkColorValidity+0x7e>
  802e46:	89 f8                	mov    %edi,%eax
  802e48:	48 ba 20 1b 81 00 00 	movabs $0x811b20,%rdx
  802e4f:	00 00 00 
  802e52:	ff 24 c2             	jmp    *(%rdx,%rax,8)
    case LCT_GREY:       if(!(bd == 1 || bd == 2 || bd == 4 || bd == 8 || bd == 16)) return 37; break;
  802e55:	b8 25 00 00 00       	mov    $0x25,%eax
  802e5a:	83 fe 10             	cmp    $0x10,%esi
  802e5d:	77 39                	ja     802e98 <checkColorValidity+0x59>
  802e5f:	b8 16 01 01 00       	mov    $0x10116,%eax
  802e64:	48 d3 e8             	shr    %cl,%rax
  802e67:	a8 01                	test   $0x1,%al
  802e69:	b8 25 00 00 00       	mov    $0x25,%eax
  802e6e:	0f 45 c7             	cmovne %edi,%eax
  802e71:	c3                   	ret    
    case LCT_RGB:        if(!(                                 bd == 8 || bd == 16)) return 37; break;
  802e72:	8d 46 f8             	lea    -0x8(%rsi),%eax
  802e75:	83 e0 f7             	and    $0xfffffff7,%eax
  802e78:	ba 25 00 00 00       	mov    $0x25,%edx
  802e7d:	0f 45 c2             	cmovne %edx,%eax
  802e80:	c3                   	ret    
    case LCT_PALETTE:    if(!(bd == 1 || bd == 2 || bd == 4 || bd == 8            )) return 37; break;
  802e81:	8d 46 fc             	lea    -0x4(%rsi),%eax
  802e84:	a9 fb ff ff ff       	test   $0xfffffffb,%eax
  802e89:	74 08                	je     802e93 <checkColorValidity+0x54>
  802e8b:	8d 46 ff             	lea    -0x1(%rsi),%eax
  802e8e:	83 f8 01             	cmp    $0x1,%eax
  802e91:	77 06                	ja     802e99 <checkColorValidity+0x5a>
    case LCT_GREY_ALPHA: if(!(                                 bd == 8 || bd == 16)) return 37; break;
    case LCT_RGBA:       if(!(                                 bd == 8 || bd == 16)) return 37; break;
    case LCT_MAX_OCTET_VALUE: return 31; /* invalid color type */
    default: return 31; /* invalid color type */
  }
  return 0; /*allowed color type / bits combination*/
  802e93:	b8 00 00 00 00       	mov    $0x0,%eax
}
  802e98:	c3                   	ret    
    case LCT_PALETTE:    if(!(bd == 1 || bd == 2 || bd == 4 || bd == 8            )) return 37; break;
  802e99:	b8 25 00 00 00       	mov    $0x25,%eax
  802e9e:	c3                   	ret    
    case LCT_GREY_ALPHA: if(!(                                 bd == 8 || bd == 16)) return 37; break;
  802e9f:	8d 46 f8             	lea    -0x8(%rsi),%eax
  802ea2:	83 e0 f7             	and    $0xfffffff7,%eax
  802ea5:	ba 25 00 00 00       	mov    $0x25,%edx
  802eaa:	0f 45 c2             	cmovne %edx,%eax
  802ead:	c3                   	ret    
    case LCT_RGBA:       if(!(                                 bd == 8 || bd == 16)) return 37; break;
  802eae:	8d 46 f8             	lea    -0x8(%rsi),%eax
  802eb1:	83 e0 f7             	and    $0xfffffff7,%eax
  802eb4:	ba 25 00 00 00       	mov    $0x25,%edx
  802eb9:	0f 45 c2             	cmovne %edx,%eax
  802ebc:	c3                   	ret    
  switch(colortype) {
  802ebd:	b8 1f 00 00 00       	mov    $0x1f,%eax
  802ec2:	c3                   	ret    

0000000000802ec3 <getNumColorChannels>:
    case LCT_RGB: return 3;
    case LCT_PALETTE: return 1;
    case LCT_GREY_ALPHA: return 2;
    case LCT_RGBA: return 4;
    case LCT_MAX_OCTET_VALUE: return 0; /* invalid color type */
    default: return 0; /*invalid color type*/
  802ec3:	b8 00 00 00 00       	mov    $0x0,%eax
  switch(colortype) {
  802ec8:	83 ff 06             	cmp    $0x6,%edi
  802ecb:	77 2e                	ja     802efb <getNumColorChannels+0x38>
  802ecd:	77 21                	ja     802ef0 <getNumColorChannels+0x2d>
  802ecf:	89 ff                	mov    %edi,%edi
  802ed1:	48 b8 58 1b 81 00 00 	movabs $0x811b58,%rax
  802ed8:	00 00 00 
  802edb:	ff 24 f8             	jmp    *(%rax,%rdi,8)
  802ede:	b8 03 00 00 00       	mov    $0x3,%eax
  802ee3:	c3                   	ret    
    case LCT_GREY_ALPHA: return 2;
  802ee4:	b8 02 00 00 00       	mov    $0x2,%eax
  802ee9:	c3                   	ret    
    case LCT_RGBA: return 4;
  802eea:	b8 04 00 00 00       	mov    $0x4,%eax
  802eef:	c3                   	ret    
    default: return 0; /*invalid color type*/
  802ef0:	b8 00 00 00 00       	mov    $0x0,%eax
  802ef5:	c3                   	ret    
    case LCT_GREY: return 1;
  802ef6:	b8 01 00 00 00       	mov    $0x1,%eax
  }
}
  802efb:	c3                   	ret    

0000000000802efc <lodepng_color_mode_equal>:
  return result;
}

static int lodepng_color_mode_equal(const LodePNGColorMode* a, const LodePNGColorMode* b) {
  size_t i;
  if(a->colortype != b->colortype) return 0;
  802efc:	b8 00 00 00 00       	mov    $0x0,%eax
  802f01:	8b 0e                	mov    (%rsi),%ecx
  802f03:	39 0f                	cmp    %ecx,(%rdi)
  802f05:	75 72                	jne    802f79 <lodepng_color_mode_equal+0x7d>
  if(a->bitdepth != b->bitdepth) return 0;
  802f07:	8b 56 04             	mov    0x4(%rsi),%edx
  802f0a:	39 57 04             	cmp    %edx,0x4(%rdi)
  802f0d:	75 6a                	jne    802f79 <lodepng_color_mode_equal+0x7d>
  if(a->key_defined != b->key_defined) return 0;
  802f0f:	8b 57 18             	mov    0x18(%rdi),%edx
  802f12:	3b 56 18             	cmp    0x18(%rsi),%edx
  802f15:	75 62                	jne    802f79 <lodepng_color_mode_equal+0x7d>
  if(a->key_defined) {
  802f17:	85 d2                	test   %edx,%edx
  802f19:	74 18                	je     802f33 <lodepng_color_mode_equal+0x37>
    if(a->key_r != b->key_r) return 0;
  802f1b:	8b 56 1c             	mov    0x1c(%rsi),%edx
  802f1e:	39 57 1c             	cmp    %edx,0x1c(%rdi)
  802f21:	75 56                	jne    802f79 <lodepng_color_mode_equal+0x7d>
    if(a->key_g != b->key_g) return 0;
  802f23:	8b 56 20             	mov    0x20(%rsi),%edx
  802f26:	39 57 20             	cmp    %edx,0x20(%rdi)
  802f29:	75 4e                	jne    802f79 <lodepng_color_mode_equal+0x7d>
    if(a->key_b != b->key_b) return 0;
  802f2b:	8b 56 24             	mov    0x24(%rsi),%edx
  802f2e:	39 57 24             	cmp    %edx,0x24(%rdi)
  802f31:	75 46                	jne    802f79 <lodepng_color_mode_equal+0x7d>
  }
  if(a->palettesize != b->palettesize) return 0;
  802f33:	48 8b 57 10          	mov    0x10(%rdi),%rdx
  802f37:	b8 00 00 00 00       	mov    $0x0,%eax
  802f3c:	48 3b 56 10          	cmp    0x10(%rsi),%rdx
  802f40:	75 37                	jne    802f79 <lodepng_color_mode_equal+0x7d>
  for(i = 0; i != a->palettesize * 4; ++i) {
  802f42:	48 c1 e2 02          	shl    $0x2,%rdx
  802f46:	74 26                	je     802f6e <lodepng_color_mode_equal+0x72>
    if(a->palette[i] != b->palette[i]) return 0;
  802f48:	48 8b 7f 08          	mov    0x8(%rdi),%rdi
  802f4c:	48 8b 4e 08          	mov    0x8(%rsi),%rcx
  for(i = 0; i != a->palettesize * 4; ++i) {
  802f50:	b8 00 00 00 00       	mov    $0x0,%eax
    if(a->palette[i] != b->palette[i]) return 0;
  802f55:	0f b6 34 01          	movzbl (%rcx,%rax,1),%esi
  802f59:	40 38 34 07          	cmp    %sil,(%rdi,%rax,1)
  802f5d:	75 15                	jne    802f74 <lodepng_color_mode_equal+0x78>
  for(i = 0; i != a->palettesize * 4; ++i) {
  802f5f:	48 83 c0 01          	add    $0x1,%rax
  802f63:	48 39 d0             	cmp    %rdx,%rax
  802f66:	75 ed                	jne    802f55 <lodepng_color_mode_equal+0x59>
  }
  return 1;
  802f68:	b8 01 00 00 00       	mov    $0x1,%eax
  802f6d:	c3                   	ret    
  802f6e:	b8 01 00 00 00       	mov    $0x1,%eax
  802f73:	c3                   	ret    
    if(a->palette[i] != b->palette[i]) return 0;
  802f74:	b8 00 00 00 00       	mov    $0x0,%eax
}
  802f79:	c3                   	ret    

0000000000802f7a <lodepng_get_raw_size_idat>:
and in addition has one extra byte per line: the filter byte. So this gives a larger
result than lodepng_get_raw_size. Set h to 1 to get the size of 1 row including filter byte. */
static size_t lodepng_get_raw_size_idat(unsigned w, unsigned h, unsigned bpp) {
  /* + 1 for the filter byte, and possibly plus padding bits per line. */
  /* Ignoring casts, the expression is equal to (w * bpp + 7) / 8 + 1, but avoids overflow of w * bpp */
  size_t line = ((size_t)(w / 8u) * bpp) + 1u + ((w & 7u) * bpp + 7u) / 8u;
  802f7a:	89 f8                	mov    %edi,%eax
  802f7c:	83 e0 07             	and    $0x7,%eax
  802f7f:	0f af c2             	imul   %edx,%eax
  802f82:	83 c0 07             	add    $0x7,%eax
  802f85:	c1 e8 03             	shr    $0x3,%eax
  802f88:	89 c0                	mov    %eax,%eax
  802f8a:	c1 ef 03             	shr    $0x3,%edi
  802f8d:	89 ff                	mov    %edi,%edi
  802f8f:	89 d2                	mov    %edx,%edx
  802f91:	48 0f af fa          	imul   %rdx,%rdi
  802f95:	48 8d 44 38 01       	lea    0x1(%rax,%rdi,1),%rax
  return (size_t)h * line;
  802f9a:	89 f6                	mov    %esi,%esi
  802f9c:	48 0f af c6          	imul   %rsi,%rax
}
  802fa0:	c3                   	ret    

0000000000802fa1 <LodePNGUnknownChunks_init>:

#ifdef LODEPNG_COMPILE_ANCILLARY_CHUNKS

static void LodePNGUnknownChunks_init(LodePNGInfo* info) {
  unsigned i;
  for(i = 0; i != 3; ++i) info->unknown_chunks_data[i] = 0;
  802fa1:	48 c7 87 08 01 00 00 	movq   $0x0,0x108(%rdi)
  802fa8:	00 00 00 00 
  802fac:	48 c7 87 10 01 00 00 	movq   $0x0,0x110(%rdi)
  802fb3:	00 00 00 00 
  802fb7:	48 c7 87 18 01 00 00 	movq   $0x0,0x118(%rdi)
  802fbe:	00 00 00 00 
  for(i = 0; i != 3; ++i) info->unknown_chunks_size[i] = 0;
  802fc2:	48 c7 87 20 01 00 00 	movq   $0x0,0x120(%rdi)
  802fc9:	00 00 00 00 
  802fcd:	48 c7 87 28 01 00 00 	movq   $0x0,0x128(%rdi)
  802fd4:	00 00 00 00 
  802fd8:	48 c7 87 30 01 00 00 	movq   $0x0,0x130(%rdi)
  802fdf:	00 00 00 00 
}
  802fe3:	c3                   	ret    

0000000000802fe4 <addColorBits>:
}

/* ////////////////////////////////////////////////////////////////////////// */

/*index: bitgroup index, bits: bitgroup size(1, 2 or 4), in: bitgroup value, out: octet array to add bits to*/
static void addColorBits(unsigned char* out, size_t index, unsigned bits, unsigned in) {
  802fe4:	49 89 f8             	mov    %rdi,%r8
  802fe7:	49 89 f1             	mov    %rsi,%r9
  802fea:	41 89 ca             	mov    %ecx,%r10d
  unsigned m = bits == 1 ? 7 : bits == 2 ? 3 : 1; /*8 / bits - 1*/
  802fed:	bf 07 00 00 00       	mov    $0x7,%edi
  802ff2:	83 fa 01             	cmp    $0x1,%edx
  802ff5:	74 0f                	je     803006 <addColorBits+0x22>
  802ff7:	83 fa 02             	cmp    $0x2,%edx
  802ffa:	40 0f 94 c7          	sete   %dil
  802ffe:	40 0f b6 ff          	movzbl %dil,%edi
  803002:	8d 7c 3f 01          	lea    0x1(%rdi,%rdi,1),%edi
  /*p = the partial index in the byte, e.g. with 4 palettebits it is 0 for first half or 1 for second half*/
  unsigned p = index & m;
  803006:	41 89 fb             	mov    %edi,%r11d
  803009:	45 21 cb             	and    %r9d,%r11d
  in &= (1u << bits) - 1u; /*filter out any other bits of the input value*/
  80300c:	be ff ff ff ff       	mov    $0xffffffff,%esi
  803011:	89 f0                	mov    %esi,%eax
  803013:	89 d1                	mov    %edx,%ecx
  803015:	d3 e0                	shl    %cl,%eax
  803017:	f7 d0                	not    %eax
  803019:	44 21 d0             	and    %r10d,%eax
  in = in << (bits * (m - p));
  80301c:	44 29 df             	sub    %r11d,%edi
  80301f:	89 f9                	mov    %edi,%ecx
  803021:	0f af ca             	imul   %edx,%ecx
  803024:	d3 e0                	shl    %cl,%eax
  if(p == 0) out[index * bits / 8u] = in;
  803026:	45 85 db             	test   %r11d,%r11d
  803029:	75 0f                	jne    80303a <addColorBits+0x56>
  80302b:	89 d2                	mov    %edx,%edx
  80302d:	49 0f af d1          	imul   %r9,%rdx
  803031:	48 c1 ea 03          	shr    $0x3,%rdx
  803035:	41 88 04 10          	mov    %al,(%r8,%rdx,1)
  803039:	c3                   	ret    
  else out[index * bits / 8u] |= in;
  80303a:	89 d2                	mov    %edx,%edx
  80303c:	49 0f af d1          	imul   %r9,%rdx
  803040:	48 c1 ea 03          	shr    $0x3,%rdx
  803044:	41 08 04 10          	or     %al,(%r8,%rdx,1)
}
  803048:	c3                   	ret    

0000000000803049 <color_tree_get>:
    }
  }
}

/*returns -1 if color not present, its index otherwise*/
static int color_tree_get(ColorTree* tree, unsigned char r, unsigned char g, unsigned char b, unsigned char a) {
  803049:	41 89 f1             	mov    %esi,%r9d
  80304c:	89 d6                	mov    %edx,%esi
  80304e:	89 ca                	mov    %ecx,%edx
  int bit = 0;
  for(bit = 0; bit < 8; ++bit) {
  803050:	b9 00 00 00 00       	mov    $0x0,%ecx
    int i = 8 * ((r >> bit) & 1) + 4 * ((g >> bit) & 1) + 2 * ((b >> bit) & 1) + 1 * ((a >> bit) & 1);
  803055:	45 0f b6 c9          	movzbl %r9b,%r9d
  803059:	40 0f b6 f6          	movzbl %sil,%esi
  80305d:	0f b6 d2             	movzbl %dl,%edx
  803060:	45 0f b6 c0          	movzbl %r8b,%r8d
  803064:	45 89 ca             	mov    %r9d,%r10d
  803067:	41 d3 fa             	sar    %cl,%r10d
  80306a:	41 83 e2 01          	and    $0x1,%r10d
  80306e:	89 f0                	mov    %esi,%eax
  803070:	d3 f8                	sar    %cl,%eax
  803072:	83 e0 01             	and    $0x1,%eax
  803075:	46 8d 14 50          	lea    (%rax,%r10,2),%r10d
  803079:	89 d0                	mov    %edx,%eax
  80307b:	d3 f8                	sar    %cl,%eax
  80307d:	83 e0 01             	and    $0x1,%eax
  803080:	46 8d 14 50          	lea    (%rax,%r10,2),%r10d
  803084:	44 89 c0             	mov    %r8d,%eax
  803087:	d3 f8                	sar    %cl,%eax
  803089:	83 e0 01             	and    $0x1,%eax
  80308c:	42 8d 04 50          	lea    (%rax,%r10,2),%eax
    if(!tree->children[i]) return -1;
  803090:	48 98                	cltq   
  803092:	48 8b 3c c7          	mov    (%rdi,%rax,8),%rdi
  803096:	48 85 ff             	test   %rdi,%rdi
  803099:	74 0f                	je     8030aa <color_tree_get+0x61>
  for(bit = 0; bit < 8; ++bit) {
  80309b:	83 c1 01             	add    $0x1,%ecx
  80309e:	83 f9 08             	cmp    $0x8,%ecx
  8030a1:	75 c1                	jne    803064 <color_tree_get+0x1b>
    else tree = tree->children[i];
  }
  return tree ? tree->index : -1;
  8030a3:	8b 87 80 00 00 00    	mov    0x80(%rdi),%eax
  8030a9:	c3                   	ret    
    if(!tree->children[i]) return -1;
  8030aa:	b8 ff ff ff ff       	mov    $0xffffffff,%eax
}
  8030af:	c3                   	ret    

00000000008030b0 <getPixelColorRGBA8>:

/*Get RGBA8 color of pixel with index i (y * width + x) from the raw image with given color type.*/
static void getPixelColorRGBA8(unsigned char* r, unsigned char* g,
                               unsigned char* b, unsigned char* a,
                               const unsigned char* in, size_t i,
                               const LodePNGColorMode* mode) {
  8030b0:	55                   	push   %rbp
  8030b1:	48 89 e5             	mov    %rsp,%rbp
  8030b4:	41 57                	push   %r15
  8030b6:	41 56                	push   %r14
  8030b8:	41 55                	push   %r13
  8030ba:	41 54                	push   %r12
  8030bc:	53                   	push   %rbx
  8030bd:	48 83 ec 28          	sub    $0x28,%rsp
  8030c1:	49 89 fc             	mov    %rdi,%r12
  8030c4:	49 89 f5             	mov    %rsi,%r13
  8030c7:	49 89 d6             	mov    %rdx,%r14
  8030ca:	48 89 4d b8          	mov    %rcx,-0x48(%rbp)
  8030ce:	48 8b 5d 10          	mov    0x10(%rbp),%rbx
  if(mode->colortype == LCT_GREY) {
  8030d2:	8b 03                	mov    (%rbx),%eax
  8030d4:	85 c0                	test   %eax,%eax
  8030d6:	0f 85 e2 00 00 00    	jne    8031be <getPixelColorRGBA8+0x10e>
    if(mode->bitdepth == 8) {
  8030dc:	44 8b 7b 04          	mov    0x4(%rbx),%r15d
  8030e0:	41 83 ff 08          	cmp    $0x8,%r15d
  8030e4:	74 3c                	je     803122 <getPixelColorRGBA8+0x72>
      *r = *g = *b = in[i];
      if(mode->key_defined && *r == mode->key_r) *a = 0;
      else *a = 255;
    } else if(mode->bitdepth == 16) {
  8030e6:	41 83 ff 10          	cmp    $0x10,%r15d
  8030ea:	75 66                	jne    803152 <getPixelColorRGBA8+0xa2>
      *r = *g = *b = in[i * 2 + 0];
