
obj/fs/fs:     file format elf64-x86-64


Disassembly of section .text:

0000000000800000 <__text_start>:
.globl _start
_start:
    # See if we were started with arguments on the stack

#ifndef CONFIG_KSPACE
    movabs $USER_STACK_TOP, %rax
  800000:	48 b8 00 70 ff ff 7f 	movabs $0x7fffff7000,%rax
  800007:	00 00 00 
    cmpq %rax, %rsp
  80000a:	48 39 c4             	cmp    %rax,%rsp
    jne args_exist
  80000d:	75 04                	jne    800013 <args_exist>

    # If not, push dummy argc/argv arguments.
    # This happens when we are loaded by the kernel,
    # because the kernel does not know about passing arguments.
    # Marking argc and argv as zero.
    pushq $0
  80000f:	6a 00                	push   $0x0
    pushq $0
  800011:	6a 00                	push   $0x0

0000000000800013 <args_exist>:

args_exist:
    movq 8(%rsp), %rsi
  800013:	48 8b 74 24 08       	mov    0x8(%rsp),%rsi
    movq (%rsp), %rdi
  800018:	48 8b 3c 24          	mov    (%rsp),%rdi
    xorl %ebp, %ebp
  80001c:	31 ed                	xor    %ebp,%ebp
    call libmain
  80001e:	e8 d7 25 00 00       	call   8025fa <libmain>
    jmp .
  800023:	eb fe                	jmp    800023 <args_exist+0x10>

0000000000800025 <ide_wait_ready>:
}

static inline uint8_t __attribute__((always_inline))
inb(int port) {
    uint8_t data;
    asm volatile("inb %w1,%0"
  800025:	ba f7 01 00 00       	mov    $0x1f7,%edx
  80002a:	ec                   	in     (%dx),%al

static int
ide_wait_ready(bool check_error) {
    int r;

    while (((r = inb(0x1F7)) & (IDE_BSY | IDE_DRDY)) != IDE_DRDY) /* nothing */
  80002b:	89 c1                	mov    %eax,%ecx
  80002d:	83 e1 c0             	and    $0xffffffc0,%ecx
  800030:	80 f9 40             	cmp    $0x40,%cl
  800033:	75 f5                	jne    80002a <ide_wait_ready+0x5>
        ;

    if (check_error && (r & (IDE_DF | IDE_ERR)) != 0) return -1;
    return 0;
  800035:	ba 00 00 00 00       	mov    $0x0,%edx
    if (check_error && (r & (IDE_DF | IDE_ERR)) != 0) return -1;
  80003a:	40 84 ff             	test   %dil,%dil
  80003d:	74 0a                	je     800049 <ide_wait_ready+0x24>
  80003f:	a8 21                	test   $0x21,%al
  800041:	0f 95 c2             	setne  %dl
  800044:	0f b6 d2             	movzbl %dl,%edx
  800047:	f7 da                	neg    %edx
}
  800049:	89 d0                	mov    %edx,%eax
  80004b:	c3                   	ret    

000000000080004c <ide_probe_disk1>:

bool
ide_probe_disk1(void) {
  80004c:	55                   	push   %rbp
  80004d:	48 89 e5             	mov    %rsp,%rbp
  800050:	53                   	push   %rbx
  800051:	48 83 ec 08          	sub    $0x8,%rsp
    int x;

    /* Wait for Device 0 to be ready */
    ide_wait_ready(0);
  800055:	bf 00 00 00 00       	mov    $0x0,%edi
  80005a:	48 b8 25 00 80 00 00 	movabs $0x800025,%rax
  800061:	00 00 00 
  800064:	ff d0                	call   *%rax
                 : "memory", "cc");
}

static inline void __attribute__((always_inline))
outb(int port, uint8_t data) {
    asm volatile("outb %0,%w1" ::"a"(data), "d"(port));
  800066:	b8 f0 ff ff ff       	mov    $0xfffffff0,%eax
  80006b:	ba f6 01 00 00       	mov    $0x1f6,%edx
  800070:	ee                   	out    %al,(%dx)
    asm volatile("inb %w1,%0"
  800071:	ba f7 01 00 00       	mov    $0x1f7,%edx
  800076:	ec                   	in     (%dx),%al

    /* Switch to Device 1 */
    outb(0x1F6, 0xE0 | (1 << 4));

    /* Check for Device 1 to be ready for a while */
    for (x = 0; x < 1000 && (inb(0x1F7) & (IDE_BSY | IDE_DF | IDE_ERR)) != 0; x++) /* nothing */
  800077:	b9 01 00 00 00       	mov    $0x1,%ecx
  80007c:	a8 a1                	test   $0xa1,%al
  80007e:	74 4f                	je     8000cf <ide_probe_disk1+0x83>
  800080:	ec                   	in     (%dx),%al
  800081:	a8 a1                	test   $0xa1,%al
  800083:	74 0b                	je     800090 <ide_probe_disk1+0x44>
  800085:	83 c1 01             	add    $0x1,%ecx
  800088:	81 f9 e8 03 00 00    	cmp    $0x3e8,%ecx
  80008e:	75 f0                	jne    800080 <ide_probe_disk1+0x34>
    asm volatile("outb %0,%w1" ::"a"(data), "d"(port));
  800090:	b8 e0 ff ff ff       	mov    $0xffffffe0,%eax
  800095:	ba f6 01 00 00       	mov    $0x1f6,%edx
  80009a:	ee                   	out    %al,(%dx)
        ;

    /* Switch back to Device 0 */
    outb(0x1F6, 0xE0 | (0 << 4));

    cprintf("Device 1 presence: %d\n", (x < 1000));
  80009b:	81 f9 e7 03 00 00    	cmp    $0x3e7,%ecx
  8000a1:	0f 9e c3             	setle  %bl
  8000a4:	40 0f 9e c6          	setle  %sil
  8000a8:	40 0f b6 f6          	movzbl %sil,%esi
  8000ac:	48 bf 70 52 80 00 00 	movabs $0x805270,%rdi
  8000b3:	00 00 00 
  8000b6:	b8 00 00 00 00       	mov    $0x0,%eax
  8000bb:	48 ba 1b 28 80 00 00 	movabs $0x80281b,%rdx
  8000c2:	00 00 00 
  8000c5:	ff d2                	call   *%rdx
    return (x < 1000);
}
  8000c7:	89 d8                	mov    %ebx,%eax
  8000c9:	48 8b 5d f8          	mov    -0x8(%rbp),%rbx
  8000cd:	c9                   	leave  
  8000ce:	c3                   	ret    
    for (x = 0; x < 1000 && (inb(0x1F7) & (IDE_BSY | IDE_DF | IDE_ERR)) != 0; x++) /* nothing */
  8000cf:	b9 00 00 00 00       	mov    $0x0,%ecx
  8000d4:	eb ba                	jmp    800090 <ide_probe_disk1+0x44>

00000000008000d6 <ide_set_disk>:

void
ide_set_disk(int d) {
    if (d != 0 && d != 1)
  8000d6:	83 ff 01             	cmp    $0x1,%edi
  8000d9:	77 0c                	ja     8000e7 <ide_set_disk+0x11>
        panic("bad disk number");
    diskno = d;
  8000db:	89 f8                	mov    %edi,%eax
  8000dd:	a3 00 60 80 00 00 00 	movabs %eax,0x806000
  8000e4:	00 00 
  8000e6:	c3                   	ret    
ide_set_disk(int d) {
  8000e7:	55                   	push   %rbp
  8000e8:	48 89 e5             	mov    %rsp,%rbp
        panic("bad disk number");
  8000eb:	48 ba 87 52 80 00 00 	movabs $0x805287,%rdx
  8000f2:	00 00 00 
  8000f5:	be 34 00 00 00       	mov    $0x34,%esi
  8000fa:	48 bf 97 52 80 00 00 	movabs $0x805297,%rdi
  800101:	00 00 00 
  800104:	b8 00 00 00 00       	mov    $0x0,%eax
  800109:	48 b9 cb 26 80 00 00 	movabs $0x8026cb,%rcx
  800110:	00 00 00 
  800113:	ff d1                	call   *%rcx

0000000000800115 <ide_read>:
}

int
ide_read(uint32_t secno, void *dst, size_t nsecs) {
  800115:	55                   	push   %rbp
  800116:	48 89 e5             	mov    %rsp,%rbp
  800119:	41 55                	push   %r13
  80011b:	41 54                	push   %r12
  80011d:	53                   	push   %rbx
  80011e:	48 83 ec 08          	sub    $0x8,%rsp
    int r;

    assert(nsecs <= 256);
  800122:	48 81 fa 00 01 00 00 	cmp    $0x100,%rdx
  800129:	0f 87 c0 00 00 00    	ja     8001ef <ide_read+0xda>
  80012f:	41 89 fd             	mov    %edi,%r13d
  800132:	48 89 f3             	mov    %rsi,%rbx
  800135:	49 89 d4             	mov    %rdx,%r12

    ide_wait_ready(0);
  800138:	bf 00 00 00 00       	mov    $0x0,%edi
  80013d:	48 b8 25 00 80 00 00 	movabs $0x800025,%rax
  800144:	00 00 00 
  800147:	ff d0                	call   *%rax
  800149:	ba f2 01 00 00       	mov    $0x1f2,%edx
  80014e:	44 89 e0             	mov    %r12d,%eax
  800151:	ee                   	out    %al,(%dx)
  800152:	ba f3 01 00 00       	mov    $0x1f3,%edx
  800157:	44 89 e8             	mov    %r13d,%eax
  80015a:	ee                   	out    %al,(%dx)

    outb(0x1F2, nsecs);
    outb(0x1F3, secno & 0xFF);
    outb(0x1F4, (secno >> 8) & 0xFF);
  80015b:	44 89 e8             	mov    %r13d,%eax
  80015e:	c1 e8 08             	shr    $0x8,%eax
  800161:	ba f4 01 00 00       	mov    $0x1f4,%edx
  800166:	ee                   	out    %al,(%dx)
    outb(0x1F5, (secno >> 16) & 0xFF);
  800167:	44 89 e8             	mov    %r13d,%eax
  80016a:	c1 e8 10             	shr    $0x10,%eax
  80016d:	ba f5 01 00 00       	mov    $0x1f5,%edx
  800172:	ee                   	out    %al,(%dx)
    outb(0x1F6, 0xE0 | ((diskno & 1) << 4) | ((secno >> 24) & 0x0F));
  800173:	a1 00 60 80 00 00 00 	movabs 0x806000,%eax
  80017a:	00 00 
  80017c:	c1 e0 04             	shl    $0x4,%eax
  80017f:	83 e0 10             	and    $0x10,%eax
  800182:	41 c1 ed 18          	shr    $0x18,%r13d
  800186:	41 83 e5 0f          	and    $0xf,%r13d
  80018a:	44 09 e8             	or     %r13d,%eax
  80018d:	83 c8 e0             	or     $0xffffffe0,%eax
  800190:	ba f6 01 00 00       	mov    $0x1f6,%edx
  800195:	ee                   	out    %al,(%dx)
  800196:	b8 20 00 00 00       	mov    $0x20,%eax
  80019b:	ba f7 01 00 00       	mov    $0x1f7,%edx
  8001a0:	ee                   	out    %al,(%dx)
    outb(0x1F7, 0x20); /* CMD 0x20 means read sector */

    for (; nsecs > 0; nsecs--, dst += SECTSIZE) {
  8001a1:	4d 85 e4             	test   %r12,%r12
  8001a4:	74 7e                	je     800224 <ide_read+0x10f>
  8001a6:	49 c1 e4 09          	shl    $0x9,%r12
  8001aa:	49 01 dc             	add    %rbx,%r12
        if ((r = ide_wait_ready(1)) < 0) return r;
  8001ad:	49 bd 25 00 80 00 00 	movabs $0x800025,%r13
  8001b4:	00 00 00 
  8001b7:	bf 01 00 00 00       	mov    $0x1,%edi
  8001bc:	41 ff d5             	call   *%r13
  8001bf:	85 c0                	test   %eax,%eax
  8001c1:	78 21                	js     8001e4 <ide_read+0xcf>
    asm volatile("cld\n\trepne\n\tinsl"
  8001c3:	48 89 df             	mov    %rbx,%rdi
  8001c6:	b9 80 00 00 00       	mov    $0x80,%ecx
  8001cb:	ba f0 01 00 00       	mov    $0x1f0,%edx
  8001d0:	fc                   	cld    
  8001d1:	f2 6d                	repnz insl (%dx),%es:(%rdi)
    for (; nsecs > 0; nsecs--, dst += SECTSIZE) {
  8001d3:	48 81 c3 00 02 00 00 	add    $0x200,%rbx
  8001da:	49 39 dc             	cmp    %rbx,%r12
  8001dd:	75 d8                	jne    8001b7 <ide_read+0xa2>
        insl(0x1F0, dst, SECTSIZE / 4);
    }

    return 0;
  8001df:	b8 00 00 00 00       	mov    $0x0,%eax
}
  8001e4:	48 83 c4 08          	add    $0x8,%rsp
  8001e8:	5b                   	pop    %rbx
  8001e9:	41 5c                	pop    %r12
  8001eb:	41 5d                	pop    %r13
  8001ed:	5d                   	pop    %rbp
  8001ee:	c3                   	ret    
    assert(nsecs <= 256);
  8001ef:	48 b9 a0 52 80 00 00 	movabs $0x8052a0,%rcx
  8001f6:	00 00 00 
  8001f9:	48 ba ad 52 80 00 00 	movabs $0x8052ad,%rdx
  800200:	00 00 00 
  800203:	be 3c 00 00 00       	mov    $0x3c,%esi
  800208:	48 bf 97 52 80 00 00 	movabs $0x805297,%rdi
  80020f:	00 00 00 
  800212:	b8 00 00 00 00       	mov    $0x0,%eax
  800217:	49 b8 cb 26 80 00 00 	movabs $0x8026cb,%r8
  80021e:	00 00 00 
  800221:	41 ff d0             	call   *%r8
    return 0;
  800224:	b8 00 00 00 00       	mov    $0x0,%eax
  800229:	eb b9                	jmp    8001e4 <ide_read+0xcf>

000000000080022b <ide_write>:

int
ide_write(uint32_t secno, const void *src, size_t nsecs) {
  80022b:	55                   	push   %rbp
  80022c:	48 89 e5             	mov    %rsp,%rbp
  80022f:	41 55                	push   %r13
  800231:	41 54                	push   %r12
  800233:	53                   	push   %rbx
  800234:	48 83 ec 08          	sub    $0x8,%rsp
    int r;

    assert(nsecs <= 256);
  800238:	48 81 fa 00 01 00 00 	cmp    $0x100,%rdx
  80023f:	0f 87 c0 00 00 00    	ja     800305 <ide_write+0xda>
  800245:	41 89 fd             	mov    %edi,%r13d
  800248:	48 89 f3             	mov    %rsi,%rbx
  80024b:	49 89 d4             	mov    %rdx,%r12

    ide_wait_ready(0);
  80024e:	bf 00 00 00 00       	mov    $0x0,%edi
  800253:	48 b8 25 00 80 00 00 	movabs $0x800025,%rax
  80025a:	00 00 00 
  80025d:	ff d0                	call   *%rax
    asm volatile("outb %0,%w1" ::"a"(data), "d"(port));
  80025f:	ba f2 01 00 00       	mov    $0x1f2,%edx
  800264:	44 89 e0             	mov    %r12d,%eax
  800267:	ee                   	out    %al,(%dx)
  800268:	ba f3 01 00 00       	mov    $0x1f3,%edx
  80026d:	44 89 e8             	mov    %r13d,%eax
  800270:	ee                   	out    %al,(%dx)

    outb(0x1F2, nsecs);
    outb(0x1F3, secno & 0xFF);
    outb(0x1F4, (secno >> 8) & 0xFF);
  800271:	44 89 e8             	mov    %r13d,%eax
  800274:	c1 e8 08             	shr    $0x8,%eax
  800277:	ba f4 01 00 00       	mov    $0x1f4,%edx
  80027c:	ee                   	out    %al,(%dx)
    outb(0x1F5, (secno >> 16) & 0xFF);
  80027d:	44 89 e8             	mov    %r13d,%eax
  800280:	c1 e8 10             	shr    $0x10,%eax
  800283:	ba f5 01 00 00       	mov    $0x1f5,%edx
  800288:	ee                   	out    %al,(%dx)
    outb(0x1F6, 0xE0 | ((diskno & 1) << 4) | ((secno >> 24) & 0x0F));
  800289:	a1 00 60 80 00 00 00 	movabs 0x806000,%eax
  800290:	00 00 
  800292:	c1 e0 04             	shl    $0x4,%eax
  800295:	83 e0 10             	and    $0x10,%eax
  800298:	41 c1 ed 18          	shr    $0x18,%r13d
  80029c:	41 83 e5 0f          	and    $0xf,%r13d
  8002a0:	44 09 e8             	or     %r13d,%eax
  8002a3:	83 c8 e0             	or     $0xffffffe0,%eax
  8002a6:	ba f6 01 00 00       	mov    $0x1f6,%edx
  8002ab:	ee                   	out    %al,(%dx)
  8002ac:	b8 30 00 00 00       	mov    $0x30,%eax
  8002b1:	ba f7 01 00 00       	mov    $0x1f7,%edx
  8002b6:	ee                   	out    %al,(%dx)
    outb(0x1F7, 0x30); /* CMD 0x30 means write sector */

    for (; nsecs > 0; nsecs--, src += SECTSIZE) {
  8002b7:	4d 85 e4             	test   %r12,%r12
  8002ba:	74 7e                	je     80033a <ide_write+0x10f>
  8002bc:	49 c1 e4 09          	shl    $0x9,%r12
  8002c0:	49 01 dc             	add    %rbx,%r12
        if ((r = ide_wait_ready(1)) < 0) return r;
  8002c3:	49 bd 25 00 80 00 00 	movabs $0x800025,%r13
  8002ca:	00 00 00 
  8002cd:	bf 01 00 00 00       	mov    $0x1,%edi
  8002d2:	41 ff d5             	call   *%r13
  8002d5:	85 c0                	test   %eax,%eax
  8002d7:	78 21                	js     8002fa <ide_write+0xcf>
                 : "cc");
}

static inline void __attribute__((always_inline))
outsl(int port, const void *addr, int cnt) {
    asm volatile("cld\n\trepne\n\toutsl"
  8002d9:	48 89 de             	mov    %rbx,%rsi
  8002dc:	b9 80 00 00 00       	mov    $0x80,%ecx
  8002e1:	ba f0 01 00 00       	mov    $0x1f0,%edx
  8002e6:	fc                   	cld    
  8002e7:	f2 6f                	repnz outsl %ds:(%rsi),(%dx)
    for (; nsecs > 0; nsecs--, src += SECTSIZE) {
  8002e9:	48 81 c3 00 02 00 00 	add    $0x200,%rbx
  8002f0:	49 39 dc             	cmp    %rbx,%r12
  8002f3:	75 d8                	jne    8002cd <ide_write+0xa2>
        outsl(0x1F0, src, SECTSIZE / 4);
    }

    return 0;
  8002f5:	b8 00 00 00 00       	mov    $0x0,%eax
}
  8002fa:	48 83 c4 08          	add    $0x8,%rsp
  8002fe:	5b                   	pop    %rbx
  8002ff:	41 5c                	pop    %r12
  800301:	41 5d                	pop    %r13
  800303:	5d                   	pop    %rbp
  800304:	c3                   	ret    
    assert(nsecs <= 256);
  800305:	48 b9 a0 52 80 00 00 	movabs $0x8052a0,%rcx
  80030c:	00 00 00 
  80030f:	48 ba ad 52 80 00 00 	movabs $0x8052ad,%rdx
  800316:	00 00 00 
  800319:	be 53 00 00 00       	mov    $0x53,%esi
  80031e:	48 bf 97 52 80 00 00 	movabs $0x805297,%rdi
  800325:	00 00 00 
  800328:	b8 00 00 00 00       	mov    $0x0,%eax
  80032d:	49 b8 cb 26 80 00 00 	movabs $0x8026cb,%r8
  800334:	00 00 00 
  800337:	41 ff d0             	call   *%r8
    return 0;
  80033a:	b8 00 00 00 00       	mov    $0x0,%eax
  80033f:	eb b9                	jmp    8002fa <ide_write+0xcf>

0000000000800341 <bc_pgfault>:

/* Fault any disk block that is read in to memory by
 * loading it from disk. */
static bool
bc_pgfault(struct UTrapframe *utf) {
    void *addr = (void *)utf->utf_fault_va;
  800341:	48 8b 17             	mov    (%rdi),%rdx
    blockno_t blockno = ((uintptr_t)addr - (uintptr_t)DISKMAP) / BLKSIZE;
  800344:	48 8d ba 00 00 00 f0 	lea    -0x10000000(%rdx),%rdi

    /* Check that the fault was within the block cache region */
    if (addr < (void *)DISKMAP || addr >= (void *)(DISKMAP + DISKSIZE)) return 0;
  80034b:	b8 ff ff ff bf       	mov    $0xbfffffff,%eax
  800350:	48 39 c7             	cmp    %rax,%rdi
  800353:	0f 87 02 01 00 00    	ja     80045b <bc_pgfault+0x11a>
bc_pgfault(struct UTrapframe *utf) {
  800359:	55                   	push   %rbp
  80035a:	48 89 e5             	mov    %rsp,%rbp
  80035d:	41 54                	push   %r12
  80035f:	53                   	push   %rbx
    blockno_t blockno = ((uintptr_t)addr - (uintptr_t)DISKMAP) / BLKSIZE;
  800360:	48 89 fb             	mov    %rdi,%rbx
  800363:	48 c1 eb 0c          	shr    $0xc,%rbx

    /* Sanity check the block number. */
    if (super && blockno >= super->s_nblocks)
  800367:	48 a1 08 b0 80 00 00 	movabs 0x80b008,%rax
  80036e:	00 00 00 
  800371:	48 85 c0             	test   %rax,%rax
  800374:	74 09                	je     80037f <bc_pgfault+0x3e>
  800376:	44 8b 40 04          	mov    0x4(%rax),%r8d
  80037a:	41 39 d8             	cmp    %ebx,%r8d
  80037d:	76 55                	jbe    8003d4 <bc_pgfault+0x93>
    /* Allocate a page in the disk map region, read the contents
     * of the block from the disk into that page.
     * Hint: first round addr to page boundary. fs/ide.c has code to read
     * the disk. */
    // LAB 10: Your code here
    addr = ROUNDDOWN(addr, PAGE_SIZE);
  80037f:	48 81 e2 00 f0 ff ff 	and    $0xfffffffffffff000,%rdx
  800386:	49 89 d4             	mov    %rdx,%r12
    int res = sys_alloc_region(CURENVID, addr, PAGE_SIZE, PTE_U | PTE_P | PTE_W); 
  800389:	b9 07 00 00 00       	mov    $0x7,%ecx
  80038e:	ba 00 10 00 00       	mov    $0x1000,%edx
  800393:	4c 89 e6             	mov    %r12,%rsi
  800396:	bf 00 00 00 00       	mov    $0x0,%edi
  80039b:	48 b8 16 37 80 00 00 	movabs $0x803716,%rax
  8003a2:	00 00 00 
  8003a5:	ff d0                	call   *%rax
    if (res < 0)
  8003a7:	85 c0                	test   %eax,%eax
  8003a9:	78 56                	js     800401 <bc_pgfault+0xc0>
        panic("sys_alloc_region: %i", res);
    res = ide_read(blockno * BLKSECTS, addr, BLKSECTS);
  8003ab:	8d 3c dd 00 00 00 00 	lea    0x0(,%rbx,8),%edi
  8003b2:	ba 08 00 00 00       	mov    $0x8,%edx
  8003b7:	4c 89 e6             	mov    %r12,%rsi
  8003ba:	48 b8 15 01 80 00 00 	movabs $0x800115,%rax
  8003c1:	00 00 00 
  8003c4:	ff d0                	call   *%rax
    if (res < 0)
  8003c6:	85 c0                	test   %eax,%eax
  8003c8:	78 64                	js     80042e <bc_pgfault+0xed>
        panic("ide_read: %i\n", res);
    return 1;
  8003ca:	b8 01 00 00 00       	mov    $0x1,%eax
}
  8003cf:	5b                   	pop    %rbx
  8003d0:	41 5c                	pop    %r12
  8003d2:	5d                   	pop    %rbp
  8003d3:	c3                   	ret    
        panic("reading non-existent block %08x out of %08x\n", blockno, super->s_nblocks);
  8003d4:	89 d9                	mov    %ebx,%ecx
  8003d6:	48 ba c8 52 80 00 00 	movabs $0x8052c8,%rdx
  8003dd:	00 00 00 
  8003e0:	be 1c 00 00 00       	mov    $0x1c,%esi
  8003e5:	48 bf 44 53 80 00 00 	movabs $0x805344,%rdi
  8003ec:	00 00 00 
  8003ef:	b8 00 00 00 00       	mov    $0x0,%eax
  8003f4:	49 b9 cb 26 80 00 00 	movabs $0x8026cb,%r9
  8003fb:	00 00 00 
  8003fe:	41 ff d1             	call   *%r9
        panic("sys_alloc_region: %i", res);
  800401:	89 c1                	mov    %eax,%ecx
  800403:	48 ba 4c 53 80 00 00 	movabs $0x80534c,%rdx
  80040a:	00 00 00 
  80040d:	be 26 00 00 00       	mov    $0x26,%esi
  800412:	48 bf 44 53 80 00 00 	movabs $0x805344,%rdi
  800419:	00 00 00 
  80041c:	b8 00 00 00 00       	mov    $0x0,%eax
  800421:	49 b8 cb 26 80 00 00 	movabs $0x8026cb,%r8
  800428:	00 00 00 
  80042b:	41 ff d0             	call   *%r8
        panic("ide_read: %i\n", res);
  80042e:	89 c1                	mov    %eax,%ecx
  800430:	48 ba 61 53 80 00 00 	movabs $0x805361,%rdx
  800437:	00 00 00 
  80043a:	be 29 00 00 00       	mov    $0x29,%esi
  80043f:	48 bf 44 53 80 00 00 	movabs $0x805344,%rdi
  800446:	00 00 00 
  800449:	b8 00 00 00 00       	mov    $0x0,%eax
  80044e:	49 b8 cb 26 80 00 00 	movabs $0x8026cb,%r8
  800455:	00 00 00 
  800458:	41 ff d0             	call   *%r8
    if (addr < (void *)DISKMAP || addr >= (void *)(DISKMAP + DISKSIZE)) return 0;
  80045b:	b8 00 00 00 00       	mov    $0x0,%eax
}
  800460:	c3                   	ret    

0000000000800461 <diskaddr>:
    if (blockno == 0 || (super && blockno >= super->s_nblocks))
  800461:	85 ff                	test   %edi,%edi
  800463:	74 21                	je     800486 <diskaddr+0x25>
  800465:	48 a1 08 b0 80 00 00 	movabs 0x80b008,%rax
  80046c:	00 00 00 
  80046f:	48 85 c0             	test   %rax,%rax
  800472:	74 05                	je     800479 <diskaddr+0x18>
  800474:	39 78 04             	cmp    %edi,0x4(%rax)
  800477:	76 0d                	jbe    800486 <diskaddr+0x25>
    void *r = (void *)(uintptr_t)(DISKMAP + blockno * BLKSIZE);
  800479:	89 f8                	mov    %edi,%eax
  80047b:	48 05 00 00 01 00    	add    $0x10000,%rax
  800481:	48 c1 e0 0c          	shl    $0xc,%rax
}
  800485:	c3                   	ret    
diskaddr(uint32_t blockno) {
  800486:	55                   	push   %rbp
  800487:	48 89 e5             	mov    %rsp,%rbp
        panic("bad block number %08x in diskaddr", blockno);
  80048a:	89 f9                	mov    %edi,%ecx
  80048c:	48 ba f8 52 80 00 00 	movabs $0x8052f8,%rdx
  800493:	00 00 00 
  800496:	be 08 00 00 00       	mov    $0x8,%esi
  80049b:	48 bf 44 53 80 00 00 	movabs $0x805344,%rdi
  8004a2:	00 00 00 
  8004a5:	b8 00 00 00 00       	mov    $0x0,%eax
  8004aa:	49 b8 cb 26 80 00 00 	movabs $0x8026cb,%r8
  8004b1:	00 00 00 
  8004b4:	41 ff d0             	call   *%r8

00000000008004b7 <flush_block>:
 * nothing.
 * Hint: Use is_page_present, is_page_dirty, and ide_write.
 * Hint: Use the PTE_SYSCALL constant when calling sys_page_map.
 * Hint: Don't forget to round addr down. */
void
flush_block(void *addr) {
  8004b7:	55                   	push   %rbp
  8004b8:	48 89 e5             	mov    %rsp,%rbp
  8004bb:	41 54                	push   %r12
  8004bd:	53                   	push   %rbx
  8004be:	48 89 fb             	mov    %rdi,%rbx
    blockno_t blockno = ((uintptr_t)addr - (uintptr_t)DISKMAP) / BLKSIZE;
  8004c1:	48 8d 87 00 00 00 f0 	lea    -0x10000000(%rdi),%rax
  8004c8:	49 89 c4             	mov    %rax,%r12
  8004cb:	49 c1 ec 0c          	shr    $0xc,%r12

    if (addr < (void *)(uintptr_t)DISKMAP || addr >= (void *)(uintptr_t)(DISKMAP + DISKSIZE))
  8004cf:	ba ff ff ff bf       	mov    $0xbfffffff,%edx
  8004d4:	48 39 d0             	cmp    %rdx,%rax
  8004d7:	77 3c                	ja     800515 <flush_block+0x5e>
        panic("flush_block of bad va %p", addr);
    if (blockno && super && blockno >= super->s_nblocks)
  8004d9:	45 85 e4             	test   %r12d,%r12d
  8004dc:	74 18                	je     8004f6 <flush_block+0x3f>
  8004de:	48 a1 08 b0 80 00 00 	movabs 0x80b008,%rax
  8004e5:	00 00 00 
  8004e8:	48 85 c0             	test   %rax,%rax
  8004eb:	74 09                	je     8004f6 <flush_block+0x3f>
  8004ed:	44 8b 40 04          	mov    0x4(%rax),%r8d
  8004f1:	45 39 e0             	cmp    %r12d,%r8d
  8004f4:	76 4d                	jbe    800543 <flush_block+0x8c>
        panic("reading non-existent block %08x out of %08x\n", blockno, super->s_nblocks);

    // LAB 10: Your code here.
    addr = ROUNDDOWN(addr, PAGE_SIZE);
  8004f6:	48 81 e3 00 f0 ff ff 	and    $0xfffffffffffff000,%rbx
    
    if (!is_page_present(addr) || !is_page_dirty(addr))
  8004fd:	48 89 df             	mov    %rbx,%rdi
  800500:	48 b8 49 4f 80 00 00 	movabs $0x804f49,%rax
  800507:	00 00 00 
  80050a:	ff d0                	call   *%rax
  80050c:	84 c0                	test   %al,%al
  80050e:	75 61                	jne    800571 <flush_block+0xba>
        panic("ide_write: %i", res);
    res = sys_map_region(CURENVID, addr, CURENVID, addr, BLKSIZE, get_uvpt_entry(addr) & PTE_SYSCALL);
    if (res < 0)
        panic("sys_map_region: %i", res);
    assert(!is_page_dirty(addr));
}
  800510:	5b                   	pop    %rbx
  800511:	41 5c                	pop    %r12
  800513:	5d                   	pop    %rbp
  800514:	c3                   	ret    
        panic("flush_block of bad va %p", addr);
  800515:	48 89 f9             	mov    %rdi,%rcx
  800518:	48 ba 6f 53 80 00 00 	movabs $0x80536f,%rdx
  80051f:	00 00 00 
  800522:	be 39 00 00 00       	mov    $0x39,%esi
  800527:	48 bf 44 53 80 00 00 	movabs $0x805344,%rdi
  80052e:	00 00 00 
  800531:	b8 00 00 00 00       	mov    $0x0,%eax
  800536:	49 b8 cb 26 80 00 00 	movabs $0x8026cb,%r8
  80053d:	00 00 00 
  800540:	41 ff d0             	call   *%r8
        panic("reading non-existent block %08x out of %08x\n", blockno, super->s_nblocks);
  800543:	44 89 e1             	mov    %r12d,%ecx
  800546:	48 ba c8 52 80 00 00 	movabs $0x8052c8,%rdx
  80054d:	00 00 00 
  800550:	be 3b 00 00 00       	mov    $0x3b,%esi
  800555:	48 bf 44 53 80 00 00 	movabs $0x805344,%rdi
  80055c:	00 00 00 
  80055f:	b8 00 00 00 00       	mov    $0x0,%eax
  800564:	49 b9 cb 26 80 00 00 	movabs $0x8026cb,%r9
  80056b:	00 00 00 
  80056e:	41 ff d1             	call   *%r9
    if (!is_page_present(addr) || !is_page_dirty(addr))
  800571:	48 89 df             	mov    %rbx,%rdi
  800574:	48 b8 30 4f 80 00 00 	movabs $0x804f30,%rax
  80057b:	00 00 00 
  80057e:	ff d0                	call   *%rax
  800580:	84 c0                	test   %al,%al
  800582:	74 8c                	je     800510 <flush_block+0x59>
    int res  = ide_write(blockno * BLKSECTS, addr, BLKSECTS);
  800584:	42 8d 3c e5 00 00 00 	lea    0x0(,%r12,8),%edi
  80058b:	00 
  80058c:	ba 08 00 00 00       	mov    $0x8,%edx
  800591:	48 89 de             	mov    %rbx,%rsi
  800594:	48 b8 2b 02 80 00 00 	movabs $0x80022b,%rax
  80059b:	00 00 00 
  80059e:	ff d0                	call   *%rax
    if (res < 0)
  8005a0:	85 c0                	test   %eax,%eax
  8005a2:	0f 88 8b 00 00 00    	js     800633 <flush_block+0x17c>
    res = sys_map_region(CURENVID, addr, CURENVID, addr, BLKSIZE, get_uvpt_entry(addr) & PTE_SYSCALL);
  8005a8:	48 89 df             	mov    %rbx,%rdi
  8005ab:	48 b8 36 4e 80 00 00 	movabs $0x804e36,%rax
  8005b2:	00 00 00 
  8005b5:	ff d0                	call   *%rax
  8005b7:	41 89 c1             	mov    %eax,%r9d
  8005ba:	41 81 e1 07 0e 00 00 	and    $0xe07,%r9d
  8005c1:	41 b8 00 10 00 00    	mov    $0x1000,%r8d
  8005c7:	48 89 d9             	mov    %rbx,%rcx
  8005ca:	ba 00 00 00 00       	mov    $0x0,%edx
  8005cf:	48 89 de             	mov    %rbx,%rsi
  8005d2:	bf 00 00 00 00       	mov    $0x0,%edi
  8005d7:	48 b8 7d 37 80 00 00 	movabs $0x80377d,%rax
  8005de:	00 00 00 
  8005e1:	ff d0                	call   *%rax
    if (res < 0)
  8005e3:	85 c0                	test   %eax,%eax
  8005e5:	78 79                	js     800660 <flush_block+0x1a9>
    assert(!is_page_dirty(addr));
  8005e7:	48 89 df             	mov    %rbx,%rdi
  8005ea:	48 b8 30 4f 80 00 00 	movabs $0x804f30,%rax
  8005f1:	00 00 00 
  8005f4:	ff d0                	call   *%rax
  8005f6:	84 c0                	test   %al,%al
  8005f8:	0f 84 12 ff ff ff    	je     800510 <flush_block+0x59>
  8005fe:	48 b9 a9 53 80 00 00 	movabs $0x8053a9,%rcx
  800605:	00 00 00 
  800608:	48 ba ad 52 80 00 00 	movabs $0x8052ad,%rdx
  80060f:	00 00 00 
  800612:	be 48 00 00 00       	mov    $0x48,%esi
  800617:	48 bf 44 53 80 00 00 	movabs $0x805344,%rdi
  80061e:	00 00 00 
  800621:	b8 00 00 00 00       	mov    $0x0,%eax
  800626:	49 b8 cb 26 80 00 00 	movabs $0x8026cb,%r8
  80062d:	00 00 00 
  800630:	41 ff d0             	call   *%r8
        panic("ide_write: %i", res);
  800633:	89 c1                	mov    %eax,%ecx
  800635:	48 ba 88 53 80 00 00 	movabs $0x805388,%rdx
  80063c:	00 00 00 
  80063f:	be 44 00 00 00       	mov    $0x44,%esi
  800644:	48 bf 44 53 80 00 00 	movabs $0x805344,%rdi
  80064b:	00 00 00 
  80064e:	b8 00 00 00 00       	mov    $0x0,%eax
  800653:	49 b8 cb 26 80 00 00 	movabs $0x8026cb,%r8
  80065a:	00 00 00 
  80065d:	41 ff d0             	call   *%r8
        panic("sys_map_region: %i", res);
  800660:	89 c1                	mov    %eax,%ecx
  800662:	48 ba 96 53 80 00 00 	movabs $0x805396,%rdx
  800669:	00 00 00 
  80066c:	be 47 00 00 00       	mov    $0x47,%esi
  800671:	48 bf 44 53 80 00 00 	movabs $0x805344,%rdi
  800678:	00 00 00 
  80067b:	b8 00 00 00 00       	mov    $0x0,%eax
  800680:	49 b8 cb 26 80 00 00 	movabs $0x8026cb,%r8
  800687:	00 00 00 
  80068a:	41 ff d0             	call   *%r8

000000000080068d <bc_init>:

    cprintf("block cache is good\n");
}

void
bc_init(void) {
  80068d:	55                   	push   %rbp
  80068e:	48 89 e5             	mov    %rsp,%rbp
  800691:	41 54                	push   %r12
  800693:	53                   	push   %rbx
  800694:	48 81 ec 10 02 00 00 	sub    $0x210,%rsp
    struct Super super;
    add_pgfault_handler(bc_pgfault);
  80069b:	48 bf 41 03 80 00 00 	movabs $0x800341,%rdi
  8006a2:	00 00 00 
  8006a5:	48 b8 05 3b 80 00 00 	movabs $0x803b05,%rax
  8006ac:	00 00 00 
  8006af:	ff d0                	call   *%rax
    memmove(&backup, diskaddr(1), sizeof backup);
  8006b1:	bf 01 00 00 00       	mov    $0x1,%edi
  8006b6:	48 bb 61 04 80 00 00 	movabs $0x800461,%rbx
  8006bd:	00 00 00 
  8006c0:	ff d3                	call   *%rbx
  8006c2:	48 89 c6             	mov    %rax,%rsi
  8006c5:	ba 08 01 00 00       	mov    $0x108,%edx
  8006ca:	48 8d bd e0 fd ff ff 	lea    -0x220(%rbp),%rdi
  8006d1:	48 b8 57 33 80 00 00 	movabs $0x803357,%rax
  8006d8:	00 00 00 
  8006db:	ff d0                	call   *%rax
    strcpy(diskaddr(1), "OOPS!\n");
  8006dd:	bf 01 00 00 00       	mov    $0x1,%edi
  8006e2:	ff d3                	call   *%rbx
  8006e4:	48 89 c7             	mov    %rax,%rdi
  8006e7:	48 be be 53 80 00 00 	movabs $0x8053be,%rsi
  8006ee:	00 00 00 
  8006f1:	48 b8 5c 31 80 00 00 	movabs $0x80315c,%rax
  8006f8:	00 00 00 
  8006fb:	ff d0                	call   *%rax
    flush_block(diskaddr(1));
  8006fd:	bf 01 00 00 00       	mov    $0x1,%edi
  800702:	ff d3                	call   *%rbx
  800704:	48 89 c7             	mov    %rax,%rdi
  800707:	48 b8 b7 04 80 00 00 	movabs $0x8004b7,%rax
  80070e:	00 00 00 
  800711:	ff d0                	call   *%rax
    assert(is_page_present(diskaddr(1)));
  800713:	bf 01 00 00 00       	mov    $0x1,%edi
  800718:	ff d3                	call   *%rbx
  80071a:	48 89 c7             	mov    %rax,%rdi
  80071d:	48 b8 49 4f 80 00 00 	movabs $0x804f49,%rax
  800724:	00 00 00 
  800727:	ff d0                	call   *%rax
  800729:	84 c0                	test   %al,%al
  80072b:	0f 84 25 01 00 00    	je     800856 <bc_init+0x1c9>
    assert(!is_page_dirty(diskaddr(1)));
  800731:	bf 01 00 00 00       	mov    $0x1,%edi
  800736:	48 b8 61 04 80 00 00 	movabs $0x800461,%rax
  80073d:	00 00 00 
  800740:	ff d0                	call   *%rax
  800742:	48 89 c7             	mov    %rax,%rdi
  800745:	48 b8 30 4f 80 00 00 	movabs $0x804f30,%rax
  80074c:	00 00 00 
  80074f:	ff d0                	call   *%rax
  800751:	84 c0                	test   %al,%al
  800753:	0f 85 2d 01 00 00    	jne    800886 <bc_init+0x1f9>
    sys_unmap_region(0, diskaddr(1), PAGE_SIZE);
  800759:	bf 01 00 00 00       	mov    $0x1,%edi
  80075e:	48 bb 61 04 80 00 00 	movabs $0x800461,%rbx
  800765:	00 00 00 
  800768:	ff d3                	call   *%rbx
  80076a:	48 89 c6             	mov    %rax,%rsi
  80076d:	ba 00 10 00 00       	mov    $0x1000,%edx
  800772:	bf 00 00 00 00       	mov    $0x0,%edi
  800777:	48 b8 e2 37 80 00 00 	movabs $0x8037e2,%rax
  80077e:	00 00 00 
  800781:	ff d0                	call   *%rax
    assert(!is_page_present(diskaddr(1)));
  800783:	bf 01 00 00 00       	mov    $0x1,%edi
  800788:	ff d3                	call   *%rbx
  80078a:	48 89 c7             	mov    %rax,%rdi
  80078d:	48 b8 49 4f 80 00 00 	movabs $0x804f49,%rax
  800794:	00 00 00 
  800797:	ff d0                	call   *%rax
  800799:	84 c0                	test   %al,%al
  80079b:	0f 85 1a 01 00 00    	jne    8008bb <bc_init+0x22e>
    assert(strcmp(diskaddr(1), "OOPS!\n") == 0);
  8007a1:	bf 01 00 00 00       	mov    $0x1,%edi
  8007a6:	48 b8 61 04 80 00 00 	movabs $0x800461,%rax
  8007ad:	00 00 00 
  8007b0:	ff d0                	call   *%rax
  8007b2:	48 89 c7             	mov    %rax,%rdi
  8007b5:	48 be be 53 80 00 00 	movabs $0x8053be,%rsi
  8007bc:	00 00 00 
  8007bf:	48 b8 fe 31 80 00 00 	movabs $0x8031fe,%rax
  8007c6:	00 00 00 
  8007c9:	ff d0                	call   *%rax
  8007cb:	85 c0                	test   %eax,%eax
  8007cd:	0f 85 1d 01 00 00    	jne    8008f0 <bc_init+0x263>
    memmove(diskaddr(1), &backup, sizeof backup);
  8007d3:	bf 01 00 00 00       	mov    $0x1,%edi
  8007d8:	48 bb 61 04 80 00 00 	movabs $0x800461,%rbx
  8007df:	00 00 00 
  8007e2:	ff d3                	call   *%rbx
  8007e4:	48 89 c7             	mov    %rax,%rdi
  8007e7:	ba 08 01 00 00       	mov    $0x108,%edx
  8007ec:	48 8d b5 e0 fd ff ff 	lea    -0x220(%rbp),%rsi
  8007f3:	49 bc 57 33 80 00 00 	movabs $0x803357,%r12
  8007fa:	00 00 00 
  8007fd:	41 ff d4             	call   *%r12
    flush_block(diskaddr(1));
  800800:	bf 01 00 00 00       	mov    $0x1,%edi
  800805:	ff d3                	call   *%rbx
  800807:	48 89 c7             	mov    %rax,%rdi
  80080a:	48 b8 b7 04 80 00 00 	movabs $0x8004b7,%rax
  800811:	00 00 00 
  800814:	ff d0                	call   *%rax
    cprintf("block cache is good\n");
  800816:	48 bf ff 53 80 00 00 	movabs $0x8053ff,%rdi
  80081d:	00 00 00 
  800820:	b8 00 00 00 00       	mov    $0x0,%eax
  800825:	48 ba 1b 28 80 00 00 	movabs $0x80281b,%rdx
  80082c:	00 00 00 
  80082f:	ff d2                	call   *%rdx
    check_bc();

    /* Cache the super block by reading it once */
    memmove(&super, diskaddr(1), sizeof super);
  800831:	bf 01 00 00 00       	mov    $0x1,%edi
  800836:	ff d3                	call   *%rbx
  800838:	48 89 c6             	mov    %rax,%rsi
  80083b:	ba 08 01 00 00       	mov    $0x108,%edx
  800840:	48 8d bd e8 fe ff ff 	lea    -0x118(%rbp),%rdi
  800847:	41 ff d4             	call   *%r12
}
  80084a:	48 81 c4 10 02 00 00 	add    $0x210,%rsp
  800851:	5b                   	pop    %rbx
  800852:	41 5c                	pop    %r12
  800854:	5d                   	pop    %rbp
  800855:	c3                   	ret    
    assert(is_page_present(diskaddr(1)));
  800856:	48 b9 e2 53 80 00 00 	movabs $0x8053e2,%rcx
  80085d:	00 00 00 
  800860:	48 ba ad 52 80 00 00 	movabs $0x8052ad,%rdx
  800867:	00 00 00 
  80086a:	be 57 00 00 00       	mov    $0x57,%esi
  80086f:	48 bf 44 53 80 00 00 	movabs $0x805344,%rdi
  800876:	00 00 00 
  800879:	49 b8 cb 26 80 00 00 	movabs $0x8026cb,%r8
  800880:	00 00 00 
  800883:	41 ff d0             	call   *%r8
    assert(!is_page_dirty(diskaddr(1)));
  800886:	48 b9 c5 53 80 00 00 	movabs $0x8053c5,%rcx
  80088d:	00 00 00 
  800890:	48 ba ad 52 80 00 00 	movabs $0x8052ad,%rdx
  800897:	00 00 00 
  80089a:	be 58 00 00 00       	mov    $0x58,%esi
  80089f:	48 bf 44 53 80 00 00 	movabs $0x805344,%rdi
  8008a6:	00 00 00 
  8008a9:	b8 00 00 00 00       	mov    $0x0,%eax
  8008ae:	49 b8 cb 26 80 00 00 	movabs $0x8026cb,%r8
  8008b5:	00 00 00 
  8008b8:	41 ff d0             	call   *%r8
    assert(!is_page_present(diskaddr(1)));
  8008bb:	48 b9 e1 53 80 00 00 	movabs $0x8053e1,%rcx
  8008c2:	00 00 00 
  8008c5:	48 ba ad 52 80 00 00 	movabs $0x8052ad,%rdx
  8008cc:	00 00 00 
  8008cf:	be 5c 00 00 00       	mov    $0x5c,%esi
  8008d4:	48 bf 44 53 80 00 00 	movabs $0x805344,%rdi
  8008db:	00 00 00 
  8008de:	b8 00 00 00 00       	mov    $0x0,%eax
  8008e3:	49 b8 cb 26 80 00 00 	movabs $0x8026cb,%r8
  8008ea:	00 00 00 
  8008ed:	41 ff d0             	call   *%r8
    assert(strcmp(diskaddr(1), "OOPS!\n") == 0);
  8008f0:	48 b9 20 53 80 00 00 	movabs $0x805320,%rcx
  8008f7:	00 00 00 
  8008fa:	48 ba ad 52 80 00 00 	movabs $0x8052ad,%rdx
  800901:	00 00 00 
  800904:	be 5f 00 00 00       	mov    $0x5f,%esi
  800909:	48 bf 44 53 80 00 00 	movabs $0x805344,%rdi
  800910:	00 00 00 
  800913:	b8 00 00 00 00       	mov    $0x0,%eax
  800918:	49 b8 cb 26 80 00 00 	movabs $0x8026cb,%r8
  80091f:	00 00 00 
  800922:	41 ff d0             	call   *%r8

0000000000800925 <check_super>:
 *                         Super block
 ****************************************************************/

/* Validate the file system super-block. */
void
check_super(void) {
  800925:	55                   	push   %rbp
  800926:	48 89 e5             	mov    %rsp,%rbp
    if (super->s_magic != FS_MAGIC)
  800929:	48 a1 08 b0 80 00 00 	movabs 0x80b008,%rax
  800930:	00 00 00 
  800933:	8b 08                	mov    (%rax),%ecx
  800935:	81 f9 ae 30 05 4a    	cmp    $0x4a0530ae,%ecx
  80093b:	75 26                	jne    800963 <check_super+0x3e>
        panic("bad file system magic number %08x", super->s_magic);

    if (super->s_nblocks > DISKSIZE / BLKSIZE)
  80093d:	81 78 04 00 00 0c 00 	cmpl   $0xc0000,0x4(%rax)
  800944:	77 48                	ja     80098e <check_super+0x69>
        panic("file system is too large");

    cprintf("superblock is good\n");
  800946:	48 bf 5b 54 80 00 00 	movabs $0x80545b,%rdi
  80094d:	00 00 00 
  800950:	b8 00 00 00 00       	mov    $0x0,%eax
  800955:	48 ba 1b 28 80 00 00 	movabs $0x80281b,%rdx
  80095c:	00 00 00 
  80095f:	ff d2                	call   *%rdx
}
  800961:	5d                   	pop    %rbp
  800962:	c3                   	ret    
        panic("bad file system magic number %08x", super->s_magic);
  800963:	48 ba 18 54 80 00 00 	movabs $0x805418,%rdx
  80096a:	00 00 00 
  80096d:	be 13 00 00 00       	mov    $0x13,%esi
  800972:	48 bf 3a 54 80 00 00 	movabs $0x80543a,%rdi
  800979:	00 00 00 
  80097c:	b8 00 00 00 00       	mov    $0x0,%eax
  800981:	49 b8 cb 26 80 00 00 	movabs $0x8026cb,%r8
  800988:	00 00 00 
  80098b:	41 ff d0             	call   *%r8
        panic("file system is too large");
  80098e:	48 ba 42 54 80 00 00 	movabs $0x805442,%rdx
  800995:	00 00 00 
  800998:	be 16 00 00 00       	mov    $0x16,%esi
  80099d:	48 bf 3a 54 80 00 00 	movabs $0x80543a,%rdi
  8009a4:	00 00 00 
  8009a7:	b8 00 00 00 00       	mov    $0x0,%eax
  8009ac:	48 b9 cb 26 80 00 00 	movabs $0x8026cb,%rcx
  8009b3:	00 00 00 
  8009b6:	ff d1                	call   *%rcx

00000000008009b8 <block_is_free>:

/* Check to see if the block bitmap indicates that block 'blockno' is free.
 * Return 1 if the block is free, 0 if not. */
bool
block_is_free(uint32_t blockno) {
    if (super == 0 || blockno >= super->s_nblocks) return 0;
  8009b8:	48 a1 08 b0 80 00 00 	movabs 0x80b008,%rax
  8009bf:	00 00 00 
  8009c2:	48 85 c0             	test   %rax,%rax
  8009c5:	74 2d                	je     8009f4 <block_is_free+0x3c>
  8009c7:	ba 00 00 00 00       	mov    $0x0,%edx
  8009cc:	39 78 04             	cmp    %edi,0x4(%rax)
  8009cf:	76 20                	jbe    8009f1 <block_is_free+0x39>
    if (TSTBIT(bitmap, blockno)) return 1;
  8009d1:	89 fe                	mov    %edi,%esi
  8009d3:	c1 ee 05             	shr    $0x5,%esi
  8009d6:	89 f6                	mov    %esi,%esi
  8009d8:	ba 01 00 00 00       	mov    $0x1,%edx
  8009dd:	89 f9                	mov    %edi,%ecx
  8009df:	d3 e2                	shl    %cl,%edx
  8009e1:	48 a1 00 b0 80 00 00 	movabs 0x80b000,%rax
  8009e8:	00 00 00 
  8009eb:	23 14 b0             	and    (%rax,%rsi,4),%edx
  8009ee:	0f 95 c2             	setne  %dl
    return 0;
}
  8009f1:	89 d0                	mov    %edx,%eax
  8009f3:	c3                   	ret    
    if (super == 0 || blockno >= super->s_nblocks) return 0;
  8009f4:	ba 00 00 00 00       	mov    $0x0,%edx
  8009f9:	eb f6                	jmp    8009f1 <block_is_free+0x39>

00000000008009fb <free_block>:

/* Mark a block free in the bitmap */
void
free_block(uint32_t blockno) {
    /* Blockno zero is the null pointer of block numbers. */
    if (blockno == 0) panic("attempt to free zero block");
  8009fb:	85 ff                	test   %edi,%edi
  8009fd:	74 1e                	je     800a1d <free_block+0x22>
    SETBIT(bitmap, blockno);
  8009ff:	89 fa                	mov    %edi,%edx
  800a01:	c1 ea 05             	shr    $0x5,%edx
  800a04:	89 d2                	mov    %edx,%edx
  800a06:	48 a1 00 b0 80 00 00 	movabs 0x80b000,%rax
  800a0d:	00 00 00 
  800a10:	be 01 00 00 00       	mov    $0x1,%esi
  800a15:	89 f9                	mov    %edi,%ecx
  800a17:	d3 e6                	shl    %cl,%esi
  800a19:	09 34 90             	or     %esi,(%rax,%rdx,4)
  800a1c:	c3                   	ret    
free_block(uint32_t blockno) {
  800a1d:	55                   	push   %rbp
  800a1e:	48 89 e5             	mov    %rsp,%rbp
    if (blockno == 0) panic("attempt to free zero block");
  800a21:	48 ba 6f 54 80 00 00 	movabs $0x80546f,%rdx
  800a28:	00 00 00 
  800a2b:	be 2c 00 00 00       	mov    $0x2c,%esi
  800a30:	48 bf 3a 54 80 00 00 	movabs $0x80543a,%rdi
  800a37:	00 00 00 
  800a3a:	b8 00 00 00 00       	mov    $0x0,%eax
  800a3f:	48 b9 cb 26 80 00 00 	movabs $0x8026cb,%rcx
  800a46:	00 00 00 
  800a49:	ff d1                	call   *%rcx

0000000000800a4b <alloc_block>:
 * Return block number allocated on success,
 * 0 if we are out of blocks.
 *
 * Hint: use free_block as an example for manipulating the bitmap. */
blockno_t
alloc_block(void) {
  800a4b:	55                   	push   %rbp
  800a4c:	48 89 e5             	mov    %rsp,%rbp
  800a4f:	41 55                	push   %r13
  800a51:	41 54                	push   %r12
  800a53:	53                   	push   %rbx
  800a54:	48 83 ec 08          	sub    $0x8,%rsp
    /* The bitmap consists of one or more blocks.  A single bitmap block
     * contains the in-use bits for BLKBITSIZE blocks.  There are
     * super->s_nblocks blocks in the disk altogether. */

    uint32_t blockno = 0;
    while(!block_is_free(blockno) && blockno < super->s_nblocks) {
  800a58:	48 b8 08 b0 80 00 00 	movabs $0x80b008,%rax
  800a5f:	00 00 00 
  800a62:	4c 8b 20             	mov    (%rax),%r12
    uint32_t blockno = 0;
  800a65:	bb 00 00 00 00       	mov    $0x0,%ebx
    while(!block_is_free(blockno) && blockno < super->s_nblocks) {
  800a6a:	49 bd b8 09 80 00 00 	movabs $0x8009b8,%r13
  800a71:	00 00 00 
  800a74:	eb 03                	jmp    800a79 <alloc_block+0x2e>
        blockno++;
  800a76:	83 c3 01             	add    $0x1,%ebx
    while(!block_is_free(blockno) && blockno < super->s_nblocks) {
  800a79:	89 df                	mov    %ebx,%edi
  800a7b:	41 ff d5             	call   *%r13
  800a7e:	84 c0                	test   %al,%al
  800a80:	75 19                	jne    800a9b <alloc_block+0x50>
  800a82:	41 39 5c 24 04       	cmp    %ebx,0x4(%r12)
  800a87:	77 ed                	ja     800a76 <alloc_block+0x2b>
        CLRBIT(bitmap, blockno);
        flush_block(&bitmap[blockno / 32]);
        return blockno;
    }

    return 0;
  800a89:	bb 00 00 00 00       	mov    $0x0,%ebx
}
  800a8e:	89 d8                	mov    %ebx,%eax
  800a90:	48 83 c4 08          	add    $0x8,%rsp
  800a94:	5b                   	pop    %rbx
  800a95:	41 5c                	pop    %r12
  800a97:	41 5d                	pop    %r13
  800a99:	5d                   	pop    %rbp
  800a9a:	c3                   	ret    
    if (blockno < super->s_nblocks) {
  800a9b:	41 39 5c 24 04       	cmp    %ebx,0x4(%r12)
  800aa0:	77 07                	ja     800aa9 <alloc_block+0x5e>
    return 0;
  800aa2:	bb 00 00 00 00       	mov    $0x0,%ebx
  800aa7:	eb e5                	jmp    800a8e <alloc_block+0x43>
        CLRBIT(bitmap, blockno);
  800aa9:	89 df                	mov    %ebx,%edi
  800aab:	c1 ef 05             	shr    $0x5,%edi
  800aae:	89 ff                	mov    %edi,%edi
  800ab0:	48 c1 e7 02          	shl    $0x2,%rdi
  800ab4:	48 ba 00 b0 80 00 00 	movabs $0x80b000,%rdx
  800abb:	00 00 00 
  800abe:	48 89 fe             	mov    %rdi,%rsi
  800ac1:	48 03 32             	add    (%rdx),%rsi
  800ac4:	b8 01 00 00 00       	mov    $0x1,%eax
  800ac9:	89 d9                	mov    %ebx,%ecx
  800acb:	d3 e0                	shl    %cl,%eax
  800acd:	f7 d0                	not    %eax
  800acf:	21 06                	and    %eax,(%rsi)
        flush_block(&bitmap[blockno / 32]);
  800ad1:	48 03 3a             	add    (%rdx),%rdi
  800ad4:	48 b8 b7 04 80 00 00 	movabs $0x8004b7,%rax
  800adb:	00 00 00 
  800ade:	ff d0                	call   *%rax
        return blockno;
  800ae0:	eb ac                	jmp    800a8e <alloc_block+0x43>

0000000000800ae2 <check_bitmap>:
/* Validate the file system bitmap.
 *
 * Check that all reserved blocks -- 0, 1, and the bitmap blocks themselves --
 * are all marked as in-use. */
void
check_bitmap(void) {
  800ae2:	55                   	push   %rbp
  800ae3:	48 89 e5             	mov    %rsp,%rbp
  800ae6:	41 55                	push   %r13
  800ae8:	41 54                	push   %r12
  800aea:	53                   	push   %rbx
  800aeb:	48 83 ec 08          	sub    $0x8,%rsp

    /* Make sure all bitmap blocks are marked in-use */
    for (uint32_t i = 0; i * BLKBITSIZE < super->s_nblocks; i++)
  800aef:	48 a1 08 b0 80 00 00 	movabs 0x80b008,%rax
  800af6:	00 00 00 
  800af9:	44 8b 60 04          	mov    0x4(%rax),%r12d
  800afd:	4d 85 e4             	test   %r12,%r12
  800b00:	7e 27                	jle    800b29 <check_bitmap+0x47>
  800b02:	bb 00 00 00 00       	mov    $0x0,%ebx
        assert(!block_is_free(2 + i));
  800b07:	49 bd b8 09 80 00 00 	movabs $0x8009b8,%r13
  800b0e:	00 00 00 
  800b11:	8d 7b 02             	lea    0x2(%rbx),%edi
  800b14:	41 ff d5             	call   *%r13
  800b17:	84 c0                	test   %al,%al
  800b19:	75 62                	jne    800b7d <check_bitmap+0x9b>
    for (uint32_t i = 0; i * BLKBITSIZE < super->s_nblocks; i++)
  800b1b:	83 c3 01             	add    $0x1,%ebx
  800b1e:	89 d8                	mov    %ebx,%eax
  800b20:	48 c1 e0 0f          	shl    $0xf,%rax
  800b24:	4c 39 e0             	cmp    %r12,%rax
  800b27:	7c e8                	jl     800b11 <check_bitmap+0x2f>

    /* Make sure the reserved and root blocks are marked in-use. */

    assert(!block_is_free(1));
  800b29:	bf 01 00 00 00       	mov    $0x1,%edi
  800b2e:	48 b8 b8 09 80 00 00 	movabs $0x8009b8,%rax
  800b35:	00 00 00 
  800b38:	ff d0                	call   *%rax
  800b3a:	84 c0                	test   %al,%al
  800b3c:	75 74                	jne    800bb2 <check_bitmap+0xd0>
    assert(!block_is_free(0));
  800b3e:	bf 00 00 00 00       	mov    $0x0,%edi
  800b43:	48 b8 b8 09 80 00 00 	movabs $0x8009b8,%rax
  800b4a:	00 00 00 
  800b4d:	ff d0                	call   *%rax
  800b4f:	84 c0                	test   %al,%al
  800b51:	0f 85 90 00 00 00    	jne    800be7 <check_bitmap+0x105>

    cprintf("bitmap is good\n");
  800b57:	48 bf c4 54 80 00 00 	movabs $0x8054c4,%rdi
  800b5e:	00 00 00 
  800b61:	b8 00 00 00 00       	mov    $0x0,%eax
  800b66:	48 ba 1b 28 80 00 00 	movabs $0x80281b,%rdx
  800b6d:	00 00 00 
  800b70:	ff d2                	call   *%rdx
}
  800b72:	48 83 c4 08          	add    $0x8,%rsp
  800b76:	5b                   	pop    %rbx
  800b77:	41 5c                	pop    %r12
  800b79:	41 5d                	pop    %r13
  800b7b:	5d                   	pop    %rbp
  800b7c:	c3                   	ret    
        assert(!block_is_free(2 + i));
  800b7d:	48 b9 8a 54 80 00 00 	movabs $0x80548a,%rcx
  800b84:	00 00 00 
  800b87:	48 ba ad 52 80 00 00 	movabs $0x8052ad,%rdx
  800b8e:	00 00 00 
  800b91:	be 55 00 00 00       	mov    $0x55,%esi
  800b96:	48 bf 3a 54 80 00 00 	movabs $0x80543a,%rdi
  800b9d:	00 00 00 
  800ba0:	b8 00 00 00 00       	mov    $0x0,%eax
  800ba5:	49 b8 cb 26 80 00 00 	movabs $0x8026cb,%r8
  800bac:	00 00 00 
  800baf:	41 ff d0             	call   *%r8
    assert(!block_is_free(1));
  800bb2:	48 b9 a0 54 80 00 00 	movabs $0x8054a0,%rcx
  800bb9:	00 00 00 
  800bbc:	48 ba ad 52 80 00 00 	movabs $0x8052ad,%rdx
  800bc3:	00 00 00 
  800bc6:	be 59 00 00 00       	mov    $0x59,%esi
  800bcb:	48 bf 3a 54 80 00 00 	movabs $0x80543a,%rdi
  800bd2:	00 00 00 
  800bd5:	b8 00 00 00 00       	mov    $0x0,%eax
  800bda:	49 b8 cb 26 80 00 00 	movabs $0x8026cb,%r8
  800be1:	00 00 00 
  800be4:	41 ff d0             	call   *%r8
    assert(!block_is_free(0));
  800be7:	48 b9 b2 54 80 00 00 	movabs $0x8054b2,%rcx
  800bee:	00 00 00 
  800bf1:	48 ba ad 52 80 00 00 	movabs $0x8052ad,%rdx
  800bf8:	00 00 00 
  800bfb:	be 5a 00 00 00       	mov    $0x5a,%esi
  800c00:	48 bf 3a 54 80 00 00 	movabs $0x80543a,%rdi
  800c07:	00 00 00 
  800c0a:	b8 00 00 00 00       	mov    $0x0,%eax
  800c0f:	49 b8 cb 26 80 00 00 	movabs $0x8026cb,%r8
  800c16:	00 00 00 
  800c19:	41 ff d0             	call   *%r8

0000000000800c1c <fs_init>:
 *                    File system structures
 ****************************************************************/

/* Initialize the file system */
void
fs_init(void) {
  800c1c:	55                   	push   %rbp
  800c1d:	48 89 e5             	mov    %rsp,%rbp
  800c20:	53                   	push   %rbx
  800c21:	48 83 ec 08          	sub    $0x8,%rsp
    static_assert(sizeof(struct File) == 256, "Unsupported file size");

    /* Find a JOS disk.  Use the second IDE disk (number 1) if availabl */
    if (ide_probe_disk1())
  800c25:	48 b8 4c 00 80 00 00 	movabs $0x80004c,%rax
  800c2c:	00 00 00 
  800c2f:	ff d0                	call   *%rax
  800c31:	84 c0                	test   %al,%al
  800c33:	74 67                	je     800c9c <fs_init+0x80>
        ide_set_disk(1);
  800c35:	bf 01 00 00 00       	mov    $0x1,%edi
  800c3a:	48 b8 d6 00 80 00 00 	movabs $0x8000d6,%rax
  800c41:	00 00 00 
  800c44:	ff d0                	call   *%rax
    else
        ide_set_disk(0);
    bc_init();
  800c46:	48 b8 8d 06 80 00 00 	movabs $0x80068d,%rax
  800c4d:	00 00 00 
  800c50:	ff d0                	call   *%rax

    /* Set "super" to point to the super block. */
    super = diskaddr(1);
  800c52:	bf 01 00 00 00       	mov    $0x1,%edi
  800c57:	48 bb 61 04 80 00 00 	movabs $0x800461,%rbx
  800c5e:	00 00 00 
  800c61:	ff d3                	call   *%rbx
  800c63:	48 a3 08 b0 80 00 00 	movabs %rax,0x80b008
  800c6a:	00 00 00 
    check_super();
  800c6d:	48 b8 25 09 80 00 00 	movabs $0x800925,%rax
  800c74:	00 00 00 
  800c77:	ff d0                	call   *%rax

    /* Set "bitmap" to the beginning of the first bitmap block. */
    bitmap = diskaddr(2);
  800c79:	bf 02 00 00 00       	mov    $0x2,%edi
  800c7e:	ff d3                	call   *%rbx
  800c80:	48 a3 00 b0 80 00 00 	movabs %rax,0x80b000
  800c87:	00 00 00 

    check_bitmap();
  800c8a:	48 b8 e2 0a 80 00 00 	movabs $0x800ae2,%rax
  800c91:	00 00 00 
  800c94:	ff d0                	call   *%rax
}
  800c96:	48 8b 5d f8          	mov    -0x8(%rbp),%rbx
  800c9a:	c9                   	leave  
  800c9b:	c3                   	ret    
        ide_set_disk(0);
  800c9c:	bf 00 00 00 00       	mov    $0x0,%edi
  800ca1:	48 b8 d6 00 80 00 00 	movabs $0x8000d6,%rax
  800ca8:	00 00 00 
  800cab:	ff d0                	call   *%rax
  800cad:	eb 97                	jmp    800c46 <fs_init+0x2a>

0000000000800caf <file_block_walk>:
 *
 * Analogy: This is like pgdir_walk for files.
 * Hint: Don't forget to clear any block you allocate. */
int
file_block_walk(struct File *f, blockno_t filebno, blockno_t **ppdiskbno, bool alloc) {
    if (filebno >= NDIRECT + NINDIRECT) 
  800caf:	81 fe 09 04 00 00    	cmp    $0x409,%esi
  800cb5:	0f 87 bb 00 00 00    	ja     800d76 <file_block_walk+0xc7>
file_block_walk(struct File *f, blockno_t filebno, blockno_t **ppdiskbno, bool alloc) {
  800cbb:	55                   	push   %rbp
  800cbc:	48 89 e5             	mov    %rsp,%rbp
  800cbf:	41 55                	push   %r13
  800cc1:	41 54                	push   %r12
  800cc3:	53                   	push   %rbx
  800cc4:	48 83 ec 08          	sub    $0x8,%rsp
  800cc8:	49 89 fc             	mov    %rdi,%r12
  800ccb:	89 f3                	mov    %esi,%ebx
  800ccd:	49 89 d5             	mov    %rdx,%r13
        return -E_INVAL;

    if (filebno < NDIRECT) {
  800cd0:	83 fe 09             	cmp    $0x9,%esi
  800cd3:	76 49                	jbe    800d1e <file_block_walk+0x6f>
        *ppdiskbno = f->f_direct + filebno;
        return 0;
    } 
    
    if (!f->f_indirect && !alloc)
  800cd5:	8b 87 b0 00 00 00    	mov    0xb0(%rdi),%eax
  800cdb:	85 c0                	test   %eax,%eax
  800cdd:	75 08                	jne    800ce7 <file_block_walk+0x38>
  800cdf:	84 c9                	test   %cl,%cl
  800ce1:	0f 84 95 00 00 00    	je     800d7c <file_block_walk+0xcd>
        return -E_NOT_FOUND;

    if (!f->f_indirect && alloc) {
  800ce7:	85 c0                	test   %eax,%eax
  800ce9:	75 04                	jne    800cef <file_block_walk+0x40>
  800ceb:	84 c9                	test   %cl,%cl
  800ced:	75 43                	jne    800d32 <file_block_walk+0x83>

        f->f_indirect = newbno;
        memset(diskaddr(newbno), 0, BLKSIZE);
    }

    *ppdiskbno = &((blockno_t *)diskaddr(f->f_indirect))[filebno - NDIRECT];
  800cef:	41 8b bc 24 b0 00 00 	mov    0xb0(%r12),%edi
  800cf6:	00 
  800cf7:	48 b8 61 04 80 00 00 	movabs $0x800461,%rax
  800cfe:	00 00 00 
  800d01:	ff d0                	call   *%rax
  800d03:	8d 53 f6             	lea    -0xa(%rbx),%edx
  800d06:	48 8d 04 90          	lea    (%rax,%rdx,4),%rax
  800d0a:	49 89 45 00          	mov    %rax,0x0(%r13)

    return 0;
  800d0e:	b8 00 00 00 00       	mov    $0x0,%eax
}
  800d13:	48 83 c4 08          	add    $0x8,%rsp
  800d17:	5b                   	pop    %rbx
  800d18:	41 5c                	pop    %r12
  800d1a:	41 5d                	pop    %r13
  800d1c:	5d                   	pop    %rbp
  800d1d:	c3                   	ret    
        *ppdiskbno = f->f_direct + filebno;
  800d1e:	89 f3                	mov    %esi,%ebx
  800d20:	48 8d 84 9f 88 00 00 	lea    0x88(%rdi,%rbx,4),%rax
  800d27:	00 
  800d28:	48 89 02             	mov    %rax,(%rdx)
        return 0;
  800d2b:	b8 00 00 00 00       	mov    $0x0,%eax
  800d30:	eb e1                	jmp    800d13 <file_block_walk+0x64>
        blockno_t newbno = alloc_block();
  800d32:	48 b8 4b 0a 80 00 00 	movabs $0x800a4b,%rax
  800d39:	00 00 00 
  800d3c:	ff d0                	call   *%rax
  800d3e:	89 c7                	mov    %eax,%edi
        if (!newbno)
  800d40:	85 c0                	test   %eax,%eax
  800d42:	74 3f                	je     800d83 <file_block_walk+0xd4>
        f->f_indirect = newbno;
  800d44:	41 89 84 24 b0 00 00 	mov    %eax,0xb0(%r12)
  800d4b:	00 
        memset(diskaddr(newbno), 0, BLKSIZE);
  800d4c:	48 b8 61 04 80 00 00 	movabs $0x800461,%rax
  800d53:	00 00 00 
  800d56:	ff d0                	call   *%rax
  800d58:	48 89 c7             	mov    %rax,%rdi
  800d5b:	ba 00 10 00 00       	mov    $0x1000,%edx
  800d60:	be 00 00 00 00       	mov    $0x0,%esi
  800d65:	48 b8 ad 32 80 00 00 	movabs $0x8032ad,%rax
  800d6c:	00 00 00 
  800d6f:	ff d0                	call   *%rax
  800d71:	e9 79 ff ff ff       	jmp    800cef <file_block_walk+0x40>
        return -E_INVAL;
  800d76:	b8 fd ff ff ff       	mov    $0xfffffffd,%eax
}
  800d7b:	c3                   	ret    
        return -E_NOT_FOUND;
  800d7c:	b8 f1 ff ff ff       	mov    $0xfffffff1,%eax
  800d81:	eb 90                	jmp    800d13 <file_block_walk+0x64>
            return -E_NO_DISK;
  800d83:	b8 f3 ff ff ff       	mov    $0xfffffff3,%eax
  800d88:	eb 89                	jmp    800d13 <file_block_walk+0x64>

0000000000800d8a <file_get_block>:
 *  -E_NO_DISK if a block needed to be allocated but the disk is full.
 *  -E_INVAL if filebno is out of range.
 *
 * Hint: Use file_block_walk and alloc_block. */
int
file_get_block(struct File *f, uint32_t filebno, char **blk) {
  800d8a:	55                   	push   %rbp
  800d8b:	48 89 e5             	mov    %rsp,%rbp
  800d8e:	53                   	push   %rbx
  800d8f:	48 83 ec 18          	sub    $0x18,%rsp
  800d93:	48 89 d3             	mov    %rdx,%rbx
    blockno_t *pdiskbno;
    int res = file_block_walk(f, filebno, &pdiskbno, 1);
  800d96:	b9 01 00 00 00       	mov    $0x1,%ecx
  800d9b:	48 8d 55 e8          	lea    -0x18(%rbp),%rdx
  800d9f:	48 b8 af 0c 80 00 00 	movabs $0x800caf,%rax
  800da6:	00 00 00 
  800da9:	ff d0                	call   *%rax

    if (res < 0)
  800dab:	85 c0                	test   %eax,%eax
  800dad:	78 60                	js     800e0f <file_get_block+0x85>
        return res;

    if (!(*pdiskbno)) {
  800daf:	48 8b 45 e8          	mov    -0x18(%rbp),%rax
  800db3:	83 38 00             	cmpl   $0x0,(%rax)
  800db6:	75 3d                	jne    800df5 <file_get_block+0x6b>
        blockno_t newbno = alloc_block();
  800db8:	48 b8 4b 0a 80 00 00 	movabs $0x800a4b,%rax
  800dbf:	00 00 00 
  800dc2:	ff d0                	call   *%rax
  800dc4:	89 c7                	mov    %eax,%edi

        if (!newbno) 
  800dc6:	85 c0                	test   %eax,%eax
  800dc8:	74 4b                	je     800e15 <file_get_block+0x8b>
            return -E_NO_DISK;

        *pdiskbno = newbno;
  800dca:	48 8b 45 e8          	mov    -0x18(%rbp),%rax
  800dce:	89 38                	mov    %edi,(%rax)
        memset(diskaddr(newbno), 0, BLKSIZE);
  800dd0:	48 b8 61 04 80 00 00 	movabs $0x800461,%rax
  800dd7:	00 00 00 
  800dda:	ff d0                	call   *%rax
  800ddc:	48 89 c7             	mov    %rax,%rdi
  800ddf:	ba 00 10 00 00       	mov    $0x1000,%edx
  800de4:	be 00 00 00 00       	mov    $0x0,%esi
  800de9:	48 b8 ad 32 80 00 00 	movabs $0x8032ad,%rax
  800df0:	00 00 00 
  800df3:	ff d0                	call   *%rax
    }

    *blk = diskaddr(*pdiskbno);
  800df5:	48 8b 45 e8          	mov    -0x18(%rbp),%rax
  800df9:	8b 38                	mov    (%rax),%edi
  800dfb:	48 b8 61 04 80 00 00 	movabs $0x800461,%rax
  800e02:	00 00 00 
  800e05:	ff d0                	call   *%rax
  800e07:	48 89 03             	mov    %rax,(%rbx)
    return 0;
  800e0a:	b8 00 00 00 00       	mov    $0x0,%eax
}
  800e0f:	48 8b 5d f8          	mov    -0x8(%rbp),%rbx
  800e13:	c9                   	leave  
  800e14:	c3                   	ret    
            return -E_NO_DISK;
  800e15:	b8 f3 ff ff ff       	mov    $0xfffffff3,%eax
  800e1a:	eb f3                	jmp    800e0f <file_get_block+0x85>

0000000000800e1c <walk_path>:
 * and set *pdir to the directory the file is in.
 * If we cannot find the file but find the directory
 * it should be in, set *pdir and copy the final path
 * element into lastelem. */
static int
walk_path(const char *path, struct File **pdir, struct File **pf, char *lastelem) {
  800e1c:	55                   	push   %rbp
  800e1d:	48 89 e5             	mov    %rsp,%rbp
  800e20:	41 57                	push   %r15
  800e22:	41 56                	push   %r14
  800e24:	41 55                	push   %r13
  800e26:	41 54                	push   %r12
  800e28:	53                   	push   %rbx
  800e29:	48 81 ec c8 00 00 00 	sub    $0xc8,%rsp
  800e30:	49 89 ff             	mov    %rdi,%r15
  800e33:	48 89 b5 20 ff ff ff 	mov    %rsi,-0xe0(%rbp)
  800e3a:	48 89 95 18 ff ff ff 	mov    %rdx,-0xe8(%rbp)
  800e41:	48 89 8d 10 ff ff ff 	mov    %rcx,-0xf0(%rbp)
    while (*p == '/')
  800e48:	80 3f 2f             	cmpb   $0x2f,(%rdi)
  800e4b:	75 0a                	jne    800e57 <walk_path+0x3b>
        p++;
  800e4d:	49 83 c7 01          	add    $0x1,%r15
    while (*p == '/')
  800e51:	41 80 3f 2f          	cmpb   $0x2f,(%r15)
  800e55:	74 f6                	je     800e4d <walk_path+0x31>
    int r;

    //if (*path != '/')
    //    return -E_BAD_PATH;
    path = skip_slash(path);
    f = &super->s_root;
  800e57:	48 a1 08 b0 80 00 00 	movabs 0x80b008,%rax
  800e5e:	00 00 00 
  800e61:	48 83 c0 08          	add    $0x8,%rax
  800e65:	48 89 c1             	mov    %rax,%rcx
    dir = 0;
    name[0] = 0;
  800e68:	c6 85 50 ff ff ff 00 	movb   $0x0,-0xb0(%rbp)

    if (pdir)
  800e6f:	48 8b 85 20 ff ff ff 	mov    -0xe0(%rbp),%rax
  800e76:	48 85 c0             	test   %rax,%rax
  800e79:	74 07                	je     800e82 <walk_path+0x66>
        *pdir = 0;
  800e7b:	48 c7 00 00 00 00 00 	movq   $0x0,(%rax)
    *pf = 0;
  800e82:	48 8b 85 18 ff ff ff 	mov    -0xe8(%rbp),%rax
  800e89:	48 c7 00 00 00 00 00 	movq   $0x0,(%rax)
    dir = 0;
  800e90:	ba 00 00 00 00       	mov    $0x0,%edx
            if (strcmp(f[j].f_name, name) == 0) {
  800e95:	49 be fe 31 80 00 00 	movabs $0x8031fe,%r14
  800e9c:	00 00 00 
  800e9f:	4c 89 bd 30 ff ff ff 	mov    %r15,-0xd0(%rbp)
  800ea6:	49 89 cf             	mov    %rcx,%r15
    while (*path != '\0') {
  800ea9:	eb 6c                	jmp    800f17 <walk_path+0xfb>
        dir = f;
        p = path;
        while (*path != '/' && *path != '\0')
  800eab:	48 8b 9d 30 ff ff ff 	mov    -0xd0(%rbp),%rbx
            path++;
        if (path - p >= MAXNAMELEN)
  800eb2:	41 bc 00 00 00 00    	mov    $0x0,%r12d
  800eb8:	e9 9e 00 00 00       	jmp    800f5b <walk_path+0x13f>
    while (*p == '/')
  800ebd:	48 89 9d 30 ff ff ff 	mov    %rbx,-0xd0(%rbp)
  800ec4:	e9 d1 00 00 00       	jmp    800f9a <walk_path+0x17e>
    assert((dir->f_size % BLKSIZE) == 0);
  800ec9:	48 b9 d4 54 80 00 00 	movabs $0x8054d4,%rcx
  800ed0:	00 00 00 
  800ed3:	48 ba ad 52 80 00 00 	movabs $0x8052ad,%rdx
  800eda:	00 00 00 
  800edd:	be cc 00 00 00       	mov    $0xcc,%esi
  800ee2:	48 bf 3a 54 80 00 00 	movabs $0x80543a,%rdi
  800ee9:	00 00 00 
  800eec:	b8 00 00 00 00       	mov    $0x0,%eax
  800ef1:	49 b8 cb 26 80 00 00 	movabs $0x8026cb,%r8
  800ef8:	00 00 00 
  800efb:	41 ff d0             	call   *%r8
  800efe:	4c 89 bd 38 ff ff ff 	mov    %r15,-0xc8(%rbp)
  800f05:	4c 89 fa             	mov    %r15,%rdx
        path = skip_slash(path);

        if (dir->f_type != FTYPE_DIR)
            return -E_NOT_FOUND;

        if ((r = dir_lookup(dir, name, &f)) < 0) {
  800f08:	85 c0                	test   %eax,%eax
  800f0a:	0f 88 39 01 00 00    	js     801049 <walk_path+0x22d>
  800f10:	4c 8b bd 38 ff ff ff 	mov    -0xc8(%rbp),%r15
    while (*path != '\0') {
  800f17:	48 8b 85 30 ff ff ff 	mov    -0xd0(%rbp),%rax
  800f1e:	0f b6 00             	movzbl (%rax),%eax
  800f21:	84 c0                	test   %al,%al
  800f23:	0f 84 2f 01 00 00    	je     801058 <walk_path+0x23c>
        while (*path != '/' && *path != '\0')
  800f29:	3c 2f                	cmp    $0x2f,%al
  800f2b:	0f 84 7a ff ff ff    	je     800eab <walk_path+0x8f>
  800f31:	48 8b 9d 30 ff ff ff 	mov    -0xd0(%rbp),%rbx
            path++;
  800f38:	48 83 c3 01          	add    $0x1,%rbx
        while (*path != '/' && *path != '\0')
  800f3c:	0f b6 03             	movzbl (%rbx),%eax
  800f3f:	3c 2f                	cmp    $0x2f,%al
  800f41:	74 04                	je     800f47 <walk_path+0x12b>
  800f43:	84 c0                	test   %al,%al
  800f45:	75 f1                	jne    800f38 <walk_path+0x11c>
        if (path - p >= MAXNAMELEN)
  800f47:	49 89 dc             	mov    %rbx,%r12
  800f4a:	4c 2b a5 30 ff ff ff 	sub    -0xd0(%rbp),%r12
  800f51:	49 83 fc 7f          	cmp    $0x7f,%r12
  800f55:	0f 8f 34 01 00 00    	jg     80108f <walk_path+0x273>
        memmove(name, p, path - p);
  800f5b:	4c 89 e2             	mov    %r12,%rdx
  800f5e:	48 8b b5 30 ff ff ff 	mov    -0xd0(%rbp),%rsi
  800f65:	48 8d bd 50 ff ff ff 	lea    -0xb0(%rbp),%rdi
  800f6c:	48 b8 57 33 80 00 00 	movabs $0x803357,%rax
  800f73:	00 00 00 
  800f76:	ff d0                	call   *%rax
        name[path - p] = '\0';
  800f78:	42 c6 84 25 50 ff ff 	movb   $0x0,-0xb0(%rbp,%r12,1)
  800f7f:	ff 00 
    while (*p == '/')
  800f81:	80 3b 2f             	cmpb   $0x2f,(%rbx)
  800f84:	0f 85 33 ff ff ff    	jne    800ebd <walk_path+0xa1>
        p++;
  800f8a:	48 83 c3 01          	add    $0x1,%rbx
    while (*p == '/')
  800f8e:	80 3b 2f             	cmpb   $0x2f,(%rbx)
  800f91:	74 f7                	je     800f8a <walk_path+0x16e>
        p++;
  800f93:	48 89 9d 30 ff ff ff 	mov    %rbx,-0xd0(%rbp)
        if (dir->f_type != FTYPE_DIR)
  800f9a:	41 83 bf 84 00 00 00 	cmpl   $0x1,0x84(%r15)
  800fa1:	01 
  800fa2:	0f 85 ef 00 00 00    	jne    801097 <walk_path+0x27b>
    assert((dir->f_size % BLKSIZE) == 0);
  800fa8:	41 8b 87 80 00 00 00 	mov    0x80(%r15),%eax
  800faf:	41 89 c4             	mov    %eax,%r12d
  800fb2:	41 81 e4 ff 0f 00 00 	and    $0xfff,%r12d
  800fb9:	0f 85 0a ff ff ff    	jne    800ec9 <walk_path+0xad>
    blockno_t nblock = dir->f_size / BLKSIZE;
  800fbf:	8d 90 ff 0f 00 00    	lea    0xfff(%rax),%edx
  800fc5:	85 c0                	test   %eax,%eax
  800fc7:	0f 48 c2             	cmovs  %edx,%eax
    for (blockno_t i = 0; i < nblock; i++) {
  800fca:	c1 f8 0c             	sar    $0xc,%eax
  800fcd:	89 85 2c ff ff ff    	mov    %eax,-0xd4(%rbp)
  800fd3:	0f 84 c6 00 00 00    	je     80109f <walk_path+0x283>
        int res = file_get_block(dir, i, &blk);
  800fd9:	48 8d 95 48 ff ff ff 	lea    -0xb8(%rbp),%rdx
  800fe0:	44 89 e6             	mov    %r12d,%esi
  800fe3:	4c 89 ff             	mov    %r15,%rdi
  800fe6:	48 b8 8a 0d 80 00 00 	movabs $0x800d8a,%rax
  800fed:	00 00 00 
  800ff0:	ff d0                	call   *%rax
        if (res < 0) return res;
  800ff2:	85 c0                	test   %eax,%eax
  800ff4:	0f 88 04 ff ff ff    	js     800efe <walk_path+0xe2>
        for (blockno_t j = 0; j < BLKFILES; j++)
  800ffa:	48 8b 9d 48 ff ff ff 	mov    -0xb8(%rbp),%rbx
  801001:	4c 8d ab 00 10 00 00 	lea    0x1000(%rbx),%r13
            if (strcmp(f[j].f_name, name) == 0) {
  801008:	48 89 9d 38 ff ff ff 	mov    %rbx,-0xc8(%rbp)
  80100f:	48 8d b5 50 ff ff ff 	lea    -0xb0(%rbp),%rsi
  801016:	48 89 df             	mov    %rbx,%rdi
  801019:	41 ff d6             	call   *%r14
  80101c:	85 c0                	test   %eax,%eax
  80101e:	0f 84 e1 fe ff ff    	je     800f05 <walk_path+0xe9>
        for (blockno_t j = 0; j < BLKFILES; j++)
  801024:	48 81 c3 00 01 00 00 	add    $0x100,%rbx
  80102b:	4c 39 eb             	cmp    %r13,%rbx
  80102e:	75 d8                	jne    801008 <walk_path+0x1ec>
    for (blockno_t i = 0; i < nblock; i++) {
  801030:	41 83 c4 01          	add    $0x1,%r12d
  801034:	44 39 a5 2c ff ff ff 	cmp    %r12d,-0xd4(%rbp)
  80103b:	75 9c                	jne    800fd9 <walk_path+0x1bd>
  80103d:	4c 89 f9             	mov    %r15,%rcx
  801040:	4c 8b bd 30 ff ff ff 	mov    -0xd0(%rbp),%r15
  801047:	eb 60                	jmp    8010a9 <walk_path+0x28d>
  801049:	4c 89 f9             	mov    %r15,%rcx
  80104c:	41 89 c4             	mov    %eax,%r12d
  80104f:	4c 8b bd 30 ff ff ff 	mov    -0xd0(%rbp),%r15
  801056:	eb 57                	jmp    8010af <walk_path+0x293>
            }
            return r;
        }
    }

    if (pdir)
  801058:	4c 89 f9             	mov    %r15,%rcx
  80105b:	48 8b 85 20 ff ff ff 	mov    -0xe0(%rbp),%rax
  801062:	48 85 c0             	test   %rax,%rax
  801065:	74 03                	je     80106a <walk_path+0x24e>
        *pdir = dir;
  801067:	48 89 10             	mov    %rdx,(%rax)
    *pf = f;
  80106a:	48 8b 85 18 ff ff ff 	mov    -0xe8(%rbp),%rax
  801071:	48 89 08             	mov    %rcx,(%rax)
    return 0;
  801074:	41 bc 00 00 00 00    	mov    $0x0,%r12d
}
  80107a:	44 89 e0             	mov    %r12d,%eax
  80107d:	48 81 c4 c8 00 00 00 	add    $0xc8,%rsp
  801084:	5b                   	pop    %rbx
  801085:	41 5c                	pop    %r12
  801087:	41 5d                	pop    %r13
  801089:	41 5e                	pop    %r14
  80108b:	41 5f                	pop    %r15
  80108d:	5d                   	pop    %rbp
  80108e:	c3                   	ret    
            return -E_BAD_PATH;
  80108f:	41 bc f0 ff ff ff    	mov    $0xfffffff0,%r12d
  801095:	eb e3                	jmp    80107a <walk_path+0x25e>
            return -E_NOT_FOUND;
  801097:	41 bc f1 ff ff ff    	mov    $0xfffffff1,%r12d
  80109d:	eb db                	jmp    80107a <walk_path+0x25e>
  80109f:	4c 89 f9             	mov    %r15,%rcx
  8010a2:	4c 8b bd 30 ff ff ff 	mov    -0xd0(%rbp),%r15
  8010a9:	41 bc f1 ff ff ff    	mov    $0xfffffff1,%r12d
            if (r == -E_NOT_FOUND && *path == '\0') {
  8010af:	41 83 fc f1          	cmp    $0xfffffff1,%r12d
  8010b3:	75 c5                	jne    80107a <walk_path+0x25e>
  8010b5:	41 80 3f 00          	cmpb   $0x0,(%r15)
  8010b9:	75 bf                	jne    80107a <walk_path+0x25e>
                if (pdir)
  8010bb:	48 8b 85 20 ff ff ff 	mov    -0xe0(%rbp),%rax
  8010c2:	48 85 c0             	test   %rax,%rax
  8010c5:	74 03                	je     8010ca <walk_path+0x2ae>
                    *pdir = dir;
  8010c7:	48 89 08             	mov    %rcx,(%rax)
                if (lastelem)
  8010ca:	48 8b bd 10 ff ff ff 	mov    -0xf0(%rbp),%rdi
  8010d1:	48 85 ff             	test   %rdi,%rdi
  8010d4:	74 13                	je     8010e9 <walk_path+0x2cd>
                    strcpy(lastelem, name);
  8010d6:	48 8d b5 50 ff ff ff 	lea    -0xb0(%rbp),%rsi
  8010dd:	48 b8 5c 31 80 00 00 	movabs $0x80315c,%rax
  8010e4:	00 00 00 
  8010e7:	ff d0                	call   *%rax
                *pf = 0;
  8010e9:	48 8b 85 18 ff ff ff 	mov    -0xe8(%rbp),%rax
  8010f0:	48 c7 00 00 00 00 00 	movq   $0x0,(%rax)
  8010f7:	eb 81                	jmp    80107a <walk_path+0x25e>

00000000008010f9 <file_open>:
}

/* Open "path".  On success set *pf to point at the file and return 0.
 * On error return < 0. */
int
file_open(const char *path, struct File **pf) {
  8010f9:	55                   	push   %rbp
  8010fa:	48 89 e5             	mov    %rsp,%rbp
  8010fd:	48 89 f2             	mov    %rsi,%rdx
    return walk_path(path, 0, pf, 0);
  801100:	b9 00 00 00 00       	mov    $0x0,%ecx
  801105:	be 00 00 00 00       	mov    $0x0,%esi
  80110a:	48 b8 1c 0e 80 00 00 	movabs $0x800e1c,%rax
  801111:	00 00 00 
  801114:	ff d0                	call   *%rax
}
  801116:	5d                   	pop    %rbp
  801117:	c3                   	ret    

0000000000801118 <file_read>:

/* Read count bytes from f into buf, starting from seek position
 * offset.  This meant to mimic the standard pread function.
 * Returns the number of bytes read, < 0 on error. */
ssize_t
file_read(struct File *f, void *buf, size_t count, off_t offset) {
  801118:	55                   	push   %rbp
  801119:	48 89 e5             	mov    %rsp,%rbp
  80111c:	41 57                	push   %r15
  80111e:	41 56                	push   %r14
  801120:	41 55                	push   %r13
  801122:	41 54                	push   %r12
  801124:	53                   	push   %rbx
  801125:	48 83 ec 28          	sub    $0x28,%rsp
  801129:	48 89 7d b8          	mov    %rdi,-0x48(%rbp)
  80112d:	89 cb                	mov    %ecx,%ebx
    char *blk;

    if (offset >= f->f_size)
  80112f:	8b 8f 80 00 00 00    	mov    0x80(%rdi),%ecx
        return 0;
  801135:	b8 00 00 00 00       	mov    $0x0,%eax
    if (offset >= f->f_size)
  80113a:	39 d9                	cmp    %ebx,%ecx
  80113c:	0f 8e 9c 00 00 00    	jle    8011de <file_read+0xc6>
  801142:	49 89 f5             	mov    %rsi,%r13

    count = MIN(count, f->f_size - offset);
  801145:	29 d9                	sub    %ebx,%ecx
  801147:	48 63 c9             	movslq %ecx,%rcx
  80114a:	48 39 d1             	cmp    %rdx,%rcx
  80114d:	48 0f 46 d1          	cmovbe %rcx,%rdx
  801151:	48 89 55 b0          	mov    %rdx,-0x50(%rbp)

    for (off_t pos = offset; pos < offset + count;) {
  801155:	4c 63 f3             	movslq %ebx,%r14
  801158:	4e 8d 3c 32          	lea    (%rdx,%r14,1),%r15
  80115c:	4d 39 fe             	cmp    %r15,%r14
  80115f:	73 79                	jae    8011da <file_read+0xc2>
        int r = file_get_block(f, pos / BLKSIZE, &blk);
  801161:	8d b3 ff 0f 00 00    	lea    0xfff(%rbx),%esi
  801167:	85 db                	test   %ebx,%ebx
  801169:	0f 49 f3             	cmovns %ebx,%esi
  80116c:	c1 fe 0c             	sar    $0xc,%esi
  80116f:	48 8d 55 c8          	lea    -0x38(%rbp),%rdx
  801173:	48 8b 7d b8          	mov    -0x48(%rbp),%rdi
  801177:	48 b8 8a 0d 80 00 00 	movabs $0x800d8a,%rax
  80117e:	00 00 00 
  801181:	ff d0                	call   *%rax
        if (r < 0) return r;
  801183:	85 c0                	test   %eax,%eax
  801185:	78 66                	js     8011ed <file_read+0xd5>

        int bn = MIN(BLKSIZE - pos % BLKSIZE, offset + count - pos);
  801187:	89 d8                	mov    %ebx,%eax
  801189:	c1 f8 1f             	sar    $0x1f,%eax
  80118c:	c1 e8 14             	shr    $0x14,%eax
  80118f:	8d 34 03             	lea    (%rbx,%rax,1),%esi
  801192:	81 e6 ff 0f 00 00    	and    $0xfff,%esi
  801198:	29 c6                	sub    %eax,%esi
  80119a:	48 63 f6             	movslq %esi,%rsi
  80119d:	41 bc 00 10 00 00    	mov    $0x1000,%r12d
  8011a3:	49 29 f4             	sub    %rsi,%r12
  8011a6:	4c 89 f8             	mov    %r15,%rax
  8011a9:	4c 29 f0             	sub    %r14,%rax
  8011ac:	49 39 c4             	cmp    %rax,%r12
  8011af:	4c 0f 47 e0          	cmova  %rax,%r12
        memmove(buf, blk + pos % BLKSIZE, bn);
  8011b3:	4d 63 f4             	movslq %r12d,%r14
  8011b6:	48 03 75 c8          	add    -0x38(%rbp),%rsi
  8011ba:	4c 89 f2             	mov    %r14,%rdx
  8011bd:	4c 89 ef             	mov    %r13,%rdi
  8011c0:	48 b8 57 33 80 00 00 	movabs $0x803357,%rax
  8011c7:	00 00 00 
  8011ca:	ff d0                	call   *%rax
        pos += bn;
  8011cc:	44 01 e3             	add    %r12d,%ebx
        buf += bn;
  8011cf:	4d 01 f5             	add    %r14,%r13
    for (off_t pos = offset; pos < offset + count;) {
  8011d2:	4c 63 f3             	movslq %ebx,%r14
  8011d5:	4d 39 fe             	cmp    %r15,%r14
  8011d8:	72 87                	jb     801161 <file_read+0x49>
    }

    return count;
  8011da:	48 8b 45 b0          	mov    -0x50(%rbp),%rax
}
  8011de:	48 83 c4 28          	add    $0x28,%rsp
  8011e2:	5b                   	pop    %rbx
  8011e3:	41 5c                	pop    %r12
  8011e5:	41 5d                	pop    %r13
  8011e7:	41 5e                	pop    %r14
  8011e9:	41 5f                	pop    %r15
  8011eb:	5d                   	pop    %rbp
  8011ec:	c3                   	ret    
        if (r < 0) return r;
  8011ed:	48 98                	cltq   
  8011ef:	eb ed                	jmp    8011de <file_read+0xc6>

00000000008011f1 <file_set_size>:
    }
}

/* Set the size of file f, truncating or extending as necessary. */
int
file_set_size(struct File *f, off_t newsize) {
  8011f1:	55                   	push   %rbp
  8011f2:	48 89 e5             	mov    %rsp,%rbp
  8011f5:	41 57                	push   %r15
  8011f7:	41 56                	push   %r14
  8011f9:	41 55                	push   %r13
  8011fb:	41 54                	push   %r12
  8011fd:	53                   	push   %rbx
  8011fe:	48 83 ec 28          	sub    $0x28,%rsp
  801202:	49 89 fc             	mov    %rdi,%r12
  801205:	41 89 f5             	mov    %esi,%r13d
    if (f->f_size > newsize)
  801208:	8b 87 80 00 00 00    	mov    0x80(%rdi),%eax
  80120e:	39 f0                	cmp    %esi,%eax
  801210:	7f 2b                	jg     80123d <file_set_size+0x4c>
        file_truncate_blocks(f, newsize);
    f->f_size = newsize;
  801212:	45 89 ac 24 80 00 00 	mov    %r13d,0x80(%r12)
  801219:	00 
    flush_block(f);
  80121a:	4c 89 e7             	mov    %r12,%rdi
  80121d:	48 b8 b7 04 80 00 00 	movabs $0x8004b7,%rax
  801224:	00 00 00 
  801227:	ff d0                	call   *%rax
    return 0;
}
  801229:	b8 00 00 00 00       	mov    $0x0,%eax
  80122e:	48 83 c4 28          	add    $0x28,%rsp
  801232:	5b                   	pop    %rbx
  801233:	41 5c                	pop    %r12
  801235:	41 5d                	pop    %r13
  801237:	41 5e                	pop    %r14
  801239:	41 5f                	pop    %r15
  80123b:	5d                   	pop    %rbp
  80123c:	c3                   	ret    
    blockno_t old_nblocks = CEILDIV(f->f_size, BLKSIZE);
  80123d:	48 98                	cltq   
  80123f:	48 05 ff 0f 00 00    	add    $0xfff,%rax
  801245:	48 c1 e8 0c          	shr    $0xc,%rax
  801249:	41 89 c6             	mov    %eax,%r14d
    blockno_t new_nblocks = CEILDIV(newsize, BLKSIZE);
  80124c:	48 63 d6             	movslq %esi,%rdx
  80124f:	48 81 c2 ff 0f 00 00 	add    $0xfff,%rdx
  801256:	48 c1 ea 0c          	shr    $0xc,%rdx
  80125a:	48 89 55 b8          	mov    %rdx,-0x48(%rbp)
    for (blockno_t bno = new_nblocks; bno < old_nblocks; bno++) {
  80125e:	39 d0                	cmp    %edx,%eax
  801260:	76 0e                	jbe    801270 <file_set_size+0x7f>
  801262:	89 d3                	mov    %edx,%ebx
    int res = file_block_walk(f, filebno, &ptr, 0);
  801264:	49 bf af 0c 80 00 00 	movabs $0x800caf,%r15
  80126b:	00 00 00 
  80126e:	eb 54                	jmp    8012c4 <file_set_size+0xd3>
    if (new_nblocks <= NDIRECT && f->f_indirect) {
  801270:	83 7d b8 0a          	cmpl   $0xa,-0x48(%rbp)
  801274:	77 9c                	ja     801212 <file_set_size+0x21>
  801276:	41 8b bc 24 b0 00 00 	mov    0xb0(%r12),%edi
  80127d:	00 
  80127e:	85 ff                	test   %edi,%edi
  801280:	74 90                	je     801212 <file_set_size+0x21>
        free_block(f->f_indirect);
  801282:	48 b8 fb 09 80 00 00 	movabs $0x8009fb,%rax
  801289:	00 00 00 
  80128c:	ff d0                	call   *%rax
        f->f_indirect = 0;
  80128e:	41 c7 84 24 b0 00 00 	movl   $0x0,0xb0(%r12)
  801295:	00 00 00 00 00 
  80129a:	e9 73 ff ff ff       	jmp    801212 <file_set_size+0x21>
        if (res < 0) cprintf("warning: file_free_block: %i", res);
  80129f:	89 c6                	mov    %eax,%esi
  8012a1:	48 bf f1 54 80 00 00 	movabs $0x8054f1,%rdi
  8012a8:	00 00 00 
  8012ab:	b8 00 00 00 00       	mov    $0x0,%eax
  8012b0:	48 b9 1b 28 80 00 00 	movabs $0x80281b,%rcx
  8012b7:	00 00 00 
  8012ba:	ff d1                	call   *%rcx
    for (blockno_t bno = new_nblocks; bno < old_nblocks; bno++) {
  8012bc:	83 c3 01             	add    $0x1,%ebx
  8012bf:	41 39 de             	cmp    %ebx,%r14d
  8012c2:	76 ac                	jbe    801270 <file_set_size+0x7f>
    int res = file_block_walk(f, filebno, &ptr, 0);
  8012c4:	b9 00 00 00 00       	mov    $0x0,%ecx
  8012c9:	48 8d 55 c8          	lea    -0x38(%rbp),%rdx
  8012cd:	89 de                	mov    %ebx,%esi
  8012cf:	4c 89 e7             	mov    %r12,%rdi
  8012d2:	41 ff d7             	call   *%r15
    if (res < 0) return res;
  8012d5:	85 c0                	test   %eax,%eax
  8012d7:	78 c6                	js     80129f <file_set_size+0xae>
    if (*ptr) {
  8012d9:	48 8b 45 c8          	mov    -0x38(%rbp),%rax
  8012dd:	8b 38                	mov    (%rax),%edi
  8012df:	85 ff                	test   %edi,%edi
  8012e1:	74 d9                	je     8012bc <file_set_size+0xcb>
        free_block(*ptr);
  8012e3:	48 b8 fb 09 80 00 00 	movabs $0x8009fb,%rax
  8012ea:	00 00 00 
  8012ed:	ff d0                	call   *%rax
        *ptr = 0;
  8012ef:	48 8b 45 c8          	mov    -0x38(%rbp),%rax
  8012f3:	c7 00 00 00 00 00    	movl   $0x0,(%rax)
  8012f9:	eb c1                	jmp    8012bc <file_set_size+0xcb>

00000000008012fb <file_write>:
file_write(struct File *f, const void *buf, size_t count, off_t offset) {
  8012fb:	55                   	push   %rbp
  8012fc:	48 89 e5             	mov    %rsp,%rbp
  8012ff:	41 57                	push   %r15
  801301:	41 56                	push   %r14
  801303:	41 55                	push   %r13
  801305:	41 54                	push   %r12
  801307:	53                   	push   %rbx
  801308:	48 83 ec 28          	sub    $0x28,%rsp
  80130c:	48 89 7d b8          	mov    %rdi,-0x48(%rbp)
  801310:	49 89 f5             	mov    %rsi,%r13
  801313:	48 89 55 b0          	mov    %rdx,-0x50(%rbp)
  801317:	89 cb                	mov    %ecx,%ebx
    if (offset + count > f->f_size)
  801319:	4c 63 e1             	movslq %ecx,%r12
  80131c:	4d 8d 34 14          	lea    (%r12,%rdx,1),%r14
  801320:	48 63 87 80 00 00 00 	movslq 0x80(%rdi),%rax
  801327:	49 39 c6             	cmp    %rax,%r14
  80132a:	0f 87 98 00 00 00    	ja     8013c8 <file_write+0xcd>
        if ((res = file_get_block(f, pos / BLKSIZE, &blk)) < 0) return res;
  801330:	49 bf 8a 0d 80 00 00 	movabs $0x800d8a,%r15
  801337:	00 00 00 
    for (off_t pos = offset; pos < offset + count;) {
  80133a:	4d 39 f4             	cmp    %r14,%r12
  80133d:	73 76                	jae    8013b5 <file_write+0xba>
        if ((res = file_get_block(f, pos / BLKSIZE, &blk)) < 0) return res;
  80133f:	8d b3 ff 0f 00 00    	lea    0xfff(%rbx),%esi
  801345:	85 db                	test   %ebx,%ebx
  801347:	0f 49 f3             	cmovns %ebx,%esi
  80134a:	c1 fe 0c             	sar    $0xc,%esi
  80134d:	48 8d 55 c8          	lea    -0x38(%rbp),%rdx
  801351:	48 8b 7d b8          	mov    -0x48(%rbp),%rdi
  801355:	41 ff d7             	call   *%r15
  801358:	85 c0                	test   %eax,%eax
  80135a:	0f 88 88 00 00 00    	js     8013e8 <file_write+0xed>
        uint32_t bn = MIN(BLKSIZE - pos % BLKSIZE, offset + count - pos);
  801360:	89 d8                	mov    %ebx,%eax
  801362:	c1 f8 1f             	sar    $0x1f,%eax
  801365:	c1 e8 14             	shr    $0x14,%eax
  801368:	8d 3c 03             	lea    (%rbx,%rax,1),%edi
  80136b:	81 e7 ff 0f 00 00    	and    $0xfff,%edi
  801371:	29 c7                	sub    %eax,%edi
  801373:	48 63 ff             	movslq %edi,%rdi
  801376:	ba 00 10 00 00       	mov    $0x1000,%edx
  80137b:	48 29 fa             	sub    %rdi,%rdx
  80137e:	4c 89 f0             	mov    %r14,%rax
  801381:	4c 29 e0             	sub    %r12,%rax
  801384:	48 39 c2             	cmp    %rax,%rdx
  801387:	48 0f 46 c2          	cmovbe %rdx,%rax
  80138b:	49 89 c4             	mov    %rax,%r12
        memmove(blk + pos % BLKSIZE, buf, bn);
  80138e:	48 03 7d c8          	add    -0x38(%rbp),%rdi
  801392:	48 89 c2             	mov    %rax,%rdx
  801395:	4c 89 ee             	mov    %r13,%rsi
  801398:	48 b8 57 33 80 00 00 	movabs $0x803357,%rax
  80139f:	00 00 00 
  8013a2:	ff d0                	call   *%rax
        pos += bn;
  8013a4:	42 8d 04 23          	lea    (%rbx,%r12,1),%eax
  8013a8:	89 c3                	mov    %eax,%ebx
        buf += bn;
  8013aa:	4d 01 e5             	add    %r12,%r13
    for (off_t pos = offset; pos < offset + count;) {
  8013ad:	4c 63 e0             	movslq %eax,%r12
  8013b0:	4d 39 e6             	cmp    %r12,%r14
  8013b3:	77 8a                	ja     80133f <file_write+0x44>
    return count;
  8013b5:	48 8b 45 b0          	mov    -0x50(%rbp),%rax
}
  8013b9:	48 83 c4 28          	add    $0x28,%rsp
  8013bd:	5b                   	pop    %rbx
  8013be:	41 5c                	pop    %r12
  8013c0:	41 5d                	pop    %r13
  8013c2:	41 5e                	pop    %r14
  8013c4:	41 5f                	pop    %r15
  8013c6:	5d                   	pop    %rbp
  8013c7:	c3                   	ret    
        if ((res = file_set_size(f, offset + count)) < 0) return res;
  8013c8:	8b 45 b0             	mov    -0x50(%rbp),%eax
  8013cb:	8d 34 01             	lea    (%rcx,%rax,1),%esi
  8013ce:	48 b8 f1 11 80 00 00 	movabs $0x8011f1,%rax
  8013d5:	00 00 00 
  8013d8:	ff d0                	call   *%rax
  8013da:	89 c2                	mov    %eax,%edx
  8013dc:	48 98                	cltq   
  8013de:	85 d2                	test   %edx,%edx
  8013e0:	0f 89 4a ff ff ff    	jns    801330 <file_write+0x35>
  8013e6:	eb d1                	jmp    8013b9 <file_write+0xbe>
        if ((res = file_get_block(f, pos / BLKSIZE, &blk)) < 0) return res;
  8013e8:	48 98                	cltq   
  8013ea:	eb cd                	jmp    8013b9 <file_write+0xbe>

00000000008013ec <file_flush>:
/* Flush the contents and metadata of file f out to disk.
 * Loop over all the blocks in file.
 * Translate the file block number into a disk block number
 * and then check whether that disk block is dirty.  If so, write it out. */
void
file_flush(struct File *f) {
  8013ec:	55                   	push   %rbp
  8013ed:	48 89 e5             	mov    %rsp,%rbp
  8013f0:	41 57                	push   %r15
  8013f2:	41 56                	push   %r14
  8013f4:	41 55                	push   %r13
  8013f6:	41 54                	push   %r12
  8013f8:	53                   	push   %rbx
  8013f9:	48 83 ec 18          	sub    $0x18,%rsp
  8013fd:	49 89 fc             	mov    %rdi,%r12
    blockno_t *pdiskbno;

    for (blockno_t i = 0; i < CEILDIV(f->f_size, BLKSIZE); i++) {
  801400:	48 63 87 80 00 00 00 	movslq 0x80(%rdi),%rax
  801407:	48 05 ff 0f 00 00    	add    $0xfff,%rax
  80140d:	48 c1 e8 0c          	shr    $0xc,%rax
  801411:	85 c0                	test   %eax,%eax
  801413:	74 6d                	je     801482 <file_flush+0x96>
  801415:	bb 00 00 00 00       	mov    $0x0,%ebx
        if (file_block_walk(f, i, &pdiskbno, 0) < 0 ||
  80141a:	49 bd af 0c 80 00 00 	movabs $0x800caf,%r13
  801421:	00 00 00 
            pdiskbno == NULL || *pdiskbno == 0)
            continue;
        flush_block(diskaddr(*pdiskbno));
  801424:	49 bf 61 04 80 00 00 	movabs $0x800461,%r15
  80142b:	00 00 00 
  80142e:	49 be b7 04 80 00 00 	movabs $0x8004b7,%r14
  801435:	00 00 00 
  801438:	eb 19                	jmp    801453 <file_flush+0x67>
    for (blockno_t i = 0; i < CEILDIV(f->f_size, BLKSIZE); i++) {
  80143a:	83 c3 01             	add    $0x1,%ebx
  80143d:	49 63 84 24 80 00 00 	movslq 0x80(%r12),%rax
  801444:	00 
  801445:	48 05 ff 0f 00 00    	add    $0xfff,%rax
  80144b:	48 c1 e8 0c          	shr    $0xc,%rax
  80144f:	39 c3                	cmp    %eax,%ebx
  801451:	73 2f                	jae    801482 <file_flush+0x96>
        if (file_block_walk(f, i, &pdiskbno, 0) < 0 ||
  801453:	b9 00 00 00 00       	mov    $0x0,%ecx
  801458:	48 8d 55 c8          	lea    -0x38(%rbp),%rdx
  80145c:	89 de                	mov    %ebx,%esi
  80145e:	4c 89 e7             	mov    %r12,%rdi
  801461:	41 ff d5             	call   *%r13
  801464:	85 c0                	test   %eax,%eax
  801466:	78 d2                	js     80143a <file_flush+0x4e>
            pdiskbno == NULL || *pdiskbno == 0)
  801468:	48 8b 45 c8          	mov    -0x38(%rbp),%rax
        if (file_block_walk(f, i, &pdiskbno, 0) < 0 ||
  80146c:	48 85 c0             	test   %rax,%rax
  80146f:	74 c9                	je     80143a <file_flush+0x4e>
            pdiskbno == NULL || *pdiskbno == 0)
  801471:	8b 38                	mov    (%rax),%edi
  801473:	85 ff                	test   %edi,%edi
  801475:	74 c3                	je     80143a <file_flush+0x4e>
        flush_block(diskaddr(*pdiskbno));
  801477:	41 ff d7             	call   *%r15
  80147a:	48 89 c7             	mov    %rax,%rdi
  80147d:	41 ff d6             	call   *%r14
  801480:	eb b8                	jmp    80143a <file_flush+0x4e>
    }
    if (f->f_indirect)
  801482:	41 8b bc 24 b0 00 00 	mov    0xb0(%r12),%edi
  801489:	00 
  80148a:	85 ff                	test   %edi,%edi
  80148c:	75 1e                	jne    8014ac <file_flush+0xc0>
        flush_block(diskaddr(f->f_indirect));
    flush_block(f);
  80148e:	4c 89 e7             	mov    %r12,%rdi
  801491:	48 b8 b7 04 80 00 00 	movabs $0x8004b7,%rax
  801498:	00 00 00 
  80149b:	ff d0                	call   *%rax
}
  80149d:	48 83 c4 18          	add    $0x18,%rsp
  8014a1:	5b                   	pop    %rbx
  8014a2:	41 5c                	pop    %r12
  8014a4:	41 5d                	pop    %r13
  8014a6:	41 5e                	pop    %r14
  8014a8:	41 5f                	pop    %r15
  8014aa:	5d                   	pop    %rbp
  8014ab:	c3                   	ret    
        flush_block(diskaddr(f->f_indirect));
  8014ac:	48 b8 61 04 80 00 00 	movabs $0x800461,%rax
  8014b3:	00 00 00 
  8014b6:	ff d0                	call   *%rax
  8014b8:	48 89 c7             	mov    %rax,%rdi
  8014bb:	48 b8 b7 04 80 00 00 	movabs $0x8004b7,%rax
  8014c2:	00 00 00 
  8014c5:	ff d0                	call   *%rax
  8014c7:	eb c5                	jmp    80148e <file_flush+0xa2>

00000000008014c9 <file_create>:
file_create(const char *path, struct File **pf) {
  8014c9:	55                   	push   %rbp
  8014ca:	48 89 e5             	mov    %rsp,%rbp
  8014cd:	41 57                	push   %r15
  8014cf:	41 56                	push   %r14
  8014d1:	41 55                	push   %r13
  8014d3:	41 54                	push   %r12
  8014d5:	53                   	push   %rbx
  8014d6:	48 81 ec a8 00 00 00 	sub    $0xa8,%rsp
  8014dd:	48 89 f3             	mov    %rsi,%rbx
    if (!(res = walk_path(path, &dir, &filp, name))) return -E_FILE_EXISTS;
  8014e0:	48 8d 8d 50 ff ff ff 	lea    -0xb0(%rbp),%rcx
  8014e7:	48 8d 95 40 ff ff ff 	lea    -0xc0(%rbp),%rdx
  8014ee:	48 8d b5 48 ff ff ff 	lea    -0xb8(%rbp),%rsi
  8014f5:	48 b8 1c 0e 80 00 00 	movabs $0x800e1c,%rax
  8014fc:	00 00 00 
  8014ff:	ff d0                	call   *%rax
  801501:	85 c0                	test   %eax,%eax
  801503:	0f 84 56 01 00 00    	je     80165f <file_create+0x196>
    if (res != -E_NOT_FOUND || dir == 0) return res;
  801509:	83 f8 f1             	cmp    $0xfffffff1,%eax
  80150c:	0f 85 3b 01 00 00    	jne    80164d <file_create+0x184>
  801512:	4c 8b ad 48 ff ff ff 	mov    -0xb8(%rbp),%r13
  801519:	4d 85 ed             	test   %r13,%r13
  80151c:	0f 84 2b 01 00 00    	je     80164d <file_create+0x184>
    assert((dir->f_size % BLKSIZE) == 0);
  801522:	41 8b 85 80 00 00 00 	mov    0x80(%r13),%eax
  801529:	41 89 c6             	mov    %eax,%r14d
  80152c:	41 81 e6 ff 0f 00 00 	and    $0xfff,%r14d
  801533:	0f 85 9c 00 00 00    	jne    8015d5 <file_create+0x10c>
    blockno_t nblock = dir->f_size / BLKSIZE;
  801539:	44 8d a0 ff 0f 00 00 	lea    0xfff(%rax),%r12d
  801540:	85 c0                	test   %eax,%eax
  801542:	44 0f 49 e0          	cmovns %eax,%r12d
    for (blockno_t i = 0; i < nblock; i++) {
  801546:	41 c1 fc 0c          	sar    $0xc,%r12d
  80154a:	74 4d                	je     801599 <file_create+0xd0>
        int res = file_get_block(dir, i, &blk);
  80154c:	49 bf 8a 0d 80 00 00 	movabs $0x800d8a,%r15
  801553:	00 00 00 
  801556:	48 8d 95 38 ff ff ff 	lea    -0xc8(%rbp),%rdx
  80155d:	44 89 f6             	mov    %r14d,%esi
  801560:	4c 89 ef             	mov    %r13,%rdi
  801563:	41 ff d7             	call   *%r15
        if (res < 0) return res;
  801566:	85 c0                	test   %eax,%eax
  801568:	0f 88 df 00 00 00    	js     80164d <file_create+0x184>
        for (blockno_t j = 0; j < BLKFILES; j++) {
  80156e:	48 8b 85 38 ff ff ff 	mov    -0xc8(%rbp),%rax
  801575:	48 8d 90 00 10 00 00 	lea    0x1000(%rax),%rdx
            if (f[j].f_name[0] == '\0') {
  80157c:	80 38 00             	cmpb   $0x0,(%rax)
  80157f:	0f 84 85 00 00 00    	je     80160a <file_create+0x141>
        for (blockno_t j = 0; j < BLKFILES; j++) {
  801585:	48 05 00 01 00 00    	add    $0x100,%rax
  80158b:	48 39 d0             	cmp    %rdx,%rax
  80158e:	75 ec                	jne    80157c <file_create+0xb3>
    for (blockno_t i = 0; i < nblock; i++) {
  801590:	41 83 c6 01          	add    $0x1,%r14d
  801594:	45 39 f4             	cmp    %r14d,%r12d
  801597:	75 bd                	jne    801556 <file_create+0x8d>
    dir->f_size += BLKSIZE;
  801599:	41 81 85 80 00 00 00 	addl   $0x1000,0x80(%r13)
  8015a0:	00 10 00 00 
    int res = file_get_block(dir, nblock, &blk);
  8015a4:	48 8d 95 38 ff ff ff 	lea    -0xc8(%rbp),%rdx
  8015ab:	44 89 e6             	mov    %r12d,%esi
  8015ae:	4c 89 ef             	mov    %r13,%rdi
  8015b1:	48 b8 8a 0d 80 00 00 	movabs $0x800d8a,%rax
  8015b8:	00 00 00 
  8015bb:	ff d0                	call   *%rax
    if (res < 0) return res;
  8015bd:	85 c0                	test   %eax,%eax
  8015bf:	0f 88 88 00 00 00    	js     80164d <file_create+0x184>
    *file = (struct File *)blk;
  8015c5:	48 8b 85 38 ff ff ff 	mov    -0xc8(%rbp),%rax
  8015cc:	48 89 85 40 ff ff ff 	mov    %rax,-0xc0(%rbp)
    return 0;
  8015d3:	eb 3c                	jmp    801611 <file_create+0x148>
    assert((dir->f_size % BLKSIZE) == 0);
  8015d5:	48 b9 d4 54 80 00 00 	movabs $0x8054d4,%rcx
  8015dc:	00 00 00 
  8015df:	48 ba ad 52 80 00 00 	movabs $0x8052ad,%rdx
  8015e6:	00 00 00 
  8015e9:	be e3 00 00 00       	mov    $0xe3,%esi
  8015ee:	48 bf 3a 54 80 00 00 	movabs $0x80543a,%rdi
  8015f5:	00 00 00 
  8015f8:	b8 00 00 00 00       	mov    $0x0,%eax
  8015fd:	49 b8 cb 26 80 00 00 	movabs $0x8026cb,%r8
  801604:	00 00 00 
  801607:	41 ff d0             	call   *%r8
                *file = &f[j];
  80160a:	48 89 85 40 ff ff ff 	mov    %rax,-0xc0(%rbp)
    strcpy(filp->f_name, name);
  801611:	48 8d b5 50 ff ff ff 	lea    -0xb0(%rbp),%rsi
  801618:	48 8b bd 40 ff ff ff 	mov    -0xc0(%rbp),%rdi
  80161f:	48 b8 5c 31 80 00 00 	movabs $0x80315c,%rax
  801626:	00 00 00 
  801629:	ff d0                	call   *%rax
    *pf = filp;
  80162b:	48 8b 85 40 ff ff ff 	mov    -0xc0(%rbp),%rax
  801632:	48 89 03             	mov    %rax,(%rbx)
    file_flush(dir);
  801635:	48 8b bd 48 ff ff ff 	mov    -0xb8(%rbp),%rdi
  80163c:	48 b8 ec 13 80 00 00 	movabs $0x8013ec,%rax
  801643:	00 00 00 
  801646:	ff d0                	call   *%rax
    return 0;
  801648:	b8 00 00 00 00       	mov    $0x0,%eax
}
  80164d:	48 81 c4 a8 00 00 00 	add    $0xa8,%rsp
  801654:	5b                   	pop    %rbx
  801655:	41 5c                	pop    %r12
  801657:	41 5d                	pop    %r13
  801659:	41 5e                	pop    %r14
  80165b:	41 5f                	pop    %r15
  80165d:	5d                   	pop    %rbp
  80165e:	c3                   	ret    
    if (!(res = walk_path(path, &dir, &filp, name))) return -E_FILE_EXISTS;
  80165f:	b8 ef ff ff ff       	mov    $0xffffffef,%eax
  801664:	eb e7                	jmp    80164d <file_create+0x184>

0000000000801666 <fs_sync>:

/* Sync the entire file system.  A big hammer. */
void
fs_sync(void) {
    for (int i = 1; i < super->s_nblocks; i++) {
  801666:	48 a1 08 b0 80 00 00 	movabs 0x80b008,%rax
  80166d:	00 00 00 
  801670:	83 78 04 01          	cmpl   $0x1,0x4(%rax)
  801674:	76 4e                	jbe    8016c4 <fs_sync+0x5e>
fs_sync(void) {
  801676:	55                   	push   %rbp
  801677:	48 89 e5             	mov    %rsp,%rbp
  80167a:	41 56                	push   %r14
  80167c:	41 55                	push   %r13
  80167e:	41 54                	push   %r12
  801680:	53                   	push   %rbx
    for (int i = 1; i < super->s_nblocks; i++) {
  801681:	bb 01 00 00 00       	mov    $0x1,%ebx
        flush_block(diskaddr(i));
  801686:	49 be 61 04 80 00 00 	movabs $0x800461,%r14
  80168d:	00 00 00 
  801690:	49 bd b7 04 80 00 00 	movabs $0x8004b7,%r13
  801697:	00 00 00 
    for (int i = 1; i < super->s_nblocks; i++) {
  80169a:	49 bc 08 b0 80 00 00 	movabs $0x80b008,%r12
  8016a1:	00 00 00 
        flush_block(diskaddr(i));
  8016a4:	89 df                	mov    %ebx,%edi
  8016a6:	41 ff d6             	call   *%r14
  8016a9:	48 89 c7             	mov    %rax,%rdi
  8016ac:	41 ff d5             	call   *%r13
    for (int i = 1; i < super->s_nblocks; i++) {
  8016af:	83 c3 01             	add    $0x1,%ebx
  8016b2:	49 8b 04 24          	mov    (%r12),%rax
  8016b6:	39 58 04             	cmp    %ebx,0x4(%rax)
  8016b9:	77 e9                	ja     8016a4 <fs_sync+0x3e>
    }
}
  8016bb:	5b                   	pop    %rbx
  8016bc:	41 5c                	pop    %r12
  8016be:	41 5d                	pop    %r13
  8016c0:	41 5e                	pop    %r14
  8016c2:	5d                   	pop    %rbp
  8016c3:	c3                   	ret    
  8016c4:	c3                   	ret    

00000000008016c5 <serve_sync>:
    file_flush(o->o_file);
    return 0;
}

int
serve_sync(envid_t envid, union Fsipc *req) {
  8016c5:	55                   	push   %rbp
  8016c6:	48 89 e5             	mov    %rsp,%rbp
    fs_sync();
  8016c9:	48 b8 66 16 80 00 00 	movabs $0x801666,%rax
  8016d0:	00 00 00 
  8016d3:	ff d0                	call   *%rax
    return 0;
}
  8016d5:	b8 00 00 00 00       	mov    $0x0,%eax
  8016da:	5d                   	pop    %rbp
  8016db:	c3                   	ret    

00000000008016dc <serve_init>:
    for (size_t i = 0; i < MAXOPEN; i++) {
  8016dc:	48 ba 80 60 80 00 00 	movabs $0x806080,%rdx
  8016e3:	00 00 00 
  8016e6:	b9 00 00 00 00       	mov    $0x0,%ecx
    uintptr_t va = FILE_BASE;
  8016eb:	48 b8 00 00 00 00 02 	movabs $0x200000000,%rax
  8016f2:	00 00 00 
    for (size_t i = 0; i < MAXOPEN; i++) {
  8016f5:	48 be 00 00 20 00 02 	movabs $0x200200000,%rsi
  8016fc:	00 00 00 
        opentab[i].o_fileid = i;
  8016ff:	89 0a                	mov    %ecx,(%rdx)
        opentab[i].o_fd = (struct Fd *)va;
  801701:	48 89 42 18          	mov    %rax,0x18(%rdx)
        va += PAGE_SIZE;
  801705:	48 05 00 10 00 00    	add    $0x1000,%rax
    for (size_t i = 0; i < MAXOPEN; i++) {
  80170b:	48 83 c1 01          	add    $0x1,%rcx
  80170f:	48 83 c2 20          	add    $0x20,%rdx
  801713:	48 39 f0             	cmp    %rsi,%rax
  801716:	75 e7                	jne    8016ff <serve_init+0x23>
}
  801718:	c3                   	ret    

0000000000801719 <openfile_alloc>:
openfile_alloc(struct OpenFile **o) {
  801719:	55                   	push   %rbp
  80171a:	48 89 e5             	mov    %rsp,%rbp
  80171d:	41 56                	push   %r14
  80171f:	41 55                	push   %r13
  801721:	41 54                	push   %r12
  801723:	53                   	push   %rbx
  801724:	49 89 fc             	mov    %rdi,%r12
    for (size_t i = 0; i < MAXOPEN; i++) {
  801727:	49 bd 98 60 80 00 00 	movabs $0x806098,%r13
  80172e:	00 00 00 
  801731:	bb 00 00 00 00       	mov    $0x0,%ebx
        switch (sys_region_refs(opentab[i].o_fd, PAGE_SIZE)) {
  801736:	49 be b8 36 80 00 00 	movabs $0x8036b8,%r14
  80173d:	00 00 00 
  801740:	be 00 10 00 00       	mov    $0x1000,%esi
  801745:	49 8b 7d 00          	mov    0x0(%r13),%rdi
  801749:	41 ff d6             	call   *%r14
  80174c:	85 c0                	test   %eax,%eax
  80174e:	74 1d                	je     80176d <openfile_alloc+0x54>
  801750:	83 f8 01             	cmp    $0x1,%eax
  801753:	74 4d                	je     8017a2 <openfile_alloc+0x89>
    for (size_t i = 0; i < MAXOPEN; i++) {
  801755:	48 83 c3 01          	add    $0x1,%rbx
  801759:	49 83 c5 20          	add    $0x20,%r13
  80175d:	48 81 fb 00 02 00 00 	cmp    $0x200,%rbx
  801764:	75 da                	jne    801740 <openfile_alloc+0x27>
    return -E_MAX_OPEN;
  801766:	b8 f2 ff ff ff       	mov    $0xfffffff2,%eax
  80176b:	eb 70                	jmp    8017dd <openfile_alloc+0xc4>
            int res = sys_alloc_region(0, opentab[i].o_fd, PAGE_SIZE, PROT_RW);
  80176d:	48 89 d8             	mov    %rbx,%rax
  801770:	48 c1 e0 05          	shl    $0x5,%rax
  801774:	b9 06 00 00 00       	mov    $0x6,%ecx
  801779:	ba 00 10 00 00       	mov    $0x1000,%edx
  80177e:	48 be 80 60 80 00 00 	movabs $0x806080,%rsi
  801785:	00 00 00 
  801788:	48 8b 74 06 18       	mov    0x18(%rsi,%rax,1),%rsi
  80178d:	bf 00 00 00 00       	mov    $0x0,%edi
  801792:	48 b8 16 37 80 00 00 	movabs $0x803716,%rax
  801799:	00 00 00 
  80179c:	ff d0                	call   *%rax
            if (res < 0) return res;
  80179e:	85 c0                	test   %eax,%eax
  8017a0:	78 3b                	js     8017dd <openfile_alloc+0xc4>
            opentab[i].o_fileid += MAXOPEN;
  8017a2:	48 c1 e3 05          	shl    $0x5,%rbx
  8017a6:	48 b8 80 60 80 00 00 	movabs $0x806080,%rax
  8017ad:	00 00 00 
  8017b0:	48 01 c3             	add    %rax,%rbx
  8017b3:	81 03 00 02 00 00    	addl   $0x200,(%rbx)
            *o = &opentab[i];
  8017b9:	49 89 1c 24          	mov    %rbx,(%r12)
            memset(opentab[i].o_fd, 0, PAGE_SIZE);
  8017bd:	ba 00 10 00 00       	mov    $0x1000,%edx
  8017c2:	be 00 00 00 00       	mov    $0x0,%esi
  8017c7:	48 8b 7b 18          	mov    0x18(%rbx),%rdi
  8017cb:	48 b8 ad 32 80 00 00 	movabs $0x8032ad,%rax
  8017d2:	00 00 00 
  8017d5:	ff d0                	call   *%rax
            return (*o)->o_fileid;
  8017d7:	49 8b 04 24          	mov    (%r12),%rax
  8017db:	8b 00                	mov    (%rax),%eax
}
  8017dd:	5b                   	pop    %rbx
  8017de:	41 5c                	pop    %r12
  8017e0:	41 5d                	pop    %r13
  8017e2:	41 5e                	pop    %r14
  8017e4:	5d                   	pop    %rbp
  8017e5:	c3                   	ret    

00000000008017e6 <openfile_lookup>:
openfile_lookup(envid_t envid, uint32_t fileid, struct OpenFile **po) {
  8017e6:	55                   	push   %rbp
  8017e7:	48 89 e5             	mov    %rsp,%rbp
  8017ea:	41 56                	push   %r14
  8017ec:	41 55                	push   %r13
  8017ee:	41 54                	push   %r12
  8017f0:	53                   	push   %rbx
  8017f1:	41 89 f5             	mov    %esi,%r13d
  8017f4:	49 89 d6             	mov    %rdx,%r14
    o = &opentab[fileid % MAXOPEN];
  8017f7:	41 89 f4             	mov    %esi,%r12d
  8017fa:	41 81 e4 ff 01 00 00 	and    $0x1ff,%r12d
  801801:	44 89 e3             	mov    %r12d,%ebx
  801804:	48 c1 e3 05          	shl    $0x5,%rbx
  801808:	48 b8 80 60 80 00 00 	movabs $0x806080,%rax
  80180f:	00 00 00 
  801812:	48 01 c3             	add    %rax,%rbx
    if (sys_region_refs(o->o_fd, PAGE_SIZE) <= 1 || o->o_fileid != fileid)
  801815:	be 00 10 00 00       	mov    $0x1000,%esi
  80181a:	48 8b 7b 18          	mov    0x18(%rbx),%rdi
  80181e:	48 b8 b8 36 80 00 00 	movabs $0x8036b8,%rax
  801825:	00 00 00 
  801828:	ff d0                	call   *%rax
  80182a:	83 f8 01             	cmp    $0x1,%eax
  80182d:	7e 28                	jle    801857 <openfile_lookup+0x71>
  80182f:	45 89 e4             	mov    %r12d,%r12d
  801832:	49 c1 e4 05          	shl    $0x5,%r12
  801836:	48 b8 80 60 80 00 00 	movabs $0x806080,%rax
  80183d:	00 00 00 
  801840:	46 39 2c 20          	cmp    %r13d,(%rax,%r12,1)
  801844:	75 18                	jne    80185e <openfile_lookup+0x78>
    *po = o;
  801846:	49 89 1e             	mov    %rbx,(%r14)
    return 0;
  801849:	b8 00 00 00 00       	mov    $0x0,%eax
}
  80184e:	5b                   	pop    %rbx
  80184f:	41 5c                	pop    %r12
  801851:	41 5d                	pop    %r13
  801853:	41 5e                	pop    %r14
  801855:	5d                   	pop    %rbp
  801856:	c3                   	ret    
        return -E_INVAL;
  801857:	b8 fd ff ff ff       	mov    $0xfffffffd,%eax
  80185c:	eb f0                	jmp    80184e <openfile_lookup+0x68>
  80185e:	b8 fd ff ff ff       	mov    $0xfffffffd,%eax
  801863:	eb e9                	jmp    80184e <openfile_lookup+0x68>

0000000000801865 <serve_set_size>:
serve_set_size(envid_t envid, union Fsipc *ipc) {
  801865:	55                   	push   %rbp
  801866:	48 89 e5             	mov    %rsp,%rbp
  801869:	53                   	push   %rbx
  80186a:	48 83 ec 18          	sub    $0x18,%rsp
  80186e:	48 89 f3             	mov    %rsi,%rbx
    if ((r = openfile_lookup(envid, req->req_fileid, &o)) < 0)
  801871:	48 8d 55 e8          	lea    -0x18(%rbp),%rdx
  801875:	8b 36                	mov    (%rsi),%esi
  801877:	48 b8 e6 17 80 00 00 	movabs $0x8017e6,%rax
  80187e:	00 00 00 
  801881:	ff d0                	call   *%rax
  801883:	85 c0                	test   %eax,%eax
  801885:	78 17                	js     80189e <serve_set_size+0x39>
    return file_set_size(o->o_file, req->req_size);
  801887:	8b 73 04             	mov    0x4(%rbx),%esi
  80188a:	48 8b 45 e8          	mov    -0x18(%rbp),%rax
  80188e:	48 8b 78 08          	mov    0x8(%rax),%rdi
  801892:	48 b8 f1 11 80 00 00 	movabs $0x8011f1,%rax
  801899:	00 00 00 
  80189c:	ff d0                	call   *%rax
}
  80189e:	48 8b 5d f8          	mov    -0x8(%rbp),%rbx
  8018a2:	c9                   	leave  
  8018a3:	c3                   	ret    

00000000008018a4 <serve_read>:
serve_read(envid_t envid, union Fsipc *ipc) {
  8018a4:	55                   	push   %rbp
  8018a5:	48 89 e5             	mov    %rsp,%rbp
  8018a8:	53                   	push   %rbx
  8018a9:	48 83 ec 18          	sub    $0x18,%rsp
  8018ad:	48 89 f3             	mov    %rsi,%rbx
    if ((r = openfile_lookup(envid, req->req_fileid, &o)) < 0)
  8018b0:	48 8d 55 e8          	lea    -0x18(%rbp),%rdx
  8018b4:	8b 36                	mov    (%rsi),%esi
  8018b6:	48 b8 e6 17 80 00 00 	movabs $0x8017e6,%rax
  8018bd:	00 00 00 
  8018c0:	ff d0                	call   *%rax
  8018c2:	85 c0                	test   %eax,%eax
  8018c4:	78 44                	js     80190a <serve_read+0x66>
    if (req->req_n > PAGE_SIZE) {
  8018c6:	48 81 7b 08 00 10 00 	cmpq   $0x1000,0x8(%rbx)
  8018cd:	00 
  8018ce:	76 08                	jbe    8018d8 <serve_read+0x34>
        req->req_n = PAGE_SIZE;
  8018d0:	48 c7 43 08 00 10 00 	movq   $0x1000,0x8(%rbx)
  8018d7:	00 
    ssize_t num = file_read(o->o_file, &ipc->readRet.ret_buf, req->req_n, o->o_fd->fd_offset);
  8018d8:	48 8b 45 e8          	mov    -0x18(%rbp),%rax
  8018dc:	48 8b 50 18          	mov    0x18(%rax),%rdx
  8018e0:	8b 4a 04             	mov    0x4(%rdx),%ecx
  8018e3:	48 8b 53 08          	mov    0x8(%rbx),%rdx
  8018e7:	48 8b 78 08          	mov    0x8(%rax),%rdi
  8018eb:	48 89 de             	mov    %rbx,%rsi
  8018ee:	48 b8 18 11 80 00 00 	movabs $0x801118,%rax
  8018f5:	00 00 00 
  8018f8:	ff d0                	call   *%rax
    if (num > 0)
  8018fa:	48 85 c0             	test   %rax,%rax
  8018fd:	7e 0b                	jle    80190a <serve_read+0x66>
        o->o_fd->fd_offset += num;
  8018ff:	48 8b 55 e8          	mov    -0x18(%rbp),%rdx
  801903:	48 8b 52 18          	mov    0x18(%rdx),%rdx
  801907:	01 42 04             	add    %eax,0x4(%rdx)
}
  80190a:	48 8b 5d f8          	mov    -0x8(%rbp),%rbx
  80190e:	c9                   	leave  
  80190f:	c3                   	ret    

0000000000801910 <serve_write>:
serve_write(envid_t envid, union Fsipc *ipc) {
  801910:	55                   	push   %rbp
  801911:	48 89 e5             	mov    %rsp,%rbp
  801914:	53                   	push   %rbx
  801915:	48 83 ec 18          	sub    $0x18,%rsp
  801919:	48 89 f3             	mov    %rsi,%rbx
    if ((r = openfile_lookup(envid, req->req_fileid, &o)) < 0)
  80191c:	48 8d 55 e8          	lea    -0x18(%rbp),%rdx
  801920:	8b 36                	mov    (%rsi),%esi
  801922:	48 b8 e6 17 80 00 00 	movabs $0x8017e6,%rax
  801929:	00 00 00 
  80192c:	ff d0                	call   *%rax
  80192e:	85 c0                	test   %eax,%eax
  801930:	78 33                	js     801965 <serve_write+0x55>
    ssize_t num = file_write(o->o_file, &req->req_buf, req->req_n, o->o_fd->fd_offset);
  801932:	48 8b 45 e8          	mov    -0x18(%rbp),%rax
  801936:	48 8b 50 18          	mov    0x18(%rax),%rdx
  80193a:	8b 4a 04             	mov    0x4(%rdx),%ecx
  80193d:	48 8b 53 08          	mov    0x8(%rbx),%rdx
  801941:	48 8d 73 10          	lea    0x10(%rbx),%rsi
  801945:	48 8b 78 08          	mov    0x8(%rax),%rdi
  801949:	48 b8 fb 12 80 00 00 	movabs $0x8012fb,%rax
  801950:	00 00 00 
  801953:	ff d0                	call   *%rax
    if (num > 0)
  801955:	48 85 c0             	test   %rax,%rax
  801958:	7e 0b                	jle    801965 <serve_write+0x55>
        o->o_fd->fd_offset += num;
  80195a:	48 8b 55 e8          	mov    -0x18(%rbp),%rdx
  80195e:	48 8b 52 18          	mov    0x18(%rdx),%rdx
  801962:	01 42 04             	add    %eax,0x4(%rdx)
}
  801965:	48 8b 5d f8          	mov    -0x8(%rbp),%rbx
  801969:	c9                   	leave  
  80196a:	c3                   	ret    

000000000080196b <serve_stat>:
serve_stat(envid_t envid, union Fsipc *ipc) {
  80196b:	55                   	push   %rbp
  80196c:	48 89 e5             	mov    %rsp,%rbp
  80196f:	53                   	push   %rbx
  801970:	48 83 ec 18          	sub    $0x18,%rsp
  801974:	48 89 f3             	mov    %rsi,%rbx
    int res = openfile_lookup(envid, req->req_fileid, &o);
  801977:	48 8d 55 e8          	lea    -0x18(%rbp),%rdx
  80197b:	8b 36                	mov    (%rsi),%esi
  80197d:	48 b8 e6 17 80 00 00 	movabs $0x8017e6,%rax
  801984:	00 00 00 
  801987:	ff d0                	call   *%rax
    if (res < 0) return res;
  801989:	85 c0                	test   %eax,%eax
  80198b:	78 47                	js     8019d4 <serve_stat+0x69>
    strcpy(ret->ret_name, o->o_file->f_name);
  80198d:	48 8b 45 e8          	mov    -0x18(%rbp),%rax
  801991:	48 8b 70 08          	mov    0x8(%rax),%rsi
  801995:	48 89 df             	mov    %rbx,%rdi
  801998:	48 b8 5c 31 80 00 00 	movabs $0x80315c,%rax
  80199f:	00 00 00 
  8019a2:	ff d0                	call   *%rax
    ret->ret_size = o->o_file->f_size;
  8019a4:	48 8b 45 e8          	mov    -0x18(%rbp),%rax
  8019a8:	48 8b 50 08          	mov    0x8(%rax),%rdx
  8019ac:	8b 92 80 00 00 00    	mov    0x80(%rdx),%edx
  8019b2:	89 93 80 00 00 00    	mov    %edx,0x80(%rbx)
    ret->ret_isdir = (o->o_file->f_type == FTYPE_DIR);
  8019b8:	48 8b 40 08          	mov    0x8(%rax),%rax
  8019bc:	83 b8 84 00 00 00 01 	cmpl   $0x1,0x84(%rax)
  8019c3:	0f 94 c0             	sete   %al
  8019c6:	0f b6 c0             	movzbl %al,%eax
  8019c9:	89 83 84 00 00 00    	mov    %eax,0x84(%rbx)
    return 0;
  8019cf:	b8 00 00 00 00       	mov    $0x0,%eax
}
  8019d4:	48 8b 5d f8          	mov    -0x8(%rbp),%rbx
  8019d8:	c9                   	leave  
  8019d9:	c3                   	ret    

00000000008019da <serve_flush>:
serve_flush(envid_t envid, union Fsipc *ipc) {
  8019da:	55                   	push   %rbp
  8019db:	48 89 e5             	mov    %rsp,%rbp
  8019de:	48 83 ec 10          	sub    $0x10,%rsp
    int res = openfile_lookup(envid, req->req_fileid, &o);
  8019e2:	48 8d 55 f8          	lea    -0x8(%rbp),%rdx
  8019e6:	8b 36                	mov    (%rsi),%esi
  8019e8:	48 b8 e6 17 80 00 00 	movabs $0x8017e6,%rax
  8019ef:	00 00 00 
  8019f2:	ff d0                	call   *%rax
    if (res < 0) return res;
  8019f4:	85 c0                	test   %eax,%eax
  8019f6:	78 19                	js     801a11 <serve_flush+0x37>
    file_flush(o->o_file);
  8019f8:	48 8b 45 f8          	mov    -0x8(%rbp),%rax
  8019fc:	48 8b 78 08          	mov    0x8(%rax),%rdi
  801a00:	48 b8 ec 13 80 00 00 	movabs $0x8013ec,%rax
  801a07:	00 00 00 
  801a0a:	ff d0                	call   *%rax
    return 0;
  801a0c:	b8 00 00 00 00       	mov    $0x0,%eax
}
  801a11:	c9                   	leave  
  801a12:	c3                   	ret    

0000000000801a13 <serve_open>:
           void **pg_store, int *perm_store) {
  801a13:	55                   	push   %rbp
  801a14:	48 89 e5             	mov    %rsp,%rbp
  801a17:	41 55                	push   %r13
  801a19:	41 54                	push   %r12
  801a1b:	53                   	push   %rbx
  801a1c:	48 81 ec 18 04 00 00 	sub    $0x418,%rsp
  801a23:	48 89 f3             	mov    %rsi,%rbx
  801a26:	49 89 d5             	mov    %rdx,%r13
  801a29:	49 89 cc             	mov    %rcx,%r12
    memmove(path, req->req_path, MAXPATHLEN);
  801a2c:	ba 00 04 00 00       	mov    $0x400,%edx
  801a31:	48 8d bd e0 fb ff ff 	lea    -0x420(%rbp),%rdi
  801a38:	48 b8 57 33 80 00 00 	movabs $0x803357,%rax
  801a3f:	00 00 00 
  801a42:	ff d0                	call   *%rax
    path[MAXPATHLEN - 1] = 0;
  801a44:	c6 45 df 00          	movb   $0x0,-0x21(%rbp)
    if ((res = openfile_alloc(&o)) < 0) {
  801a48:	48 8d bd d0 fb ff ff 	lea    -0x430(%rbp),%rdi
  801a4f:	48 b8 19 17 80 00 00 	movabs $0x801719,%rax
  801a56:	00 00 00 
  801a59:	ff d0                	call   *%rax
  801a5b:	85 c0                	test   %eax,%eax
  801a5d:	0f 88 01 01 00 00    	js     801b64 <serve_open+0x151>
    if (req->req_omode & O_CREAT) {
  801a63:	f6 83 01 04 00 00 01 	testb  $0x1,0x401(%rbx)
  801a6a:	74 34                	je     801aa0 <serve_open+0x8d>
        if ((res = file_create(path, &f)) < 0) {
  801a6c:	48 8d b5 d8 fb ff ff 	lea    -0x428(%rbp),%rsi
  801a73:	48 8d bd e0 fb ff ff 	lea    -0x420(%rbp),%rdi
  801a7a:	48 b8 c9 14 80 00 00 	movabs $0x8014c9,%rax
  801a81:	00 00 00 
  801a84:	ff d0                	call   *%rax
  801a86:	85 c0                	test   %eax,%eax
  801a88:	79 38                	jns    801ac2 <serve_open+0xaf>
            if (!(req->req_omode & O_EXCL) && res == -E_FILE_EXISTS)
  801a8a:	f6 83 01 04 00 00 04 	testb  $0x4,0x401(%rbx)
  801a91:	0f 85 cd 00 00 00    	jne    801b64 <serve_open+0x151>
  801a97:	83 f8 ef             	cmp    $0xffffffef,%eax
  801a9a:	0f 85 c4 00 00 00    	jne    801b64 <serve_open+0x151>
        if ((res = file_open(path, &f)) < 0) {
  801aa0:	48 8d b5 d8 fb ff ff 	lea    -0x428(%rbp),%rsi
  801aa7:	48 8d bd e0 fb ff ff 	lea    -0x420(%rbp),%rdi
  801aae:	48 b8 f9 10 80 00 00 	movabs $0x8010f9,%rax
  801ab5:	00 00 00 
  801ab8:	ff d0                	call   *%rax
  801aba:	85 c0                	test   %eax,%eax
  801abc:	0f 88 a2 00 00 00    	js     801b64 <serve_open+0x151>
    if (req->req_omode & O_TRUNC) {
  801ac2:	f6 83 01 04 00 00 02 	testb  $0x2,0x401(%rbx)
  801ac9:	74 1c                	je     801ae7 <serve_open+0xd4>
        if ((res = file_set_size(f, 0)) < 0) {
  801acb:	be 00 00 00 00       	mov    $0x0,%esi
  801ad0:	48 8b bd d8 fb ff ff 	mov    -0x428(%rbp),%rdi
  801ad7:	48 b8 f1 11 80 00 00 	movabs $0x8011f1,%rax
  801ade:	00 00 00 
  801ae1:	ff d0                	call   *%rax
  801ae3:	85 c0                	test   %eax,%eax
  801ae5:	78 7d                	js     801b64 <serve_open+0x151>
    if ((res = file_open(path, &f)) < 0) {
  801ae7:	48 8d b5 d8 fb ff ff 	lea    -0x428(%rbp),%rsi
  801aee:	48 8d bd e0 fb ff ff 	lea    -0x420(%rbp),%rdi
  801af5:	48 b8 f9 10 80 00 00 	movabs $0x8010f9,%rax
  801afc:	00 00 00 
  801aff:	ff d0                	call   *%rax
  801b01:	85 c0                	test   %eax,%eax
  801b03:	78 5f                	js     801b64 <serve_open+0x151>
    o->o_file = f;
  801b05:	48 8b 85 d0 fb ff ff 	mov    -0x430(%rbp),%rax
  801b0c:	48 8b 95 d8 fb ff ff 	mov    -0x428(%rbp),%rdx
  801b13:	48 89 50 08          	mov    %rdx,0x8(%rax)
    o->o_fd->fd_file.id = o->o_fileid;
  801b17:	48 8b 50 18          	mov    0x18(%rax),%rdx
  801b1b:	8b 08                	mov    (%rax),%ecx
  801b1d:	89 4a 0c             	mov    %ecx,0xc(%rdx)
    o->o_fd->fd_omode = req->req_omode & O_ACCMODE;
  801b20:	48 8b 48 18          	mov    0x18(%rax),%rcx
  801b24:	8b 93 00 04 00 00    	mov    0x400(%rbx),%edx
  801b2a:	83 e2 03             	and    $0x3,%edx
  801b2d:	89 51 08             	mov    %edx,0x8(%rcx)
    o->o_fd->fd_dev_id = devfile.dev_id;
  801b30:	48 8b 50 18          	mov    0x18(%rax),%rdx
  801b34:	a1 a0 a0 80 00 00 00 	movabs 0x80a0a0,%eax
  801b3b:	00 00 
  801b3d:	89 02                	mov    %eax,(%rdx)
    o->o_mode = req->req_omode;
  801b3f:	48 8b 85 d0 fb ff ff 	mov    -0x430(%rbp),%rax
  801b46:	8b 93 00 04 00 00    	mov    0x400(%rbx),%edx
  801b4c:	89 50 10             	mov    %edx,0x10(%rax)
    *pg_store = o->o_fd;
  801b4f:	48 8b 40 18          	mov    0x18(%rax),%rax
  801b53:	49 89 45 00          	mov    %rax,0x0(%r13)
    *perm_store = PROT_RW | PROT_SHARE;
  801b57:	41 c7 04 24 46 00 00 	movl   $0x46,(%r12)
  801b5e:	00 
    return 0;
  801b5f:	b8 00 00 00 00       	mov    $0x0,%eax
}
  801b64:	48 81 c4 18 04 00 00 	add    $0x418,%rsp
  801b6b:	5b                   	pop    %rbx
  801b6c:	41 5c                	pop    %r12
  801b6e:	41 5d                	pop    %r13
  801b70:	5d                   	pop    %rbp
  801b71:	c3                   	ret    

0000000000801b72 <serve>:
        [FSREQ_SET_SIZE] = serve_set_size,
        [FSREQ_SYNC] = serve_sync};
#define NHANDLERS (sizeof(handlers) / sizeof(handlers[0]))

void
serve(void) {
  801b72:	55                   	push   %rbp
  801b73:	48 89 e5             	mov    %rsp,%rbp
  801b76:	41 56                	push   %r14
  801b78:	41 55                	push   %r13
  801b7a:	41 54                	push   %r12
  801b7c:	53                   	push   %rbx
  801b7d:	48 83 ec 20          	sub    $0x20,%rsp
    void *pg;

    while (1) {
        perm = 0;
        size_t sz = PAGE_SIZE;
        req = ipc_recv((int32_t *)&whom, fsreq, &sz, &perm);
  801b81:	48 bb 68 60 80 00 00 	movabs $0x806068,%rbx
  801b88:	00 00 00 
  801b8b:	49 bc 6f 3d 80 00 00 	movabs $0x803d6f,%r12
  801b92:	00 00 00 
            res = handlers[req](whom, fsreq);
        } else {
            cprintf("Invalid request code %d from %08x\n", req, whom);
            res = -E_INVAL;
        }
        ipc_send(whom, res, pg, PAGE_SIZE, perm);
  801b95:	49 be 0e 3e 80 00 00 	movabs $0x803e0e,%r14
  801b9c:	00 00 00 
        sys_unmap_region(0, fsreq, PAGE_SIZE);
  801b9f:	49 bd e2 37 80 00 00 	movabs $0x8037e2,%r13
  801ba6:	00 00 00 
  801ba9:	eb 1e                	jmp    801bc9 <serve+0x57>
            cprintf("Invalid request from %08x: no argument page\n", whom);
  801bab:	8b 75 dc             	mov    -0x24(%rbp),%esi
  801bae:	48 bf 10 55 80 00 00 	movabs $0x805510,%rdi
  801bb5:	00 00 00 
  801bb8:	b8 00 00 00 00       	mov    $0x0,%eax
  801bbd:	48 ba 1b 28 80 00 00 	movabs $0x80281b,%rdx
  801bc4:	00 00 00 
  801bc7:	ff d2                	call   *%rdx
        perm = 0;
  801bc9:	c7 45 d8 00 00 00 00 	movl   $0x0,-0x28(%rbp)
        size_t sz = PAGE_SIZE;
  801bd0:	48 c7 45 c8 00 10 00 	movq   $0x1000,-0x38(%rbp)
  801bd7:	00 
        req = ipc_recv((int32_t *)&whom, fsreq, &sz, &perm);
  801bd8:	48 8d 4d d8          	lea    -0x28(%rbp),%rcx
  801bdc:	48 8d 55 c8          	lea    -0x38(%rbp),%rdx
  801be0:	48 8b 33             	mov    (%rbx),%rsi
  801be3:	48 8d 7d dc          	lea    -0x24(%rbp),%rdi
  801be7:	41 ff d4             	call   *%r12
  801bea:	89 c6                	mov    %eax,%esi
        if (!(perm & PROT_R)) {
  801bec:	f6 45 d8 04          	testb  $0x4,-0x28(%rbp)
  801bf0:	74 b9                	je     801bab <serve+0x39>
        pg = NULL;
  801bf2:	48 c7 45 d0 00 00 00 	movq   $0x0,-0x30(%rbp)
  801bf9:	00 
        if (req == FSREQ_OPEN) {
  801bfa:	83 f8 01             	cmp    $0x1,%eax
  801bfd:	74 26                	je     801c25 <serve+0xb3>
        } else if (req < NHANDLERS && handlers[req]) {
  801bff:	83 f8 08             	cmp    $0x8,%eax
  801c02:	77 3f                	ja     801c43 <serve+0xd1>
  801c04:	89 c0                	mov    %eax,%eax
  801c06:	48 ba 20 60 80 00 00 	movabs $0x806020,%rdx
  801c0d:	00 00 00 
  801c10:	48 8b 04 c2          	mov    (%rdx,%rax,8),%rax
  801c14:	48 85 c0             	test   %rax,%rax
  801c17:	74 2a                	je     801c43 <serve+0xd1>
            res = handlers[req](whom, fsreq);
  801c19:	48 8b 33             	mov    (%rbx),%rsi
  801c1c:	8b 7d dc             	mov    -0x24(%rbp),%edi
  801c1f:	ff d0                	call   *%rax
  801c21:	89 c6                	mov    %eax,%esi
  801c23:	eb 41                	jmp    801c66 <serve+0xf4>
            res = serve_open(whom, (struct Fsreq_open *)fsreq, &pg, &perm);
  801c25:	48 8d 4d d8          	lea    -0x28(%rbp),%rcx
  801c29:	48 8d 55 d0          	lea    -0x30(%rbp),%rdx
  801c2d:	48 8b 33             	mov    (%rbx),%rsi
  801c30:	8b 7d dc             	mov    -0x24(%rbp),%edi
  801c33:	48 b8 13 1a 80 00 00 	movabs $0x801a13,%rax
  801c3a:	00 00 00 
  801c3d:	ff d0                	call   *%rax
  801c3f:	89 c6                	mov    %eax,%esi
  801c41:	eb 23                	jmp    801c66 <serve+0xf4>
            cprintf("Invalid request code %d from %08x\n", req, whom);
  801c43:	8b 55 dc             	mov    -0x24(%rbp),%edx
  801c46:	48 bf 40 55 80 00 00 	movabs $0x805540,%rdi
  801c4d:	00 00 00 
  801c50:	b8 00 00 00 00       	mov    $0x0,%eax
  801c55:	48 b9 1b 28 80 00 00 	movabs $0x80281b,%rcx
  801c5c:	00 00 00 
  801c5f:	ff d1                	call   *%rcx
            res = -E_INVAL;
  801c61:	be fd ff ff ff       	mov    $0xfffffffd,%esi
        ipc_send(whom, res, pg, PAGE_SIZE, perm);
  801c66:	44 8b 45 d8          	mov    -0x28(%rbp),%r8d
  801c6a:	b9 00 10 00 00       	mov    $0x1000,%ecx
  801c6f:	48 8b 55 d0          	mov    -0x30(%rbp),%rdx
  801c73:	8b 7d dc             	mov    -0x24(%rbp),%edi
  801c76:	41 ff d6             	call   *%r14
        sys_unmap_region(0, fsreq, PAGE_SIZE);
  801c79:	ba 00 10 00 00       	mov    $0x1000,%edx
  801c7e:	48 8b 33             	mov    (%rbx),%rsi
  801c81:	bf 00 00 00 00       	mov    $0x0,%edi
  801c86:	41 ff d5             	call   *%r13
  801c89:	e9 3b ff ff ff       	jmp    801bc9 <serve+0x57>

0000000000801c8e <umain>:
    }
}

void
umain(int argc, char **argv) {
  801c8e:	55                   	push   %rbp
  801c8f:	48 89 e5             	mov    %rsp,%rbp
  801c92:	53                   	push   %rbx
  801c93:	48 83 ec 08          	sub    $0x8,%rsp
    static_assert(sizeof(struct File) == 256, "Unsupported file size");
    binaryname = "fs";
  801c97:	48 b8 63 55 80 00 00 	movabs $0x805563,%rax
  801c9e:	00 00 00 
  801ca1:	48 a3 80 a0 80 00 00 	movabs %rax,0x80a080
  801ca8:	00 00 00 
    cprintf("FS is running\n");
  801cab:	48 bf 66 55 80 00 00 	movabs $0x805566,%rdi
  801cb2:	00 00 00 
  801cb5:	b8 00 00 00 00       	mov    $0x0,%eax
  801cba:	48 bb 1b 28 80 00 00 	movabs $0x80281b,%rbx
  801cc1:	00 00 00 
  801cc4:	ff d3                	call   *%rbx
    asm volatile("outw %0,%w1" ::"a"(data), "d"(port));
  801cc6:	b8 00 8a ff ff       	mov    $0xffff8a00,%eax
  801ccb:	ba 00 8a 00 00       	mov    $0x8a00,%edx
  801cd0:	66 ef                	out    %ax,(%dx)

    /* Check that we are able to do I/O */
    outw(0x8A00, 0x8A00);
    cprintf("FS can do I/O\n");
  801cd2:	48 bf 75 55 80 00 00 	movabs $0x805575,%rdi
  801cd9:	00 00 00 
  801cdc:	b8 00 00 00 00       	mov    $0x0,%eax
  801ce1:	ff d3                	call   *%rbx

    serve_init();
  801ce3:	48 b8 dc 16 80 00 00 	movabs $0x8016dc,%rax
  801cea:	00 00 00 
  801ced:	ff d0                	call   *%rax
    fs_init();
  801cef:	48 b8 1c 0c 80 00 00 	movabs $0x800c1c,%rax
  801cf6:	00 00 00 
  801cf9:	ff d0                	call   *%rax
    fs_test();
  801cfb:	48 b8 c7 1e 80 00 00 	movabs $0x801ec7,%rax
  801d02:	00 00 00 
  801d05:	ff d0                	call   *%rax
    serve();
  801d07:	48 b8 72 1b 80 00 00 	movabs $0x801b72,%rax
  801d0e:	00 00 00 
  801d11:	ff d0                	call   *%rax

0000000000801d13 <check_dir>:
check_consistency(void) {
    check_dir(&super->s_root);
}

void
check_dir(struct File *dir) {
  801d13:	55                   	push   %rbp
  801d14:	48 89 e5             	mov    %rsp,%rbp
  801d17:	41 57                	push   %r15
  801d19:	41 56                	push   %r14
  801d1b:	41 55                	push   %r13
  801d1d:	41 54                	push   %r12
  801d1f:	53                   	push   %rbx
  801d20:	48 83 ec 38          	sub    $0x38,%rsp
  801d24:	48 89 7d a8          	mov    %rdi,-0x58(%rbp)
    uint32_t *blk;
    struct File *files;

    blockno_t nblock = dir->f_size / BLKSIZE;
  801d28:	8b 97 80 00 00 00    	mov    0x80(%rdi),%edx
  801d2e:	8d 82 ff 0f 00 00    	lea    0xfff(%rdx),%eax
  801d34:	85 d2                	test   %edx,%edx
  801d36:	0f 49 c2             	cmovns %edx,%eax
    for (blockno_t i = 0; i < nblock; ++i) {
  801d39:	c1 f8 0c             	sar    $0xc,%eax
  801d3c:	89 45 b8             	mov    %eax,-0x48(%rbp)
  801d3f:	0f 84 73 01 00 00    	je     801eb8 <check_dir+0x1a5>
  801d45:	c7 45 bc 00 00 00 00 	movl   $0x0,-0x44(%rbp)
        if (file_block_walk(dir, i, &blk, 0) < 0) continue;
  801d4c:	49 bf af 0c 80 00 00 	movabs $0x800caf,%r15
  801d53:	00 00 00 
  801d56:	e9 17 01 00 00       	jmp    801e72 <check_dir+0x15f>

                cprintf("checking consistency of %s\n", f->f_name);

                for (blockno_t k = 0; k < CEILDIV(f->f_size, BLKSIZE); ++k) {
                    if (f->f_type == FTYPE_DIR) {
                        check_dir(f);
  801d5b:	4c 89 e7             	mov    %r12,%rdi
  801d5e:	48 b8 13 1d 80 00 00 	movabs $0x801d13,%rax
  801d65:	00 00 00 
  801d68:	ff d0                	call   *%rax
  801d6a:	eb 26                	jmp    801d92 <check_dir+0x7f>
                for (blockno_t k = 0; k < CEILDIV(f->f_size, BLKSIZE); ++k) {
  801d6c:	41 83 c5 01          	add    $0x1,%r13d
  801d70:	49 63 84 24 80 00 00 	movslq 0x80(%r12),%rax
  801d77:	00 
  801d78:	48 05 ff 0f 00 00    	add    $0xfff,%rax
  801d7e:	48 c1 e8 0c          	shr    $0xc,%rax
  801d82:	41 39 c5             	cmp    %eax,%r13d
  801d85:	73 75                	jae    801dfc <check_dir+0xe9>
                    if (f->f_type == FTYPE_DIR) {
  801d87:	41 83 bc 24 84 00 00 	cmpl   $0x1,0x84(%r12)
  801d8e:	00 01 
  801d90:	74 c9                	je     801d5b <check_dir+0x48>
                    }
                    if (file_block_walk(f, k, &pdiskbno, 0) < 0 || pdiskbno == NULL || *pdiskbno == 0) {
  801d92:	b9 00 00 00 00       	mov    $0x0,%ecx
  801d97:	48 8d 55 c0          	lea    -0x40(%rbp),%rdx
  801d9b:	44 89 ee             	mov    %r13d,%esi
  801d9e:	4c 89 e7             	mov    %r12,%rdi
  801da1:	41 ff d7             	call   *%r15
  801da4:	85 c0                	test   %eax,%eax
  801da6:	78 c4                	js     801d6c <check_dir+0x59>
  801da8:	48 8b 45 c0          	mov    -0x40(%rbp),%rax
  801dac:	48 85 c0             	test   %rax,%rax
  801daf:	74 bb                	je     801d6c <check_dir+0x59>
  801db1:	8b 38                	mov    (%rax),%edi
  801db3:	85 ff                	test   %edi,%edi
  801db5:	74 b5                	je     801d6c <check_dir+0x59>
                        continue;
                    }
                    assert(!block_is_free(*pdiskbno));
  801db7:	48 b8 b8 09 80 00 00 	movabs $0x8009b8,%rax
  801dbe:	00 00 00 
  801dc1:	ff d0                	call   *%rax
  801dc3:	84 c0                	test   %al,%al
  801dc5:	74 a5                	je     801d6c <check_dir+0x59>
  801dc7:	48 b9 a2 55 80 00 00 	movabs $0x8055a2,%rcx
  801dce:	00 00 00 
  801dd1:	48 ba ad 52 80 00 00 	movabs $0x8052ad,%rdx
  801dd8:	00 00 00 
  801ddb:	be 28 00 00 00       	mov    $0x28,%esi
  801de0:	48 bf bc 55 80 00 00 	movabs $0x8055bc,%rdi
  801de7:	00 00 00 
  801dea:	b8 00 00 00 00       	mov    $0x0,%eax
  801def:	49 b8 cb 26 80 00 00 	movabs $0x8026cb,%r8
  801df6:	00 00 00 
  801df9:	41 ff d0             	call   *%r8
        for (blockno_t j = 0; j < BLKFILES; ++j) {
  801dfc:	48 81 c3 00 01 00 00 	add    $0x100,%rbx
  801e03:	48 3b 5d b0          	cmp    -0x50(%rbp),%rbx
  801e07:	74 5d                	je     801e66 <check_dir+0x153>
            struct File *f = &(files[j]);
  801e09:	49 89 dc             	mov    %rbx,%r12
            if (strcmp(f->f_name, "\0") != 0) {
  801e0c:	48 be 84 55 80 00 00 	movabs $0x805584,%rsi
  801e13:	00 00 00 
  801e16:	48 89 df             	mov    %rbx,%rdi
  801e19:	41 ff d6             	call   *%r14
  801e1c:	85 c0                	test   %eax,%eax
  801e1e:	74 dc                	je     801dfc <check_dir+0xe9>
                blockno_t *pdiskbno = NULL;
  801e20:	48 c7 45 c0 00 00 00 	movq   $0x0,-0x40(%rbp)
  801e27:	00 
                cprintf("checking consistency of %s\n", f->f_name);
  801e28:	48 89 de             	mov    %rbx,%rsi
  801e2b:	48 bf 86 55 80 00 00 	movabs $0x805586,%rdi
  801e32:	00 00 00 
  801e35:	b8 00 00 00 00       	mov    $0x0,%eax
  801e3a:	48 b9 1b 28 80 00 00 	movabs $0x80281b,%rcx
  801e41:	00 00 00 
  801e44:	ff d1                	call   *%rcx
                for (blockno_t k = 0; k < CEILDIV(f->f_size, BLKSIZE); ++k) {
  801e46:	48 63 83 80 00 00 00 	movslq 0x80(%rbx),%rax
  801e4d:	48 05 ff 0f 00 00    	add    $0xfff,%rax
  801e53:	48 c1 e8 0c          	shr    $0xc,%rax
  801e57:	85 c0                	test   %eax,%eax
  801e59:	74 a1                	je     801dfc <check_dir+0xe9>
  801e5b:	41 bd 00 00 00 00    	mov    $0x0,%r13d
  801e61:	e9 21 ff ff ff       	jmp    801d87 <check_dir+0x74>
    for (blockno_t i = 0; i < nblock; ++i) {
  801e66:	83 45 bc 01          	addl   $0x1,-0x44(%rbp)
  801e6a:	8b 45 bc             	mov    -0x44(%rbp),%eax
  801e6d:	39 45 b8             	cmp    %eax,-0x48(%rbp)
  801e70:	74 46                	je     801eb8 <check_dir+0x1a5>
        if (file_block_walk(dir, i, &blk, 0) < 0) continue;
  801e72:	b9 00 00 00 00       	mov    $0x0,%ecx
  801e77:	48 8d 55 c8          	lea    -0x38(%rbp),%rdx
  801e7b:	8b 75 bc             	mov    -0x44(%rbp),%esi
  801e7e:	48 8b 7d a8          	mov    -0x58(%rbp),%rdi
  801e82:	41 ff d7             	call   *%r15
  801e85:	85 c0                	test   %eax,%eax
  801e87:	78 dd                	js     801e66 <check_dir+0x153>
        files = (struct File *)diskaddr(*blk);
  801e89:	48 8b 45 c8          	mov    -0x38(%rbp),%rax
  801e8d:	8b 38                	mov    (%rax),%edi
  801e8f:	48 b8 61 04 80 00 00 	movabs $0x800461,%rax
  801e96:	00 00 00 
  801e99:	ff d0                	call   *%rax
  801e9b:	48 89 c3             	mov    %rax,%rbx
        for (blockno_t j = 0; j < BLKFILES; ++j) {
  801e9e:	48 8d 80 00 10 00 00 	lea    0x1000(%rax),%rax
  801ea5:	48 89 45 b0          	mov    %rax,-0x50(%rbp)
            if (strcmp(f->f_name, "\0") != 0) {
  801ea9:	49 be fe 31 80 00 00 	movabs $0x8031fe,%r14
  801eb0:	00 00 00 
  801eb3:	e9 51 ff ff ff       	jmp    801e09 <check_dir+0xf6>
                }
            }
        }
    }
}
  801eb8:	48 83 c4 38          	add    $0x38,%rsp
  801ebc:	5b                   	pop    %rbx
  801ebd:	41 5c                	pop    %r12
  801ebf:	41 5d                	pop    %r13
  801ec1:	41 5e                	pop    %r14
  801ec3:	41 5f                	pop    %r15
  801ec5:	5d                   	pop    %rbp
  801ec6:	c3                   	ret    

0000000000801ec7 <fs_test>:

void
fs_test(void) {
  801ec7:	55                   	push   %rbp
  801ec8:	48 89 e5             	mov    %rsp,%rbp
  801ecb:	53                   	push   %rbx
  801ecc:	48 83 ec 18          	sub    $0x18,%rsp
    int r;
    char *blk;
    uint32_t *bits;

    /* Back up bitmap */
    if ((r = sys_alloc_region(0, (void *)PAGE_SIZE, PAGE_SIZE, PROT_RW)) < 0)
  801ed0:	b9 06 00 00 00       	mov    $0x6,%ecx
  801ed5:	ba 00 10 00 00       	mov    $0x1000,%edx
  801eda:	be 00 10 00 00       	mov    $0x1000,%esi
  801edf:	bf 00 00 00 00       	mov    $0x0,%edi
  801ee4:	48 b8 16 37 80 00 00 	movabs $0x803716,%rax
  801eeb:	00 00 00 
  801eee:	ff d0                	call   *%rax
  801ef0:	85 c0                	test   %eax,%eax
  801ef2:	0f 88 4a 03 00 00    	js     802242 <fs_test+0x37b>
        panic("sys_page_alloc: %i", r);
    bits = (uint32_t *)PAGE_SIZE;
    memmove(bits, bitmap, PAGE_SIZE);
  801ef8:	ba 00 10 00 00       	mov    $0x1000,%edx
  801efd:	48 b8 00 b0 80 00 00 	movabs $0x80b000,%rax
  801f04:	00 00 00 
  801f07:	48 8b 30             	mov    (%rax),%rsi
  801f0a:	bf 00 10 00 00       	mov    $0x1000,%edi
  801f0f:	48 b8 57 33 80 00 00 	movabs $0x803357,%rax
  801f16:	00 00 00 
  801f19:	ff d0                	call   *%rax
    /* Allocate block */
    if (!(r = alloc_block()))
  801f1b:	48 b8 4b 0a 80 00 00 	movabs $0x800a4b,%rax
  801f22:	00 00 00 
  801f25:	ff d0                	call   *%rax
  801f27:	85 c0                	test   %eax,%eax
  801f29:	0f 84 40 03 00 00    	je     80226f <fs_test+0x3a8>
        panic("alloc_block: %i", -E_NO_DISK);
    /* Check that block was free */
    assert(TSTBIT(bits, r));
  801f2f:	8d 50 1f             	lea    0x1f(%rax),%edx
  801f32:	0f 49 d0             	cmovns %eax,%edx
  801f35:	c1 fa 05             	sar    $0x5,%edx
  801f38:	48 63 d2             	movslq %edx,%rdx
  801f3b:	89 c6                	mov    %eax,%esi
  801f3d:	c1 fe 1f             	sar    $0x1f,%esi
  801f40:	c1 ee 1b             	shr    $0x1b,%esi
  801f43:	8d 0c 30             	lea    (%rax,%rsi,1),%ecx
  801f46:	83 e1 1f             	and    $0x1f,%ecx
  801f49:	29 f1                	sub    %esi,%ecx
  801f4b:	b8 01 00 00 00       	mov    $0x1,%eax
  801f50:	d3 e0                	shl    %cl,%eax
  801f52:	89 c1                	mov    %eax,%ecx
  801f54:	23 04 95 00 10 00 00 	and    0x1000(,%rdx,4),%eax
  801f5b:	0f 84 39 03 00 00    	je     80229a <fs_test+0x3d3>
    /* And is not free any more */
    assert(!TSTBIT(bitmap, r));
  801f61:	48 a1 00 b0 80 00 00 	movabs 0x80b000,%rax
  801f68:	00 00 00 
  801f6b:	23 0c 90             	and    (%rax,%rdx,4),%ecx
  801f6e:	0f 85 56 03 00 00    	jne    8022ca <fs_test+0x403>
    cprintf("alloc_block is good\n");
  801f74:	48 bf 0c 56 80 00 00 	movabs $0x80560c,%rdi
  801f7b:	00 00 00 
  801f7e:	b8 00 00 00 00       	mov    $0x0,%eax
  801f83:	48 bb 1b 28 80 00 00 	movabs $0x80281b,%rbx
  801f8a:	00 00 00 
  801f8d:	ff d3                	call   *%rbx
    check_dir(&super->s_root);
  801f8f:	48 a1 08 b0 80 00 00 	movabs 0x80b008,%rax
  801f96:	00 00 00 
  801f99:	48 8d 78 08          	lea    0x8(%rax),%rdi
  801f9d:	48 b8 13 1d 80 00 00 	movabs $0x801d13,%rax
  801fa4:	00 00 00 
  801fa7:	ff d0                	call   *%rax
    check_consistency();
    cprintf("fs consistency is good\n");
  801fa9:	48 bf 21 56 80 00 00 	movabs $0x805621,%rdi
  801fb0:	00 00 00 
  801fb3:	b8 00 00 00 00       	mov    $0x0,%eax
  801fb8:	ff d3                	call   *%rbx

    if ((r = file_open("/not-found", &f)) < 0 && r != -E_NOT_FOUND)
  801fba:	48 8d 75 e8          	lea    -0x18(%rbp),%rsi
  801fbe:	48 bf 39 56 80 00 00 	movabs $0x805639,%rdi
  801fc5:	00 00 00 
  801fc8:	48 b8 f9 10 80 00 00 	movabs $0x8010f9,%rax
  801fcf:	00 00 00 
  801fd2:	ff d0                	call   *%rax
  801fd4:	83 f8 f1             	cmp    $0xfffffff1,%eax
  801fd7:	74 08                	je     801fe1 <fs_test+0x11a>
  801fd9:	85 c0                	test   %eax,%eax
  801fdb:	0f 88 1e 03 00 00    	js     8022ff <fs_test+0x438>
        panic("file_open /not-found: %i", r);
    else if (r == 0)
  801fe1:	85 c0                	test   %eax,%eax
  801fe3:	0f 84 43 03 00 00    	je     80232c <fs_test+0x465>
        panic("file_open /not-found succeeded!");
    if ((r = file_open("/newmotd", &f)) < 0)
  801fe9:	48 8d 75 e8          	lea    -0x18(%rbp),%rsi
  801fed:	48 bf 5d 56 80 00 00 	movabs $0x80565d,%rdi
  801ff4:	00 00 00 
  801ff7:	48 b8 f9 10 80 00 00 	movabs $0x8010f9,%rax
  801ffe:	00 00 00 
  802001:	ff d0                	call   *%rax
  802003:	85 c0                	test   %eax,%eax
  802005:	0f 88 46 03 00 00    	js     802351 <fs_test+0x48a>
        panic("file_open /newmotd: %i", r);
    cprintf("file_open is good\n");
  80200b:	48 bf 7d 56 80 00 00 	movabs $0x80567d,%rdi
  802012:	00 00 00 
  802015:	b8 00 00 00 00       	mov    $0x0,%eax
  80201a:	48 ba 1b 28 80 00 00 	movabs $0x80281b,%rdx
  802021:	00 00 00 
  802024:	ff d2                	call   *%rdx

    if ((r = file_get_block(f, 0, &blk)) < 0)
  802026:	48 8d 55 e0          	lea    -0x20(%rbp),%rdx
  80202a:	be 00 00 00 00       	mov    $0x0,%esi
  80202f:	48 8b 7d e8          	mov    -0x18(%rbp),%rdi
  802033:	48 b8 8a 0d 80 00 00 	movabs $0x800d8a,%rax
  80203a:	00 00 00 
  80203d:	ff d0                	call   *%rax
  80203f:	85 c0                	test   %eax,%eax
  802041:	0f 88 37 03 00 00    	js     80237e <fs_test+0x4b7>
        panic("file_get_block: %i", r);
    if (strcmp(blk, msg) != 0)
  802047:	48 be 98 57 80 00 00 	movabs $0x805798,%rsi
  80204e:	00 00 00 
  802051:	48 8b 7d e0          	mov    -0x20(%rbp),%rdi
  802055:	48 b8 fe 31 80 00 00 	movabs $0x8031fe,%rax
  80205c:	00 00 00 
  80205f:	ff d0                	call   *%rax
  802061:	85 c0                	test   %eax,%eax
  802063:	0f 85 42 03 00 00    	jne    8023ab <fs_test+0x4e4>
        panic("file_get_block returned wrong data");
    cprintf("file_get_block is good\n");
  802069:	48 bf a3 56 80 00 00 	movabs $0x8056a3,%rdi
  802070:	00 00 00 
  802073:	b8 00 00 00 00       	mov    $0x0,%eax
  802078:	48 ba 1b 28 80 00 00 	movabs $0x80281b,%rdx
  80207f:	00 00 00 
  802082:	ff d2                	call   *%rdx

    *(volatile char *)blk = *(volatile char *)blk;
  802084:	48 8b 45 e0          	mov    -0x20(%rbp),%rax
  802088:	0f b6 10             	movzbl (%rax),%edx
  80208b:	88 10                	mov    %dl,(%rax)
    assert(is_page_dirty(blk));
  80208d:	48 8b 7d e0          	mov    -0x20(%rbp),%rdi
  802091:	48 b8 30 4f 80 00 00 	movabs $0x804f30,%rax
  802098:	00 00 00 
  80209b:	ff d0                	call   *%rax
  80209d:	84 c0                	test   %al,%al
  80209f:	0f 84 30 03 00 00    	je     8023d5 <fs_test+0x50e>
    file_flush(f);
  8020a5:	48 8b 7d e8          	mov    -0x18(%rbp),%rdi
  8020a9:	48 b8 ec 13 80 00 00 	movabs $0x8013ec,%rax
  8020b0:	00 00 00 
  8020b3:	ff d0                	call   *%rax
    assert(!is_page_dirty(blk));
  8020b5:	48 8b 7d e0          	mov    -0x20(%rbp),%rdi
  8020b9:	48 b8 30 4f 80 00 00 	movabs $0x804f30,%rax
  8020c0:	00 00 00 
  8020c3:	ff d0                	call   *%rax
  8020c5:	84 c0                	test   %al,%al
  8020c7:	0f 85 38 03 00 00    	jne    802405 <fs_test+0x53e>
    cprintf("file_flush is good\n");
  8020cd:	48 bf cf 56 80 00 00 	movabs $0x8056cf,%rdi
  8020d4:	00 00 00 
  8020d7:	b8 00 00 00 00       	mov    $0x0,%eax
  8020dc:	48 ba 1b 28 80 00 00 	movabs $0x80281b,%rdx
  8020e3:	00 00 00 
  8020e6:	ff d2                	call   *%rdx

    if ((r = file_set_size(f, 0)) < 0)
  8020e8:	be 00 00 00 00       	mov    $0x0,%esi
  8020ed:	48 8b 7d e8          	mov    -0x18(%rbp),%rdi
  8020f1:	48 b8 f1 11 80 00 00 	movabs $0x8011f1,%rax
  8020f8:	00 00 00 
  8020fb:	ff d0                	call   *%rax
  8020fd:	85 c0                	test   %eax,%eax
  8020ff:	0f 88 35 03 00 00    	js     80243a <fs_test+0x573>
        panic("file_set_size: %i", r);
    assert(f->f_direct[0] == 0);
  802105:	48 8b 7d e8          	mov    -0x18(%rbp),%rdi
  802109:	83 bf 88 00 00 00 00 	cmpl   $0x0,0x88(%rdi)
  802110:	0f 85 51 03 00 00    	jne    802467 <fs_test+0x5a0>
    assert(!is_page_dirty(f));
  802116:	48 b8 30 4f 80 00 00 	movabs $0x804f30,%rax
  80211d:	00 00 00 
  802120:	ff d0                	call   *%rax
  802122:	84 c0                	test   %al,%al
  802124:	0f 85 72 03 00 00    	jne    80249c <fs_test+0x5d5>
    cprintf("file_truncate is good\n");
  80212a:	48 bf 1b 57 80 00 00 	movabs $0x80571b,%rdi
  802131:	00 00 00 
  802134:	b8 00 00 00 00       	mov    $0x0,%eax
  802139:	48 ba 1b 28 80 00 00 	movabs $0x80281b,%rdx
  802140:	00 00 00 
  802143:	ff d2                	call   *%rdx

    if ((r = file_set_size(f, strlen(msg))) < 0)
  802145:	48 bf 98 57 80 00 00 	movabs $0x805798,%rdi
  80214c:	00 00 00 
  80214f:	48 b8 23 31 80 00 00 	movabs $0x803123,%rax
  802156:	00 00 00 
  802159:	ff d0                	call   *%rax
  80215b:	48 89 c6             	mov    %rax,%rsi
  80215e:	48 8b 7d e8          	mov    -0x18(%rbp),%rdi
  802162:	48 b8 f1 11 80 00 00 	movabs $0x8011f1,%rax
  802169:	00 00 00 
  80216c:	ff d0                	call   *%rax
  80216e:	85 c0                	test   %eax,%eax
  802170:	0f 88 5b 03 00 00    	js     8024d1 <fs_test+0x60a>
        panic("file_set_size 2: %i", r);
    assert(!is_page_dirty(f));
  802176:	48 8b 7d e8          	mov    -0x18(%rbp),%rdi
  80217a:	48 b8 30 4f 80 00 00 	movabs $0x804f30,%rax
  802181:	00 00 00 
  802184:	ff d0                	call   *%rax
  802186:	84 c0                	test   %al,%al
  802188:	0f 85 70 03 00 00    	jne    8024fe <fs_test+0x637>
    if ((r = file_get_block(f, 0, &blk)) < 0)
  80218e:	48 8d 55 e0          	lea    -0x20(%rbp),%rdx
  802192:	be 00 00 00 00       	mov    $0x0,%esi
  802197:	48 8b 7d e8          	mov    -0x18(%rbp),%rdi
  80219b:	48 b8 8a 0d 80 00 00 	movabs $0x800d8a,%rax
  8021a2:	00 00 00 
  8021a5:	ff d0                	call   *%rax
  8021a7:	85 c0                	test   %eax,%eax
  8021a9:	0f 88 84 03 00 00    	js     802533 <fs_test+0x66c>
        panic("file_get_block 2: %i", r);
    strcpy(blk, msg);
  8021af:	48 be 98 57 80 00 00 	movabs $0x805798,%rsi
  8021b6:	00 00 00 
  8021b9:	48 8b 7d e0          	mov    -0x20(%rbp),%rdi
  8021bd:	48 b8 5c 31 80 00 00 	movabs $0x80315c,%rax
  8021c4:	00 00 00 
  8021c7:	ff d0                	call   *%rax
    assert(is_page_dirty(blk));
  8021c9:	48 8b 7d e0          	mov    -0x20(%rbp),%rdi
  8021cd:	48 b8 30 4f 80 00 00 	movabs $0x804f30,%rax
  8021d4:	00 00 00 
  8021d7:	ff d0                	call   *%rax
  8021d9:	84 c0                	test   %al,%al
  8021db:	0f 84 7f 03 00 00    	je     802560 <fs_test+0x699>
    file_flush(f);
  8021e1:	48 8b 7d e8          	mov    -0x18(%rbp),%rdi
  8021e5:	48 b8 ec 13 80 00 00 	movabs $0x8013ec,%rax
  8021ec:	00 00 00 
  8021ef:	ff d0                	call   *%rax
    assert(!is_page_dirty(blk));
  8021f1:	48 8b 7d e0          	mov    -0x20(%rbp),%rdi
  8021f5:	48 b8 30 4f 80 00 00 	movabs $0x804f30,%rax
  8021fc:	00 00 00 
  8021ff:	ff d0                	call   *%rax
  802201:	84 c0                	test   %al,%al
  802203:	0f 85 87 03 00 00    	jne    802590 <fs_test+0x6c9>
    assert(!is_page_dirty(f));
  802209:	48 8b 7d e8          	mov    -0x18(%rbp),%rdi
  80220d:	48 b8 30 4f 80 00 00 	movabs $0x804f30,%rax
  802214:	00 00 00 
  802217:	ff d0                	call   *%rax
  802219:	84 c0                	test   %al,%al
  80221b:	0f 85 a4 03 00 00    	jne    8025c5 <fs_test+0x6fe>
    cprintf("file rewrite is good\n");
  802221:	48 bf 5b 57 80 00 00 	movabs $0x80575b,%rdi
  802228:	00 00 00 
  80222b:	b8 00 00 00 00       	mov    $0x0,%eax
  802230:	48 ba 1b 28 80 00 00 	movabs $0x80281b,%rdx
  802237:	00 00 00 
  80223a:	ff d2                	call   *%rdx
}
  80223c:	48 8b 5d f8          	mov    -0x8(%rbp),%rbx
  802240:	c9                   	leave  
  802241:	c3                   	ret    
        panic("sys_page_alloc: %i", r);
  802242:	89 c1                	mov    %eax,%ecx
  802244:	48 ba c6 55 80 00 00 	movabs $0x8055c6,%rdx
  80224b:	00 00 00 
  80224e:	be 38 00 00 00       	mov    $0x38,%esi
  802253:	48 bf bc 55 80 00 00 	movabs $0x8055bc,%rdi
  80225a:	00 00 00 
  80225d:	b8 00 00 00 00       	mov    $0x0,%eax
  802262:	49 b8 cb 26 80 00 00 	movabs $0x8026cb,%r8
  802269:	00 00 00 
  80226c:	41 ff d0             	call   *%r8
        panic("alloc_block: %i", -E_NO_DISK);
  80226f:	b9 f3 ff ff ff       	mov    $0xfffffff3,%ecx
  802274:	48 ba d9 55 80 00 00 	movabs $0x8055d9,%rdx
  80227b:	00 00 00 
  80227e:	be 3d 00 00 00       	mov    $0x3d,%esi
  802283:	48 bf bc 55 80 00 00 	movabs $0x8055bc,%rdi
  80228a:	00 00 00 
  80228d:	49 b8 cb 26 80 00 00 	movabs $0x8026cb,%r8
  802294:	00 00 00 
  802297:	41 ff d0             	call   *%r8
    assert(TSTBIT(bits, r));
  80229a:	48 b9 e9 55 80 00 00 	movabs $0x8055e9,%rcx
  8022a1:	00 00 00 
  8022a4:	48 ba ad 52 80 00 00 	movabs $0x8052ad,%rdx
  8022ab:	00 00 00 
  8022ae:	be 3f 00 00 00       	mov    $0x3f,%esi
  8022b3:	48 bf bc 55 80 00 00 	movabs $0x8055bc,%rdi
  8022ba:	00 00 00 
  8022bd:	49 b8 cb 26 80 00 00 	movabs $0x8026cb,%r8
  8022c4:	00 00 00 
  8022c7:	41 ff d0             	call   *%r8
    assert(!TSTBIT(bitmap, r));
  8022ca:	48 b9 f9 55 80 00 00 	movabs $0x8055f9,%rcx
  8022d1:	00 00 00 
  8022d4:	48 ba ad 52 80 00 00 	movabs $0x8052ad,%rdx
  8022db:	00 00 00 
  8022de:	be 41 00 00 00       	mov    $0x41,%esi
  8022e3:	48 bf bc 55 80 00 00 	movabs $0x8055bc,%rdi
  8022ea:	00 00 00 
  8022ed:	b8 00 00 00 00       	mov    $0x0,%eax
  8022f2:	49 b8 cb 26 80 00 00 	movabs $0x8026cb,%r8
  8022f9:	00 00 00 
  8022fc:	41 ff d0             	call   *%r8
        panic("file_open /not-found: %i", r);
  8022ff:	89 c1                	mov    %eax,%ecx
  802301:	48 ba 44 56 80 00 00 	movabs $0x805644,%rdx
  802308:	00 00 00 
  80230b:	be 47 00 00 00       	mov    $0x47,%esi
  802310:	48 bf bc 55 80 00 00 	movabs $0x8055bc,%rdi
  802317:	00 00 00 
  80231a:	b8 00 00 00 00       	mov    $0x0,%eax
  80231f:	49 b8 cb 26 80 00 00 	movabs $0x8026cb,%r8
  802326:	00 00 00 
  802329:	41 ff d0             	call   *%r8
        panic("file_open /not-found succeeded!");
  80232c:	48 ba 78 57 80 00 00 	movabs $0x805778,%rdx
  802333:	00 00 00 
  802336:	be 49 00 00 00       	mov    $0x49,%esi
  80233b:	48 bf bc 55 80 00 00 	movabs $0x8055bc,%rdi
  802342:	00 00 00 
  802345:	48 b9 cb 26 80 00 00 	movabs $0x8026cb,%rcx
  80234c:	00 00 00 
  80234f:	ff d1                	call   *%rcx
        panic("file_open /newmotd: %i", r);
  802351:	89 c1                	mov    %eax,%ecx
  802353:	48 ba 66 56 80 00 00 	movabs $0x805666,%rdx
  80235a:	00 00 00 
  80235d:	be 4b 00 00 00       	mov    $0x4b,%esi
  802362:	48 bf bc 55 80 00 00 	movabs $0x8055bc,%rdi
  802369:	00 00 00 
  80236c:	b8 00 00 00 00       	mov    $0x0,%eax
  802371:	49 b8 cb 26 80 00 00 	movabs $0x8026cb,%r8
  802378:	00 00 00 
  80237b:	41 ff d0             	call   *%r8
        panic("file_get_block: %i", r);
  80237e:	89 c1                	mov    %eax,%ecx
  802380:	48 ba 90 56 80 00 00 	movabs $0x805690,%rdx
  802387:	00 00 00 
  80238a:	be 4f 00 00 00       	mov    $0x4f,%esi
  80238f:	48 bf bc 55 80 00 00 	movabs $0x8055bc,%rdi
  802396:	00 00 00 
  802399:	b8 00 00 00 00       	mov    $0x0,%eax
  80239e:	49 b8 cb 26 80 00 00 	movabs $0x8026cb,%r8
  8023a5:	00 00 00 
  8023a8:	41 ff d0             	call   *%r8
        panic("file_get_block returned wrong data");
  8023ab:	48 ba c0 57 80 00 00 	movabs $0x8057c0,%rdx
  8023b2:	00 00 00 
  8023b5:	be 51 00 00 00       	mov    $0x51,%esi
  8023ba:	48 bf bc 55 80 00 00 	movabs $0x8055bc,%rdi
  8023c1:	00 00 00 
  8023c4:	b8 00 00 00 00       	mov    $0x0,%eax
  8023c9:	48 b9 cb 26 80 00 00 	movabs $0x8026cb,%rcx
  8023d0:	00 00 00 
  8023d3:	ff d1                	call   *%rcx
    assert(is_page_dirty(blk));
  8023d5:	48 b9 bc 56 80 00 00 	movabs $0x8056bc,%rcx
  8023dc:	00 00 00 
  8023df:	48 ba ad 52 80 00 00 	movabs $0x8052ad,%rdx
  8023e6:	00 00 00 
  8023e9:	be 55 00 00 00       	mov    $0x55,%esi
  8023ee:	48 bf bc 55 80 00 00 	movabs $0x8055bc,%rdi
  8023f5:	00 00 00 
  8023f8:	49 b8 cb 26 80 00 00 	movabs $0x8026cb,%r8
  8023ff:	00 00 00 
  802402:	41 ff d0             	call   *%r8
    assert(!is_page_dirty(blk));
  802405:	48 b9 bb 56 80 00 00 	movabs $0x8056bb,%rcx
  80240c:	00 00 00 
  80240f:	48 ba ad 52 80 00 00 	movabs $0x8052ad,%rdx
  802416:	00 00 00 
  802419:	be 57 00 00 00       	mov    $0x57,%esi
  80241e:	48 bf bc 55 80 00 00 	movabs $0x8055bc,%rdi
  802425:	00 00 00 
  802428:	b8 00 00 00 00       	mov    $0x0,%eax
  80242d:	49 b8 cb 26 80 00 00 	movabs $0x8026cb,%r8
  802434:	00 00 00 
  802437:	41 ff d0             	call   *%r8
        panic("file_set_size: %i", r);
  80243a:	89 c1                	mov    %eax,%ecx
  80243c:	48 ba e3 56 80 00 00 	movabs $0x8056e3,%rdx
  802443:	00 00 00 
  802446:	be 5b 00 00 00       	mov    $0x5b,%esi
  80244b:	48 bf bc 55 80 00 00 	movabs $0x8055bc,%rdi
  802452:	00 00 00 
  802455:	b8 00 00 00 00       	mov    $0x0,%eax
  80245a:	49 b8 cb 26 80 00 00 	movabs $0x8026cb,%r8
  802461:	00 00 00 
  802464:	41 ff d0             	call   *%r8
    assert(f->f_direct[0] == 0);
  802467:	48 b9 f5 56 80 00 00 	movabs $0x8056f5,%rcx
  80246e:	00 00 00 
  802471:	48 ba ad 52 80 00 00 	movabs $0x8052ad,%rdx
  802478:	00 00 00 
  80247b:	be 5c 00 00 00       	mov    $0x5c,%esi
  802480:	48 bf bc 55 80 00 00 	movabs $0x8055bc,%rdi
  802487:	00 00 00 
  80248a:	b8 00 00 00 00       	mov    $0x0,%eax
  80248f:	49 b8 cb 26 80 00 00 	movabs $0x8026cb,%r8
  802496:	00 00 00 
  802499:	41 ff d0             	call   *%r8
    assert(!is_page_dirty(f));
  80249c:	48 b9 09 57 80 00 00 	movabs $0x805709,%rcx
  8024a3:	00 00 00 
  8024a6:	48 ba ad 52 80 00 00 	movabs $0x8052ad,%rdx
  8024ad:	00 00 00 
  8024b0:	be 5d 00 00 00       	mov    $0x5d,%esi
  8024b5:	48 bf bc 55 80 00 00 	movabs $0x8055bc,%rdi
  8024bc:	00 00 00 
  8024bf:	b8 00 00 00 00       	mov    $0x0,%eax
  8024c4:	49 b8 cb 26 80 00 00 	movabs $0x8026cb,%r8
  8024cb:	00 00 00 
  8024ce:	41 ff d0             	call   *%r8
        panic("file_set_size 2: %i", r);
  8024d1:	89 c1                	mov    %eax,%ecx
  8024d3:	48 ba 32 57 80 00 00 	movabs $0x805732,%rdx
  8024da:	00 00 00 
  8024dd:	be 61 00 00 00       	mov    $0x61,%esi
  8024e2:	48 bf bc 55 80 00 00 	movabs $0x8055bc,%rdi
  8024e9:	00 00 00 
  8024ec:	b8 00 00 00 00       	mov    $0x0,%eax
  8024f1:	49 b8 cb 26 80 00 00 	movabs $0x8026cb,%r8
  8024f8:	00 00 00 
  8024fb:	41 ff d0             	call   *%r8
    assert(!is_page_dirty(f));
  8024fe:	48 b9 09 57 80 00 00 	movabs $0x805709,%rcx
  802505:	00 00 00 
  802508:	48 ba ad 52 80 00 00 	movabs $0x8052ad,%rdx
  80250f:	00 00 00 
  802512:	be 62 00 00 00       	mov    $0x62,%esi
  802517:	48 bf bc 55 80 00 00 	movabs $0x8055bc,%rdi
  80251e:	00 00 00 
  802521:	b8 00 00 00 00       	mov    $0x0,%eax
  802526:	49 b8 cb 26 80 00 00 	movabs $0x8026cb,%r8
  80252d:	00 00 00 
  802530:	41 ff d0             	call   *%r8
        panic("file_get_block 2: %i", r);
  802533:	89 c1                	mov    %eax,%ecx
  802535:	48 ba 46 57 80 00 00 	movabs $0x805746,%rdx
  80253c:	00 00 00 
  80253f:	be 64 00 00 00       	mov    $0x64,%esi
  802544:	48 bf bc 55 80 00 00 	movabs $0x8055bc,%rdi
  80254b:	00 00 00 
  80254e:	b8 00 00 00 00       	mov    $0x0,%eax
  802553:	49 b8 cb 26 80 00 00 	movabs $0x8026cb,%r8
  80255a:	00 00 00 
  80255d:	41 ff d0             	call   *%r8
    assert(is_page_dirty(blk));
  802560:	48 b9 bc 56 80 00 00 	movabs $0x8056bc,%rcx
  802567:	00 00 00 
  80256a:	48 ba ad 52 80 00 00 	movabs $0x8052ad,%rdx
  802571:	00 00 00 
  802574:	be 66 00 00 00       	mov    $0x66,%esi
  802579:	48 bf bc 55 80 00 00 	movabs $0x8055bc,%rdi
  802580:	00 00 00 
  802583:	49 b8 cb 26 80 00 00 	movabs $0x8026cb,%r8
  80258a:	00 00 00 
  80258d:	41 ff d0             	call   *%r8
    assert(!is_page_dirty(blk));
  802590:	48 b9 bb 56 80 00 00 	movabs $0x8056bb,%rcx
  802597:	00 00 00 
  80259a:	48 ba ad 52 80 00 00 	movabs $0x8052ad,%rdx
  8025a1:	00 00 00 
  8025a4:	be 68 00 00 00       	mov    $0x68,%esi
  8025a9:	48 bf bc 55 80 00 00 	movabs $0x8055bc,%rdi
  8025b0:	00 00 00 
  8025b3:	b8 00 00 00 00       	mov    $0x0,%eax
  8025b8:	49 b8 cb 26 80 00 00 	movabs $0x8026cb,%r8
  8025bf:	00 00 00 
  8025c2:	41 ff d0             	call   *%r8
    assert(!is_page_dirty(f));
  8025c5:	48 b9 09 57 80 00 00 	movabs $0x805709,%rcx
  8025cc:	00 00 00 
  8025cf:	48 ba ad 52 80 00 00 	movabs $0x8052ad,%rdx
  8025d6:	00 00 00 
  8025d9:	be 69 00 00 00       	mov    $0x69,%esi
  8025de:	48 bf bc 55 80 00 00 	movabs $0x8055bc,%rdi
  8025e5:	00 00 00 
  8025e8:	b8 00 00 00 00       	mov    $0x0,%eax
  8025ed:	49 b8 cb 26 80 00 00 	movabs $0x8026cb,%r8
  8025f4:	00 00 00 
  8025f7:	41 ff d0             	call   *%r8

00000000008025fa <libmain>:
#ifdef JOS_PROG
void (*volatile sys_exit)(void);
#endif

void
libmain(int argc, char **argv) {
  8025fa:	55                   	push   %rbp
  8025fb:	48 89 e5             	mov    %rsp,%rbp
  8025fe:	41 56                	push   %r14
  802600:	41 55                	push   %r13
  802602:	41 54                	push   %r12
  802604:	53                   	push   %rbx
  802605:	41 89 fd             	mov    %edi,%r13d
  802608:	49 89 f6             	mov    %rsi,%r14
    /* Perform global constructor initialisation (e.g. asan)
    * This must be done as early as possible */
    extern void (*__ctors_start)(), (*__ctors_end)();
    void (**ctor)() = &__ctors_start;
    while (ctor < &__ctors_end) (*ctor++)();
  80260b:	48 ba 58 a1 80 00 00 	movabs $0x80a158,%rdx
  802612:	00 00 00 
  802615:	48 b8 58 a1 80 00 00 	movabs $0x80a158,%rax
  80261c:	00 00 00 
  80261f:	48 39 c2             	cmp    %rax,%rdx
  802622:	73 17                	jae    80263b <libmain+0x41>
    void (**ctor)() = &__ctors_start;
  802624:	48 89 d3             	mov    %rdx,%rbx
    while (ctor < &__ctors_end) (*ctor++)();
  802627:	49 89 c4             	mov    %rax,%r12
  80262a:	48 83 c3 08          	add    $0x8,%rbx
  80262e:	b8 00 00 00 00       	mov    $0x0,%eax
  802633:	ff 53 f8             	call   *-0x8(%rbx)
  802636:	4c 39 e3             	cmp    %r12,%rbx
  802639:	72 ef                	jb     80262a <libmain+0x30>

    /* Set thisenv to point at our Env structure in envs[]. */
    // LAB 8: Your code here
    thisenv = &envs[ENVX(sys_getenvid())];
  80263b:	48 b8 56 36 80 00 00 	movabs $0x803656,%rax
  802642:	00 00 00 
  802645:	ff d0                	call   *%rax
  802647:	25 ff 03 00 00       	and    $0x3ff,%eax
  80264c:	48 8d 14 c0          	lea    (%rax,%rax,8),%rdx
  802650:	48 8d 04 50          	lea    (%rax,%rdx,2),%rax
  802654:	48 c1 e0 04          	shl    $0x4,%rax
  802658:	48 ba 00 00 c0 1f 80 	movabs $0x801fc00000,%rdx
  80265f:	00 00 00 
  802662:	48 01 d0             	add    %rdx,%rax
  802665:	48 a3 10 b0 80 00 00 	movabs %rax,0x80b010
  80266c:	00 00 00 
    /* Save the name of the program so that panic() can use it */
    if (argc > 0) binaryname = argv[0];
  80266f:	45 85 ed             	test   %r13d,%r13d
  802672:	7e 0d                	jle    802681 <libmain+0x87>
  802674:	49 8b 06             	mov    (%r14),%rax
  802677:	48 a3 80 a0 80 00 00 	movabs %rax,0x80a080
  80267e:	00 00 00 

    /* Call user main routine */
    umain(argc, argv);
  802681:	4c 89 f6             	mov    %r14,%rsi
  802684:	44 89 ef             	mov    %r13d,%edi
  802687:	48 b8 8e 1c 80 00 00 	movabs $0x801c8e,%rax
  80268e:	00 00 00 
  802691:	ff d0                	call   *%rax

#ifdef JOS_PROG
    sys_exit();
#else
    exit();
  802693:	48 b8 a8 26 80 00 00 	movabs $0x8026a8,%rax
  80269a:	00 00 00 
  80269d:	ff d0                	call   *%rax
#endif
}
  80269f:	5b                   	pop    %rbx
  8026a0:	41 5c                	pop    %r12
  8026a2:	41 5d                	pop    %r13
  8026a4:	41 5e                	pop    %r14
  8026a6:	5d                   	pop    %rbp
  8026a7:	c3                   	ret    

00000000008026a8 <exit>:

#include <inc/lib.h>

void
exit(void) {
  8026a8:	55                   	push   %rbp
  8026a9:	48 89 e5             	mov    %rsp,%rbp
    close_all();
  8026ac:	48 b8 39 41 80 00 00 	movabs $0x804139,%rax
  8026b3:	00 00 00 
  8026b6:	ff d0                	call   *%rax
    sys_env_destroy(0);
  8026b8:	bf 00 00 00 00       	mov    $0x0,%edi
  8026bd:	48 b8 eb 35 80 00 00 	movabs $0x8035eb,%rax
  8026c4:	00 00 00 
  8026c7:	ff d0                	call   *%rax
}
  8026c9:	5d                   	pop    %rbp
  8026ca:	c3                   	ret    

00000000008026cb <_panic>:

/* Panic is called on unresolvable fatal errors.
 * It prints "panic: <message>", then causes a breakpoint exception,
 * which causes JOS to enter the JOS kernel monitor. */
void
_panic(const char *file, int line, const char *fmt, ...) {
  8026cb:	55                   	push   %rbp
  8026cc:	48 89 e5             	mov    %rsp,%rbp
  8026cf:	41 56                	push   %r14
  8026d1:	41 55                	push   %r13
  8026d3:	41 54                	push   %r12
  8026d5:	53                   	push   %rbx
  8026d6:	48 83 ec 50          	sub    $0x50,%rsp
  8026da:	49 89 fc             	mov    %rdi,%r12
  8026dd:	41 89 f5             	mov    %esi,%r13d
  8026e0:	48 89 d3             	mov    %rdx,%rbx
  8026e3:	48 89 4d c8          	mov    %rcx,-0x38(%rbp)
  8026e7:	4c 89 45 d0          	mov    %r8,-0x30(%rbp)
  8026eb:	4c 89 4d d8          	mov    %r9,-0x28(%rbp)
    va_list ap;

    va_start(ap, fmt);
  8026ef:	c7 45 98 18 00 00 00 	movl   $0x18,-0x68(%rbp)
  8026f6:	48 8d 45 10          	lea    0x10(%rbp),%rax
  8026fa:	48 89 45 a0          	mov    %rax,-0x60(%rbp)
  8026fe:	48 8d 45 b0          	lea    -0x50(%rbp),%rax
  802702:	48 89 45 a8          	mov    %rax,-0x58(%rbp)

    /* Print the panic message */
    cprintf("[%08x] user panic in %s at %s:%d: ",
  802706:	48 b8 80 a0 80 00 00 	movabs $0x80a080,%rax
  80270d:	00 00 00 
  802710:	4c 8b 30             	mov    (%rax),%r14
  802713:	48 b8 56 36 80 00 00 	movabs $0x803656,%rax
  80271a:	00 00 00 
  80271d:	ff d0                	call   *%rax
  80271f:	89 c6                	mov    %eax,%esi
  802721:	45 89 e8             	mov    %r13d,%r8d
  802724:	4c 89 e1             	mov    %r12,%rcx
  802727:	4c 89 f2             	mov    %r14,%rdx
  80272a:	48 bf f0 57 80 00 00 	movabs $0x8057f0,%rdi
  802731:	00 00 00 
  802734:	b8 00 00 00 00       	mov    $0x0,%eax
  802739:	49 bc 1b 28 80 00 00 	movabs $0x80281b,%r12
  802740:	00 00 00 
  802743:	41 ff d4             	call   *%r12
            sys_getenvid(), binaryname, file, line);
    vcprintf(fmt, ap);
  802746:	48 8d 75 98          	lea    -0x68(%rbp),%rsi
  80274a:	48 89 df             	mov    %rbx,%rdi
  80274d:	48 b8 b7 27 80 00 00 	movabs $0x8027b7,%rax
  802754:	00 00 00 
  802757:	ff d0                	call   *%rax
    cprintf("\n");
  802759:	48 bf c3 53 80 00 00 	movabs $0x8053c3,%rdi
  802760:	00 00 00 
  802763:	b8 00 00 00 00       	mov    $0x0,%eax
  802768:	41 ff d4             	call   *%r12

    /* Cause a breakpoint exception */
    for (;;) asm volatile("int3");
  80276b:	cc                   	int3   
  80276c:	eb fd                	jmp    80276b <_panic+0xa0>

000000000080276e <putch>:
    int count;  /* total bytes printed so far */
    char buf[PRINTBUFSZ];
};

static void
putch(int ch, struct printbuf *state) {
  80276e:	55                   	push   %rbp
  80276f:	48 89 e5             	mov    %rsp,%rbp
  802772:	53                   	push   %rbx
  802773:	48 83 ec 08          	sub    $0x8,%rsp
  802777:	48 89 f3             	mov    %rsi,%rbx
    state->buf[state->offset++] = (char)ch;
  80277a:	8b 06                	mov    (%rsi),%eax
  80277c:	8d 50 01             	lea    0x1(%rax),%edx
  80277f:	89 16                	mov    %edx,(%rsi)
  802781:	48 98                	cltq   
  802783:	40 88 7c 06 08       	mov    %dil,0x8(%rsi,%rax,1)
    if (state->offset == PRINTBUFSZ - 1) {
  802788:	81 fa ff 00 00 00    	cmp    $0xff,%edx
  80278e:	74 0a                	je     80279a <putch+0x2c>
        sys_cputs(state->buf, state->offset);
        state->offset = 0;
    }
    state->count++;
  802790:	83 43 04 01          	addl   $0x1,0x4(%rbx)
}
  802794:	48 8b 5d f8          	mov    -0x8(%rbp),%rbx
  802798:	c9                   	leave  
  802799:	c3                   	ret    
        sys_cputs(state->buf, state->offset);
  80279a:	48 8d 7e 08          	lea    0x8(%rsi),%rdi
  80279e:	be ff 00 00 00       	mov    $0xff,%esi
  8027a3:	48 b8 8d 35 80 00 00 	movabs $0x80358d,%rax
  8027aa:	00 00 00 
  8027ad:	ff d0                	call   *%rax
        state->offset = 0;
  8027af:	c7 03 00 00 00 00    	movl   $0x0,(%rbx)
  8027b5:	eb d9                	jmp    802790 <putch+0x22>

00000000008027b7 <vcprintf>:

int
vcprintf(const char *fmt, va_list ap) {
  8027b7:	55                   	push   %rbp
  8027b8:	48 89 e5             	mov    %rsp,%rbp
  8027bb:	48 81 ec 10 01 00 00 	sub    $0x110,%rsp
  8027c2:	48 89 fa             	mov    %rdi,%rdx
    struct printbuf state = {0};
  8027c5:	48 8d bd f8 fe ff ff 	lea    -0x108(%rbp),%rdi
  8027cc:	b9 21 00 00 00       	mov    $0x21,%ecx
  8027d1:	b8 00 00 00 00       	mov    $0x0,%eax
  8027d6:	f3 48 ab             	rep stos %rax,%es:(%rdi)

    vprintfmt((void *)putch, &state, fmt, ap);
  8027d9:	48 89 f1             	mov    %rsi,%rcx
  8027dc:	48 8d b5 f8 fe ff ff 	lea    -0x108(%rbp),%rsi
  8027e3:	48 bf 6e 27 80 00 00 	movabs $0x80276e,%rdi
  8027ea:	00 00 00 
  8027ed:	48 b8 6b 29 80 00 00 	movabs $0x80296b,%rax
  8027f4:	00 00 00 
  8027f7:	ff d0                	call   *%rax
    sys_cputs(state.buf, state.offset);
  8027f9:	48 63 b5 f8 fe ff ff 	movslq -0x108(%rbp),%rsi
  802800:	48 8d bd 00 ff ff ff 	lea    -0x100(%rbp),%rdi
  802807:	48 b8 8d 35 80 00 00 	movabs $0x80358d,%rax
  80280e:	00 00 00 
  802811:	ff d0                	call   *%rax

    return state.count;
}
  802813:	8b 85 fc fe ff ff    	mov    -0x104(%rbp),%eax
  802819:	c9                   	leave  
  80281a:	c3                   	ret    

000000000080281b <cprintf>:

int
cprintf(const char *fmt, ...) {
  80281b:	55                   	push   %rbp
  80281c:	48 89 e5             	mov    %rsp,%rbp
  80281f:	48 83 ec 50          	sub    $0x50,%rsp
  802823:	48 89 75 d8          	mov    %rsi,-0x28(%rbp)
  802827:	48 89 55 e0          	mov    %rdx,-0x20(%rbp)
  80282b:	48 89 4d e8          	mov    %rcx,-0x18(%rbp)
  80282f:	4c 89 45 f0          	mov    %r8,-0x10(%rbp)
  802833:	4c 89 4d f8          	mov    %r9,-0x8(%rbp)
    va_list ap;
    int count;

    va_start(ap, fmt);
  802837:	c7 45 b8 08 00 00 00 	movl   $0x8,-0x48(%rbp)
  80283e:	48 8d 45 10          	lea    0x10(%rbp),%rax
  802842:	48 89 45 c0          	mov    %rax,-0x40(%rbp)
  802846:	48 8d 45 d0          	lea    -0x30(%rbp),%rax
  80284a:	48 89 45 c8          	mov    %rax,-0x38(%rbp)
    count = vcprintf(fmt, ap);
  80284e:	48 8d 75 b8          	lea    -0x48(%rbp),%rsi
  802852:	48 b8 b7 27 80 00 00 	movabs $0x8027b7,%rax
  802859:	00 00 00 
  80285c:	ff d0                	call   *%rax
    va_end(ap);

    return count;
}
  80285e:	c9                   	leave  
  80285f:	c3                   	ret    

0000000000802860 <print_num>:
 * Print a number (base <= 16) in reverse order,
 * using specified putch function and associated pointer putdat.
 */
static void
print_num(void (*putch)(int, void *), void *put_arg,
          uintmax_t num, unsigned base, int width, char padc, bool capital) {
  802860:	55                   	push   %rbp
  802861:	48 89 e5             	mov    %rsp,%rbp
  802864:	41 57                	push   %r15
  802866:	41 56                	push   %r14
  802868:	41 55                	push   %r13
  80286a:	41 54                	push   %r12
  80286c:	53                   	push   %rbx
  80286d:	48 83 ec 18          	sub    $0x18,%rsp
  802871:	49 89 fc             	mov    %rdi,%r12
  802874:	49 89 f5             	mov    %rsi,%r13
  802877:	48 89 55 c8          	mov    %rdx,-0x38(%rbp)
  80287b:	8b 45 10             	mov    0x10(%rbp),%eax
  80287e:	89 45 c4             	mov    %eax,-0x3c(%rbp)
    /* First recursively print all preceding (more significant) digits */
    if (num >= base) {
  802881:	41 89 cf             	mov    %ecx,%r15d
  802884:	49 39 d7             	cmp    %rdx,%r15
  802887:	76 5b                	jbe    8028e4 <print_num+0x84>
        print_num(putch, put_arg, num / base, base, width - 1, padc, capital);
    } else {
        /* Print any needed pad characters before first digit */
        while (--width > 0) {
  802889:	41 8d 58 ff          	lea    -0x1(%r8),%ebx
            putch(padc, put_arg);
  80288d:	45 0f be f1          	movsbl %r9b,%r14d
        while (--width > 0) {
  802891:	85 db                	test   %ebx,%ebx
  802893:	7e 0e                	jle    8028a3 <print_num+0x43>
            putch(padc, put_arg);
  802895:	4c 89 ee             	mov    %r13,%rsi
  802898:	44 89 f7             	mov    %r14d,%edi
  80289b:	41 ff d4             	call   *%r12
        while (--width > 0) {
  80289e:	83 eb 01             	sub    $0x1,%ebx
  8028a1:	75 f2                	jne    802895 <print_num+0x35>
        }
    }

    const char *dig = capital ? "0123456789ABCDEF" : "0123456789abcdef";
  8028a3:	80 7d c4 00          	cmpb   $0x0,-0x3c(%rbp)
  8028a7:	48 b9 13 58 80 00 00 	movabs $0x805813,%rcx
  8028ae:	00 00 00 
  8028b1:	48 b8 24 58 80 00 00 	movabs $0x805824,%rax
  8028b8:	00 00 00 
  8028bb:	48 0f 44 c8          	cmove  %rax,%rcx

    /* Then print this (the least significant) digit */
    putch(dig[num % base], put_arg);
  8028bf:	48 8b 45 c8          	mov    -0x38(%rbp),%rax
  8028c3:	ba 00 00 00 00       	mov    $0x0,%edx
  8028c8:	49 f7 f7             	div    %r15
  8028cb:	0f be 3c 11          	movsbl (%rcx,%rdx,1),%edi
  8028cf:	4c 89 ee             	mov    %r13,%rsi
  8028d2:	41 ff d4             	call   *%r12
}
  8028d5:	48 8d 65 d8          	lea    -0x28(%rbp),%rsp
  8028d9:	5b                   	pop    %rbx
  8028da:	41 5c                	pop    %r12
  8028dc:	41 5d                	pop    %r13
  8028de:	41 5e                	pop    %r14
  8028e0:	41 5f                	pop    %r15
  8028e2:	5d                   	pop    %rbp
  8028e3:	c3                   	ret    
        print_num(putch, put_arg, num / base, base, width - 1, padc, capital);
  8028e4:	48 8b 45 c8          	mov    -0x38(%rbp),%rax
  8028e8:	ba 00 00 00 00       	mov    $0x0,%edx
  8028ed:	49 f7 f7             	div    %r15
  8028f0:	48 83 ec 08          	sub    $0x8,%rsp
  8028f4:	0f b6 55 c4          	movzbl -0x3c(%rbp),%edx
  8028f8:	52                   	push   %rdx
  8028f9:	45 0f be c9          	movsbl %r9b,%r9d
  8028fd:	45 8d 40 ff          	lea    -0x1(%r8),%r8d
  802901:	48 89 c2             	mov    %rax,%rdx
  802904:	48 b8 60 28 80 00 00 	movabs $0x802860,%rax
  80290b:	00 00 00 
  80290e:	ff d0                	call   *%rax
  802910:	48 83 c4 10          	add    $0x10,%rsp
  802914:	eb 8d                	jmp    8028a3 <print_num+0x43>

0000000000802916 <sprintputch>:
    int count;
};

static void
sprintputch(int ch, struct sprintbuf *state) {
    state->count++;
  802916:	83 46 10 01          	addl   $0x1,0x10(%rsi)
    if (state->start < state->end) {
  80291a:	48 8b 06             	mov    (%rsi),%rax
  80291d:	48 3b 46 08          	cmp    0x8(%rsi),%rax
  802921:	73 0a                	jae    80292d <sprintputch+0x17>
        *state->start++ = ch;
  802923:	48 8d 50 01          	lea    0x1(%rax),%rdx
  802927:	48 89 16             	mov    %rdx,(%rsi)
  80292a:	40 88 38             	mov    %dil,(%rax)
    }
}
  80292d:	c3                   	ret    

000000000080292e <printfmt>:
printfmt(void (*putch)(int, void *), void *putdat, const char *fmt, ...) {
  80292e:	55                   	push   %rbp
  80292f:	48 89 e5             	mov    %rsp,%rbp
  802932:	48 83 ec 50          	sub    $0x50,%rsp
  802936:	48 89 4d e8          	mov    %rcx,-0x18(%rbp)
  80293a:	4c 89 45 f0          	mov    %r8,-0x10(%rbp)
  80293e:	4c 89 4d f8          	mov    %r9,-0x8(%rbp)
    va_start(ap, fmt);
  802942:	c7 45 b8 18 00 00 00 	movl   $0x18,-0x48(%rbp)
  802949:	48 8d 45 10          	lea    0x10(%rbp),%rax
  80294d:	48 89 45 c0          	mov    %rax,-0x40(%rbp)
  802951:	48 8d 45 d0          	lea    -0x30(%rbp),%rax
  802955:	48 89 45 c8          	mov    %rax,-0x38(%rbp)
    vprintfmt(putch, putdat, fmt, ap);
  802959:	48 8d 4d b8          	lea    -0x48(%rbp),%rcx
  80295d:	48 b8 6b 29 80 00 00 	movabs $0x80296b,%rax
  802964:	00 00 00 
  802967:	ff d0                	call   *%rax
}
  802969:	c9                   	leave  
  80296a:	c3                   	ret    

000000000080296b <vprintfmt>:
vprintfmt(void (*putch)(int, void *), void *put_arg, const char *fmt, va_list ap) {
  80296b:	55                   	push   %rbp
  80296c:	48 89 e5             	mov    %rsp,%rbp
  80296f:	41 57                	push   %r15
  802971:	41 56                	push   %r14
  802973:	41 55                	push   %r13
  802975:	41 54                	push   %r12
  802977:	53                   	push   %rbx
  802978:	48 83 ec 48          	sub    $0x48,%rsp
  80297c:	49 89 fc             	mov    %rdi,%r12
  80297f:	49 89 f6             	mov    %rsi,%r14
  802982:	49 89 d7             	mov    %rdx,%r15
    va_copy(aq, ap);
  802985:	48 8b 01             	mov    (%rcx),%rax
  802988:	48 89 45 b8          	mov    %rax,-0x48(%rbp)
  80298c:	48 8b 41 08          	mov    0x8(%rcx),%rax
  802990:	48 89 45 c0          	mov    %rax,-0x40(%rbp)
  802994:	48 8b 41 10          	mov    0x10(%rcx),%rax
  802998:	48 89 45 c8          	mov    %rax,-0x38(%rbp)
        while ((ch = *ufmt++) != '%') {
  80299c:	49 8d 5f 01          	lea    0x1(%r15),%rbx
  8029a0:	41 0f b6 3f          	movzbl (%r15),%edi
  8029a4:	40 80 ff 25          	cmp    $0x25,%dil
  8029a8:	74 18                	je     8029c2 <vprintfmt+0x57>
            if (!ch) return;
  8029aa:	40 84 ff             	test   %dil,%dil
  8029ad:	0f 84 d1 06 00 00    	je     803084 <vprintfmt+0x719>
            putch(ch, put_arg);
  8029b3:	40 0f b6 ff          	movzbl %dil,%edi
  8029b7:	4c 89 f6             	mov    %r14,%rsi
  8029ba:	41 ff d4             	call   *%r12
        while ((ch = *ufmt++) != '%') {
  8029bd:	49 89 df             	mov    %rbx,%r15
  8029c0:	eb da                	jmp    80299c <vprintfmt+0x31>
            precision = va_arg(aq, int);
  8029c2:	48 8b 75 c8          	mov    -0x38(%rbp),%rsi
        bool altflag = 0, zflag = 0;
  8029c6:	b9 00 00 00 00       	mov    $0x0,%ecx
  8029cb:	c6 45 98 00          	movb   $0x0,-0x68(%rbp)
        unsigned lflag = 0, base = 10;
  8029cf:	ba 00 00 00 00       	mov    $0x0,%edx
        int width = -1, precision = -1;
  8029d4:	41 bd ff ff ff ff    	mov    $0xffffffff,%r13d
  8029da:	c7 45 ac ff ff ff ff 	movl   $0xffffffff,-0x54(%rbp)
        char padc = ' ';
  8029e1:	c6 45 a0 20          	movb   $0x20,-0x60(%rbp)
            width = MAX(0, width);
  8029e5:	bf 00 00 00 00       	mov    $0x0,%edi
        switch (ch = *ufmt++) {
  8029ea:	41 b8 01 00 00 00    	mov    $0x1,%r8d
  8029f0:	4c 8d 7b 01          	lea    0x1(%rbx),%r15
  8029f4:	44 0f b6 0b          	movzbl (%rbx),%r9d
  8029f8:	41 8d 41 dd          	lea    -0x23(%r9),%eax
  8029fc:	3c 57                	cmp    $0x57,%al
  8029fe:	0f 87 65 06 00 00    	ja     803069 <vprintfmt+0x6fe>
  802a04:	0f b6 c0             	movzbl %al,%eax
  802a07:	49 ba c0 59 80 00 00 	movabs $0x8059c0,%r10
  802a0e:	00 00 00 
  802a11:	41 ff 24 c2          	jmp    *(%r10,%rax,8)
  802a15:	4c 89 fb             	mov    %r15,%rbx
            altflag = 1;
  802a18:	44 88 45 98          	mov    %r8b,-0x68(%rbp)
  802a1c:	eb d2                	jmp    8029f0 <vprintfmt+0x85>
        switch (ch = *ufmt++) {
  802a1e:	4c 89 fb             	mov    %r15,%rbx
  802a21:	44 89 c1             	mov    %r8d,%ecx
  802a24:	eb ca                	jmp    8029f0 <vprintfmt+0x85>
            padc = ch;
  802a26:	44 88 4d a0          	mov    %r9b,-0x60(%rbp)
        switch (ch = *ufmt++) {
  802a2a:	4c 89 fb             	mov    %r15,%rbx
            goto reswitch;
  802a2d:	eb c1                	jmp    8029f0 <vprintfmt+0x85>
            precision = va_arg(aq, int);
  802a2f:	8b 45 b8             	mov    -0x48(%rbp),%eax
  802a32:	83 f8 2f             	cmp    $0x2f,%eax
  802a35:	77 24                	ja     802a5b <vprintfmt+0xf0>
  802a37:	41 89 c1             	mov    %eax,%r9d
  802a3a:	49 01 f1             	add    %rsi,%r9
  802a3d:	83 c0 08             	add    $0x8,%eax
  802a40:	89 45 b8             	mov    %eax,-0x48(%rbp)
  802a43:	45 8b 29             	mov    (%r9),%r13d
        switch (ch = *ufmt++) {
  802a46:	4c 89 fb             	mov    %r15,%rbx
            if (width < 0) {
  802a49:	83 7d ac 00          	cmpl   $0x0,-0x54(%rbp)
  802a4d:	79 a1                	jns    8029f0 <vprintfmt+0x85>
                width = precision;
  802a4f:	44 89 6d ac          	mov    %r13d,-0x54(%rbp)
                precision = -1;
  802a53:	41 bd ff ff ff ff    	mov    $0xffffffff,%r13d
  802a59:	eb 95                	jmp    8029f0 <vprintfmt+0x85>
            precision = va_arg(aq, int);
  802a5b:	4c 8b 4d c0          	mov    -0x40(%rbp),%r9
  802a5f:	49 8d 41 08          	lea    0x8(%r9),%rax
  802a63:	48 89 45 c0          	mov    %rax,-0x40(%rbp)
  802a67:	eb da                	jmp    802a43 <vprintfmt+0xd8>
        switch (ch = *ufmt++) {
  802a69:	45 0f b6 c9          	movzbl %r9b,%r9d
                precision = precision * 10 + ch - '0';
  802a6d:	45 8d 69 d0          	lea    -0x30(%r9),%r13d
                if ((ch = *ufmt) - '0' > 9) break;
  802a71:	0f b6 43 01          	movzbl 0x1(%rbx),%eax
  802a75:	3c 39                	cmp    $0x39,%al
  802a77:	77 1e                	ja     802a97 <vprintfmt+0x12c>
            for (precision = 0;; ++ufmt) {
  802a79:	49 83 c7 01          	add    $0x1,%r15
                precision = precision * 10 + ch - '0';
  802a7d:	47 8d 4c ad 00       	lea    0x0(%r13,%r13,4),%r9d
  802a82:	0f b6 c0             	movzbl %al,%eax
  802a85:	46 8d 6c 48 d0       	lea    -0x30(%rax,%r9,2),%r13d
                if ((ch = *ufmt) - '0' > 9) break;
  802a8a:	41 0f b6 07          	movzbl (%r15),%eax
  802a8e:	3c 39                	cmp    $0x39,%al
  802a90:	76 e7                	jbe    802a79 <vprintfmt+0x10e>
            for (precision = 0;; ++ufmt) {
  802a92:	4c 89 fb             	mov    %r15,%rbx
        process_precision:
  802a95:	eb b2                	jmp    802a49 <vprintfmt+0xde>
        switch (ch = *ufmt++) {
  802a97:	4c 89 fb             	mov    %r15,%rbx
  802a9a:	eb ad                	jmp    802a49 <vprintfmt+0xde>
            width = MAX(0, width);
  802a9c:	8b 45 ac             	mov    -0x54(%rbp),%eax
  802a9f:	85 c0                	test   %eax,%eax
  802aa1:	0f 48 c7             	cmovs  %edi,%eax
  802aa4:	89 45 ac             	mov    %eax,-0x54(%rbp)
        switch (ch = *ufmt++) {
  802aa7:	4c 89 fb             	mov    %r15,%rbx
            goto reswitch;
  802aaa:	e9 41 ff ff ff       	jmp    8029f0 <vprintfmt+0x85>
            lflag++;
  802aaf:	83 c2 01             	add    $0x1,%edx
        switch (ch = *ufmt++) {
  802ab2:	4c 89 fb             	mov    %r15,%rbx
            goto reswitch;
  802ab5:	e9 36 ff ff ff       	jmp    8029f0 <vprintfmt+0x85>
            putch(va_arg(aq, int), put_arg);
  802aba:	8b 45 b8             	mov    -0x48(%rbp),%eax
  802abd:	83 f8 2f             	cmp    $0x2f,%eax
  802ac0:	77 18                	ja     802ada <vprintfmt+0x16f>
  802ac2:	89 c2                	mov    %eax,%edx
  802ac4:	48 01 f2             	add    %rsi,%rdx
  802ac7:	83 c0 08             	add    $0x8,%eax
  802aca:	89 45 b8             	mov    %eax,-0x48(%rbp)
  802acd:	4c 89 f6             	mov    %r14,%rsi
  802ad0:	8b 3a                	mov    (%rdx),%edi
  802ad2:	41 ff d4             	call   *%r12
            break;
  802ad5:	e9 c2 fe ff ff       	jmp    80299c <vprintfmt+0x31>
            putch(va_arg(aq, int), put_arg);
  802ada:	48 8b 55 c0          	mov    -0x40(%rbp),%rdx
  802ade:	48 8d 42 08          	lea    0x8(%rdx),%rax
  802ae2:	48 89 45 c0          	mov    %rax,-0x40(%rbp)
  802ae6:	eb e5                	jmp    802acd <vprintfmt+0x162>
            int err = va_arg(aq, int);
  802ae8:	8b 45 b8             	mov    -0x48(%rbp),%eax
  802aeb:	83 f8 2f             	cmp    $0x2f,%eax
  802aee:	77 5b                	ja     802b4b <vprintfmt+0x1e0>
  802af0:	89 c2                	mov    %eax,%edx
  802af2:	48 01 d6             	add    %rdx,%rsi
  802af5:	83 c0 08             	add    $0x8,%eax
  802af8:	89 45 b8             	mov    %eax,-0x48(%rbp)
  802afb:	8b 0e                	mov    (%rsi),%ecx
            if (err < 0) err = -err;
  802afd:	89 c8                	mov    %ecx,%eax
  802aff:	c1 f8 1f             	sar    $0x1f,%eax
  802b02:	31 c1                	xor    %eax,%ecx
  802b04:	29 c1                	sub    %eax,%ecx
            if (err >= MAXERROR || !(strerr = error_string[err])) {
  802b06:	83 f9 13             	cmp    $0x13,%ecx
  802b09:	7f 4e                	jg     802b59 <vprintfmt+0x1ee>
  802b0b:	48 63 c1             	movslq %ecx,%rax
  802b0e:	48 ba 80 5c 80 00 00 	movabs $0x805c80,%rdx
  802b15:	00 00 00 
  802b18:	48 8b 04 c2          	mov    (%rdx,%rax,8),%rax
  802b1c:	48 85 c0             	test   %rax,%rax
  802b1f:	74 38                	je     802b59 <vprintfmt+0x1ee>
                printfmt(putch, put_arg, "%s", strerr);
  802b21:	48 89 c1             	mov    %rax,%rcx
  802b24:	48 ba bf 52 80 00 00 	movabs $0x8052bf,%rdx
  802b2b:	00 00 00 
  802b2e:	4c 89 f6             	mov    %r14,%rsi
  802b31:	4c 89 e7             	mov    %r12,%rdi
  802b34:	b8 00 00 00 00       	mov    $0x0,%eax
  802b39:	49 b8 2e 29 80 00 00 	movabs $0x80292e,%r8
  802b40:	00 00 00 
  802b43:	41 ff d0             	call   *%r8
  802b46:	e9 51 fe ff ff       	jmp    80299c <vprintfmt+0x31>
            int err = va_arg(aq, int);
  802b4b:	48 8b 75 c0          	mov    -0x40(%rbp),%rsi
  802b4f:	48 8d 46 08          	lea    0x8(%rsi),%rax
  802b53:	48 89 45 c0          	mov    %rax,-0x40(%rbp)
  802b57:	eb a2                	jmp    802afb <vprintfmt+0x190>
                printfmt(putch, put_arg, "error %d", err);
  802b59:	48 ba 3c 58 80 00 00 	movabs $0x80583c,%rdx
  802b60:	00 00 00 
  802b63:	4c 89 f6             	mov    %r14,%rsi
  802b66:	4c 89 e7             	mov    %r12,%rdi
  802b69:	b8 00 00 00 00       	mov    $0x0,%eax
  802b6e:	49 b8 2e 29 80 00 00 	movabs $0x80292e,%r8
  802b75:	00 00 00 
  802b78:	41 ff d0             	call   *%r8
  802b7b:	e9 1c fe ff ff       	jmp    80299c <vprintfmt+0x31>
            const char *ptr = va_arg(aq, char *);
  802b80:	8b 45 b8             	mov    -0x48(%rbp),%eax
  802b83:	83 f8 2f             	cmp    $0x2f,%eax
  802b86:	77 55                	ja     802bdd <vprintfmt+0x272>
  802b88:	89 c2                	mov    %eax,%edx
  802b8a:	48 01 d6             	add    %rdx,%rsi
  802b8d:	83 c0 08             	add    $0x8,%eax
  802b90:	89 45 b8             	mov    %eax,-0x48(%rbp)
  802b93:	48 8b 16             	mov    (%rsi),%rdx
            if (!ptr) ptr = "(null)";
  802b96:	48 85 d2             	test   %rdx,%rdx
  802b99:	48 b8 35 58 80 00 00 	movabs $0x805835,%rax
  802ba0:	00 00 00 
  802ba3:	48 0f 45 c2          	cmovne %rdx,%rax
  802ba7:	48 89 45 90          	mov    %rax,-0x70(%rbp)
            if (width > 0 && padc != '-') {
  802bab:	83 7d ac 00          	cmpl   $0x0,-0x54(%rbp)
  802baf:	7e 06                	jle    802bb7 <vprintfmt+0x24c>
  802bb1:	80 7d a0 2d          	cmpb   $0x2d,-0x60(%rbp)
  802bb5:	75 34                	jne    802beb <vprintfmt+0x280>
            for (; (ch = *ptr++) && (precision < 0 || --precision >= 0); width--) {
  802bb7:	48 8b 45 90          	mov    -0x70(%rbp),%rax
  802bbb:	48 8d 58 01          	lea    0x1(%rax),%rbx
  802bbf:	0f b6 00             	movzbl (%rax),%eax
  802bc2:	84 c0                	test   %al,%al
  802bc4:	0f 84 b2 00 00 00    	je     802c7c <vprintfmt+0x311>
  802bca:	4c 89 75 a0          	mov    %r14,-0x60(%rbp)
  802bce:	44 0f b6 75 98       	movzbl -0x68(%rbp),%r14d
  802bd3:	4c 89 7d 98          	mov    %r15,-0x68(%rbp)
  802bd7:	44 8b 7d ac          	mov    -0x54(%rbp),%r15d
  802bdb:	eb 74                	jmp    802c51 <vprintfmt+0x2e6>
            const char *ptr = va_arg(aq, char *);
  802bdd:	48 8b 75 c0          	mov    -0x40(%rbp),%rsi
  802be1:	48 8d 46 08          	lea    0x8(%rsi),%rax
  802be5:	48 89 45 c0          	mov    %rax,-0x40(%rbp)
  802be9:	eb a8                	jmp    802b93 <vprintfmt+0x228>
                width -= strnlen(ptr, precision);
  802beb:	49 63 f5             	movslq %r13d,%rsi
  802bee:	48 8b 7d 90          	mov    -0x70(%rbp),%rdi
  802bf2:	48 b8 3e 31 80 00 00 	movabs $0x80313e,%rax
  802bf9:	00 00 00 
  802bfc:	ff d0                	call   *%rax
  802bfe:	48 89 c2             	mov    %rax,%rdx
  802c01:	8b 45 ac             	mov    -0x54(%rbp),%eax
  802c04:	29 d0                	sub    %edx,%eax
                while (width-- > 0) putch(padc, put_arg);
  802c06:	8d 48 ff             	lea    -0x1(%rax),%ecx
  802c09:	89 4d ac             	mov    %ecx,-0x54(%rbp)
  802c0c:	85 c0                	test   %eax,%eax
  802c0e:	7e a7                	jle    802bb7 <vprintfmt+0x24c>
  802c10:	0f be 5d a0          	movsbl -0x60(%rbp),%ebx
  802c14:	44 89 6d a0          	mov    %r13d,-0x60(%rbp)
  802c18:	41 89 cd             	mov    %ecx,%r13d
  802c1b:	4c 89 f6             	mov    %r14,%rsi
  802c1e:	89 df                	mov    %ebx,%edi
  802c20:	41 ff d4             	call   *%r12
  802c23:	41 83 ed 01          	sub    $0x1,%r13d
  802c27:	41 83 fd ff          	cmp    $0xffffffff,%r13d
  802c2b:	75 ee                	jne    802c1b <vprintfmt+0x2b0>
  802c2d:	44 89 6d ac          	mov    %r13d,-0x54(%rbp)
  802c31:	44 8b 6d a0          	mov    -0x60(%rbp),%r13d
  802c35:	eb 80                	jmp    802bb7 <vprintfmt+0x24c>
                putch(altflag && (ch < ' ' || ch > '~') ? '?' : ch, put_arg);
  802c37:	0f b6 f8             	movzbl %al,%edi
  802c3a:	48 8b 75 a0          	mov    -0x60(%rbp),%rsi
  802c3e:	41 ff d4             	call   *%r12
            for (; (ch = *ptr++) && (precision < 0 || --precision >= 0); width--) {
  802c41:	41 83 ef 01          	sub    $0x1,%r15d
  802c45:	48 83 c3 01          	add    $0x1,%rbx
  802c49:	0f b6 43 ff          	movzbl -0x1(%rbx),%eax
  802c4d:	84 c0                	test   %al,%al
  802c4f:	74 1f                	je     802c70 <vprintfmt+0x305>
  802c51:	45 85 ed             	test   %r13d,%r13d
  802c54:	78 06                	js     802c5c <vprintfmt+0x2f1>
  802c56:	41 83 ed 01          	sub    $0x1,%r13d
  802c5a:	78 46                	js     802ca2 <vprintfmt+0x337>
                putch(altflag && (ch < ' ' || ch > '~') ? '?' : ch, put_arg);
  802c5c:	45 84 f6             	test   %r14b,%r14b
  802c5f:	74 d6                	je     802c37 <vprintfmt+0x2cc>
  802c61:	8d 50 e0             	lea    -0x20(%rax),%edx
  802c64:	bf 3f 00 00 00       	mov    $0x3f,%edi
  802c69:	80 fa 5e             	cmp    $0x5e,%dl
  802c6c:	77 cc                	ja     802c3a <vprintfmt+0x2cf>
  802c6e:	eb c7                	jmp    802c37 <vprintfmt+0x2cc>
  802c70:	44 89 7d ac          	mov    %r15d,-0x54(%rbp)
  802c74:	4c 8b 75 a0          	mov    -0x60(%rbp),%r14
  802c78:	4c 8b 7d 98          	mov    -0x68(%rbp),%r15
            while (width-- > 0) putch(' ', put_arg);
  802c7c:	8b 45 ac             	mov    -0x54(%rbp),%eax
  802c7f:	8d 58 ff             	lea    -0x1(%rax),%ebx
  802c82:	85 c0                	test   %eax,%eax
  802c84:	0f 8e 12 fd ff ff    	jle    80299c <vprintfmt+0x31>
  802c8a:	4c 89 f6             	mov    %r14,%rsi
  802c8d:	bf 20 00 00 00       	mov    $0x20,%edi
  802c92:	41 ff d4             	call   *%r12
  802c95:	83 eb 01             	sub    $0x1,%ebx
  802c98:	83 fb ff             	cmp    $0xffffffff,%ebx
  802c9b:	75 ed                	jne    802c8a <vprintfmt+0x31f>
  802c9d:	e9 fa fc ff ff       	jmp    80299c <vprintfmt+0x31>
  802ca2:	44 89 7d ac          	mov    %r15d,-0x54(%rbp)
  802ca6:	4c 8b 75 a0          	mov    -0x60(%rbp),%r14
  802caa:	4c 8b 7d 98          	mov    -0x68(%rbp),%r15
  802cae:	eb cc                	jmp    802c7c <vprintfmt+0x311>
    if (zflag) return va_arg(*ap, size_t);
  802cb0:	45 89 cd             	mov    %r9d,%r13d
  802cb3:	84 c9                	test   %cl,%cl
  802cb5:	75 25                	jne    802cdc <vprintfmt+0x371>
    switch (lflag) {
  802cb7:	85 d2                	test   %edx,%edx
  802cb9:	74 57                	je     802d12 <vprintfmt+0x3a7>
  802cbb:	83 fa 01             	cmp    $0x1,%edx
  802cbe:	74 78                	je     802d38 <vprintfmt+0x3cd>
        return va_arg(*ap, long long);
  802cc0:	8b 45 b8             	mov    -0x48(%rbp),%eax
  802cc3:	83 f8 2f             	cmp    $0x2f,%eax
  802cc6:	0f 87 92 00 00 00    	ja     802d5e <vprintfmt+0x3f3>
  802ccc:	89 c2                	mov    %eax,%edx
  802cce:	48 01 d6             	add    %rdx,%rsi
  802cd1:	83 c0 08             	add    $0x8,%eax
  802cd4:	89 45 b8             	mov    %eax,-0x48(%rbp)
  802cd7:	48 8b 1e             	mov    (%rsi),%rbx
  802cda:	eb 16                	jmp    802cf2 <vprintfmt+0x387>
    if (zflag) return va_arg(*ap, size_t);
  802cdc:	8b 45 b8             	mov    -0x48(%rbp),%eax
  802cdf:	83 f8 2f             	cmp    $0x2f,%eax
  802ce2:	77 20                	ja     802d04 <vprintfmt+0x399>
  802ce4:	89 c2                	mov    %eax,%edx
  802ce6:	48 01 d6             	add    %rdx,%rsi
  802ce9:	83 c0 08             	add    $0x8,%eax
  802cec:	89 45 b8             	mov    %eax,-0x48(%rbp)
  802cef:	48 8b 1e             	mov    (%rsi),%rbx
            if (i < 0) {
  802cf2:	48 85 db             	test   %rbx,%rbx
  802cf5:	78 78                	js     802d6f <vprintfmt+0x404>
            num = i;
  802cf7:	48 89 da             	mov    %rbx,%rdx
        unsigned lflag = 0, base = 10;
  802cfa:	b9 0a 00 00 00       	mov    $0xa,%ecx
            goto number;
  802cff:	e9 49 02 00 00       	jmp    802f4d <vprintfmt+0x5e2>
    if (zflag) return va_arg(*ap, size_t);
  802d04:	48 8b 75 c0          	mov    -0x40(%rbp),%rsi
  802d08:	48 8d 46 08          	lea    0x8(%rsi),%rax
  802d0c:	48 89 45 c0          	mov    %rax,-0x40(%rbp)
  802d10:	eb dd                	jmp    802cef <vprintfmt+0x384>
        return va_arg(*ap, int);
  802d12:	8b 45 b8             	mov    -0x48(%rbp),%eax
  802d15:	83 f8 2f             	cmp    $0x2f,%eax
  802d18:	77 10                	ja     802d2a <vprintfmt+0x3bf>
  802d1a:	89 c2                	mov    %eax,%edx
  802d1c:	48 01 d6             	add    %rdx,%rsi
  802d1f:	83 c0 08             	add    $0x8,%eax
  802d22:	89 45 b8             	mov    %eax,-0x48(%rbp)
  802d25:	48 63 1e             	movslq (%rsi),%rbx
  802d28:	eb c8                	jmp    802cf2 <vprintfmt+0x387>
  802d2a:	48 8b 75 c0          	mov    -0x40(%rbp),%rsi
  802d2e:	48 8d 46 08          	lea    0x8(%rsi),%rax
  802d32:	48 89 45 c0          	mov    %rax,-0x40(%rbp)
  802d36:	eb ed                	jmp    802d25 <vprintfmt+0x3ba>
        return va_arg(*ap, long);
  802d38:	8b 45 b8             	mov    -0x48(%rbp),%eax
  802d3b:	83 f8 2f             	cmp    $0x2f,%eax
  802d3e:	77 10                	ja     802d50 <vprintfmt+0x3e5>
  802d40:	89 c2                	mov    %eax,%edx
  802d42:	48 01 d6             	add    %rdx,%rsi
  802d45:	83 c0 08             	add    $0x8,%eax
  802d48:	89 45 b8             	mov    %eax,-0x48(%rbp)
  802d4b:	48 8b 1e             	mov    (%rsi),%rbx
  802d4e:	eb a2                	jmp    802cf2 <vprintfmt+0x387>
  802d50:	48 8b 75 c0          	mov    -0x40(%rbp),%rsi
  802d54:	48 8d 46 08          	lea    0x8(%rsi),%rax
  802d58:	48 89 45 c0          	mov    %rax,-0x40(%rbp)
  802d5c:	eb ed                	jmp    802d4b <vprintfmt+0x3e0>
        return va_arg(*ap, long long);
  802d5e:	48 8b 75 c0          	mov    -0x40(%rbp),%rsi
  802d62:	48 8d 46 08          	lea    0x8(%rsi),%rax
  802d66:	48 89 45 c0          	mov    %rax,-0x40(%rbp)
  802d6a:	e9 68 ff ff ff       	jmp    802cd7 <vprintfmt+0x36c>
                putch('-', put_arg);
  802d6f:	4c 89 f6             	mov    %r14,%rsi
  802d72:	bf 2d 00 00 00       	mov    $0x2d,%edi
  802d77:	41 ff d4             	call   *%r12
                i = -i;
  802d7a:	48 f7 db             	neg    %rbx
  802d7d:	e9 75 ff ff ff       	jmp    802cf7 <vprintfmt+0x38c>
    if (zflag) return va_arg(*ap, size_t);
  802d82:	45 89 cd             	mov    %r9d,%r13d
  802d85:	84 c9                	test   %cl,%cl
  802d87:	75 2d                	jne    802db6 <vprintfmt+0x44b>
    switch (lflag) {
  802d89:	85 d2                	test   %edx,%edx
  802d8b:	74 57                	je     802de4 <vprintfmt+0x479>
  802d8d:	83 fa 01             	cmp    $0x1,%edx
  802d90:	74 7f                	je     802e11 <vprintfmt+0x4a6>
        return va_arg(*ap, unsigned long long);
  802d92:	8b 45 b8             	mov    -0x48(%rbp),%eax
  802d95:	83 f8 2f             	cmp    $0x2f,%eax
  802d98:	0f 87 a1 00 00 00    	ja     802e3f <vprintfmt+0x4d4>
  802d9e:	89 c2                	mov    %eax,%edx
  802da0:	48 01 d6             	add    %rdx,%rsi
  802da3:	83 c0 08             	add    $0x8,%eax
  802da6:	89 45 b8             	mov    %eax,-0x48(%rbp)
  802da9:	48 8b 16             	mov    (%rsi),%rdx
        unsigned lflag = 0, base = 10;
  802dac:	b9 0a 00 00 00       	mov    $0xa,%ecx
        return va_arg(*ap, unsigned long long);
  802db1:	e9 97 01 00 00       	jmp    802f4d <vprintfmt+0x5e2>
    if (zflag) return va_arg(*ap, size_t);
  802db6:	8b 45 b8             	mov    -0x48(%rbp),%eax
  802db9:	83 f8 2f             	cmp    $0x2f,%eax
  802dbc:	77 18                	ja     802dd6 <vprintfmt+0x46b>
  802dbe:	89 c2                	mov    %eax,%edx
  802dc0:	48 01 d6             	add    %rdx,%rsi
  802dc3:	83 c0 08             	add    $0x8,%eax
  802dc6:	89 45 b8             	mov    %eax,-0x48(%rbp)
  802dc9:	48 8b 16             	mov    (%rsi),%rdx
        unsigned lflag = 0, base = 10;
  802dcc:	b9 0a 00 00 00       	mov    $0xa,%ecx
    if (zflag) return va_arg(*ap, size_t);
  802dd1:	e9 77 01 00 00       	jmp    802f4d <vprintfmt+0x5e2>
  802dd6:	48 8b 75 c0          	mov    -0x40(%rbp),%rsi
  802dda:	48 8d 46 08          	lea    0x8(%rsi),%rax
  802dde:	48 89 45 c0          	mov    %rax,-0x40(%rbp)
  802de2:	eb e5                	jmp    802dc9 <vprintfmt+0x45e>
        return va_arg(*ap, unsigned int);
  802de4:	8b 45 b8             	mov    -0x48(%rbp),%eax
  802de7:	83 f8 2f             	cmp    $0x2f,%eax
  802dea:	77 17                	ja     802e03 <vprintfmt+0x498>
  802dec:	89 c2                	mov    %eax,%edx
  802dee:	48 01 d6             	add    %rdx,%rsi
  802df1:	83 c0 08             	add    $0x8,%eax
  802df4:	89 45 b8             	mov    %eax,-0x48(%rbp)
  802df7:	8b 16                	mov    (%rsi),%edx
        unsigned lflag = 0, base = 10;
  802df9:	b9 0a 00 00 00       	mov    $0xa,%ecx
        return va_arg(*ap, unsigned int);
  802dfe:	e9 4a 01 00 00       	jmp    802f4d <vprintfmt+0x5e2>
  802e03:	48 8b 75 c0          	mov    -0x40(%rbp),%rsi
  802e07:	48 8d 46 08          	lea    0x8(%rsi),%rax
  802e0b:	48 89 45 c0          	mov    %rax,-0x40(%rbp)
  802e0f:	eb e6                	jmp    802df7 <vprintfmt+0x48c>
        return va_arg(*ap, unsigned long);
  802e11:	8b 45 b8             	mov    -0x48(%rbp),%eax
  802e14:	83 f8 2f             	cmp    $0x2f,%eax
  802e17:	77 18                	ja     802e31 <vprintfmt+0x4c6>
  802e19:	89 c2                	mov    %eax,%edx
  802e1b:	48 01 d6             	add    %rdx,%rsi
  802e1e:	83 c0 08             	add    $0x8,%eax
  802e21:	89 45 b8             	mov    %eax,-0x48(%rbp)
  802e24:	48 8b 16             	mov    (%rsi),%rdx
        unsigned lflag = 0, base = 10;
  802e27:	b9 0a 00 00 00       	mov    $0xa,%ecx
        return va_arg(*ap, unsigned long);
  802e2c:	e9 1c 01 00 00       	jmp    802f4d <vprintfmt+0x5e2>
  802e31:	48 8b 75 c0          	mov    -0x40(%rbp),%rsi
  802e35:	48 8d 46 08          	lea    0x8(%rsi),%rax
  802e39:	48 89 45 c0          	mov    %rax,-0x40(%rbp)
  802e3d:	eb e5                	jmp    802e24 <vprintfmt+0x4b9>
        return va_arg(*ap, unsigned long long);
  802e3f:	48 8b 75 c0          	mov    -0x40(%rbp),%rsi
  802e43:	48 8d 46 08          	lea    0x8(%rsi),%rax
  802e47:	48 89 45 c0          	mov    %rax,-0x40(%rbp)
  802e4b:	e9 59 ff ff ff       	jmp    802da9 <vprintfmt+0x43e>
    if (zflag) return va_arg(*ap, size_t);
  802e50:	45 89 cd             	mov    %r9d,%r13d
  802e53:	84 c9                	test   %cl,%cl
  802e55:	75 2d                	jne    802e84 <vprintfmt+0x519>
    switch (lflag) {
  802e57:	85 d2                	test   %edx,%edx
  802e59:	74 57                	je     802eb2 <vprintfmt+0x547>
  802e5b:	83 fa 01             	cmp    $0x1,%edx
  802e5e:	74 7c                	je     802edc <vprintfmt+0x571>
        return va_arg(*ap, unsigned long long);
  802e60:	8b 45 b8             	mov    -0x48(%rbp),%eax
  802e63:	83 f8 2f             	cmp    $0x2f,%eax
  802e66:	0f 87 9b 00 00 00    	ja     802f07 <vprintfmt+0x59c>
  802e6c:	89 c2                	mov    %eax,%edx
  802e6e:	48 01 d6             	add    %rdx,%rsi
  802e71:	83 c0 08             	add    $0x8,%eax
  802e74:	89 45 b8             	mov    %eax,-0x48(%rbp)
  802e77:	48 8b 16             	mov    (%rsi),%rdx
            base = 8;
  802e7a:	b9 08 00 00 00       	mov    $0x8,%ecx
        return va_arg(*ap, unsigned long long);
  802e7f:	e9 c9 00 00 00       	jmp    802f4d <vprintfmt+0x5e2>
    if (zflag) return va_arg(*ap, size_t);
  802e84:	8b 45 b8             	mov    -0x48(%rbp),%eax
  802e87:	83 f8 2f             	cmp    $0x2f,%eax
  802e8a:	77 18                	ja     802ea4 <vprintfmt+0x539>
  802e8c:	89 c2                	mov    %eax,%edx
  802e8e:	48 01 d6             	add    %rdx,%rsi
  802e91:	83 c0 08             	add    $0x8,%eax
  802e94:	89 45 b8             	mov    %eax,-0x48(%rbp)
  802e97:	48 8b 16             	mov    (%rsi),%rdx
            base = 8;
  802e9a:	b9 08 00 00 00       	mov    $0x8,%ecx
    if (zflag) return va_arg(*ap, size_t);
  802e9f:	e9 a9 00 00 00       	jmp    802f4d <vprintfmt+0x5e2>
  802ea4:	48 8b 75 c0          	mov    -0x40(%rbp),%rsi
  802ea8:	48 8d 46 08          	lea    0x8(%rsi),%rax
  802eac:	48 89 45 c0          	mov    %rax,-0x40(%rbp)
  802eb0:	eb e5                	jmp    802e97 <vprintfmt+0x52c>
        return va_arg(*ap, unsigned int);
  802eb2:	8b 45 b8             	mov    -0x48(%rbp),%eax
  802eb5:	83 f8 2f             	cmp    $0x2f,%eax
  802eb8:	77 14                	ja     802ece <vprintfmt+0x563>
  802eba:	89 c2                	mov    %eax,%edx
  802ebc:	48 01 d6             	add    %rdx,%rsi
  802ebf:	83 c0 08             	add    $0x8,%eax
  802ec2:	89 45 b8             	mov    %eax,-0x48(%rbp)
  802ec5:	8b 16                	mov    (%rsi),%edx
            base = 8;
  802ec7:	b9 08 00 00 00       	mov    $0x8,%ecx
        return va_arg(*ap, unsigned int);
  802ecc:	eb 7f                	jmp    802f4d <vprintfmt+0x5e2>
  802ece:	48 8b 75 c0          	mov    -0x40(%rbp),%rsi
  802ed2:	48 8d 46 08          	lea    0x8(%rsi),%rax
  802ed6:	48 89 45 c0          	mov    %rax,-0x40(%rbp)
  802eda:	eb e9                	jmp    802ec5 <vprintfmt+0x55a>
        return va_arg(*ap, unsigned long);
  802edc:	8b 45 b8             	mov    -0x48(%rbp),%eax
  802edf:	83 f8 2f             	cmp    $0x2f,%eax
  802ee2:	77 15                	ja     802ef9 <vprintfmt+0x58e>
  802ee4:	89 c2                	mov    %eax,%edx
  802ee6:	48 01 d6             	add    %rdx,%rsi
  802ee9:	83 c0 08             	add    $0x8,%eax
  802eec:	89 45 b8             	mov    %eax,-0x48(%rbp)
  802eef:	48 8b 16             	mov    (%rsi),%rdx
            base = 8;
  802ef2:	b9 08 00 00 00       	mov    $0x8,%ecx
        return va_arg(*ap, unsigned long);
  802ef7:	eb 54                	jmp    802f4d <vprintfmt+0x5e2>
  802ef9:	48 8b 75 c0          	mov    -0x40(%rbp),%rsi
  802efd:	48 8d 46 08          	lea    0x8(%rsi),%rax
  802f01:	48 89 45 c0          	mov    %rax,-0x40(%rbp)
  802f05:	eb e8                	jmp    802eef <vprintfmt+0x584>
        return va_arg(*ap, unsigned long long);
  802f07:	48 8b 75 c0          	mov    -0x40(%rbp),%rsi
  802f0b:	48 8d 46 08          	lea    0x8(%rsi),%rax
  802f0f:	48 89 45 c0          	mov    %rax,-0x40(%rbp)
  802f13:	e9 5f ff ff ff       	jmp    802e77 <vprintfmt+0x50c>
            putch('0', put_arg);
  802f18:	45 89 cd             	mov    %r9d,%r13d
  802f1b:	4c 89 f6             	mov    %r14,%rsi
  802f1e:	bf 30 00 00 00       	mov    $0x30,%edi
  802f23:	41 ff d4             	call   *%r12
            putch('x', put_arg);
  802f26:	4c 89 f6             	mov    %r14,%rsi
  802f29:	bf 78 00 00 00       	mov    $0x78,%edi
  802f2e:	41 ff d4             	call   *%r12
            num = (uintptr_t)va_arg(aq, void *);
  802f31:	8b 45 b8             	mov    -0x48(%rbp),%eax
  802f34:	83 f8 2f             	cmp    $0x2f,%eax
  802f37:	77 47                	ja     802f80 <vprintfmt+0x615>
  802f39:	89 c2                	mov    %eax,%edx
  802f3b:	48 03 55 c8          	add    -0x38(%rbp),%rdx
  802f3f:	83 c0 08             	add    $0x8,%eax
  802f42:	89 45 b8             	mov    %eax,-0x48(%rbp)
  802f45:	48 8b 12             	mov    (%rdx),%rdx
            base = 16;
  802f48:	b9 10 00 00 00       	mov    $0x10,%ecx
            print_num(putch, put_arg, num, base, width, padc, ch == 'X');
  802f4d:	48 83 ec 08          	sub    $0x8,%rsp
  802f51:	41 80 fd 58          	cmp    $0x58,%r13b
  802f55:	0f 94 c0             	sete   %al
  802f58:	0f b6 c0             	movzbl %al,%eax
  802f5b:	50                   	push   %rax
  802f5c:	44 0f be 4d a0       	movsbl -0x60(%rbp),%r9d
  802f61:	44 8b 45 ac          	mov    -0x54(%rbp),%r8d
  802f65:	4c 89 f6             	mov    %r14,%rsi
  802f68:	4c 89 e7             	mov    %r12,%rdi
  802f6b:	48 b8 60 28 80 00 00 	movabs $0x802860,%rax
  802f72:	00 00 00 
  802f75:	ff d0                	call   *%rax
            break;
  802f77:	48 83 c4 10          	add    $0x10,%rsp
  802f7b:	e9 1c fa ff ff       	jmp    80299c <vprintfmt+0x31>
            num = (uintptr_t)va_arg(aq, void *);
  802f80:	48 8b 55 c0          	mov    -0x40(%rbp),%rdx
  802f84:	48 8d 42 08          	lea    0x8(%rdx),%rax
  802f88:	48 89 45 c0          	mov    %rax,-0x40(%rbp)
  802f8c:	eb b7                	jmp    802f45 <vprintfmt+0x5da>
    if (zflag) return va_arg(*ap, size_t);
  802f8e:	45 89 cd             	mov    %r9d,%r13d
  802f91:	84 c9                	test   %cl,%cl
  802f93:	75 2a                	jne    802fbf <vprintfmt+0x654>
    switch (lflag) {
  802f95:	85 d2                	test   %edx,%edx
  802f97:	74 54                	je     802fed <vprintfmt+0x682>
  802f99:	83 fa 01             	cmp    $0x1,%edx
  802f9c:	74 7c                	je     80301a <vprintfmt+0x6af>
        return va_arg(*ap, unsigned long long);
  802f9e:	8b 45 b8             	mov    -0x48(%rbp),%eax
  802fa1:	83 f8 2f             	cmp    $0x2f,%eax
  802fa4:	0f 87 9e 00 00 00    	ja     803048 <vprintfmt+0x6dd>
  802faa:	89 c2                	mov    %eax,%edx
  802fac:	48 01 d6             	add    %rdx,%rsi
  802faf:	83 c0 08             	add    $0x8,%eax
  802fb2:	89 45 b8             	mov    %eax,-0x48(%rbp)
  802fb5:	48 8b 16             	mov    (%rsi),%rdx
            base = 16;
  802fb8:	b9 10 00 00 00       	mov    $0x10,%ecx
        return va_arg(*ap, unsigned long long);
  802fbd:	eb 8e                	jmp    802f4d <vprintfmt+0x5e2>
    if (zflag) return va_arg(*ap, size_t);
  802fbf:	8b 45 b8             	mov    -0x48(%rbp),%eax
  802fc2:	83 f8 2f             	cmp    $0x2f,%eax
  802fc5:	77 18                	ja     802fdf <vprintfmt+0x674>
  802fc7:	89 c2                	mov    %eax,%edx
  802fc9:	48 01 d6             	add    %rdx,%rsi
  802fcc:	83 c0 08             	add    $0x8,%eax
  802fcf:	89 45 b8             	mov    %eax,-0x48(%rbp)
  802fd2:	48 8b 16             	mov    (%rsi),%rdx
            base = 16;
  802fd5:	b9 10 00 00 00       	mov    $0x10,%ecx
    if (zflag) return va_arg(*ap, size_t);
  802fda:	e9 6e ff ff ff       	jmp    802f4d <vprintfmt+0x5e2>
  802fdf:	48 8b 75 c0          	mov    -0x40(%rbp),%rsi
  802fe3:	48 8d 46 08          	lea    0x8(%rsi),%rax
  802fe7:	48 89 45 c0          	mov    %rax,-0x40(%rbp)
  802feb:	eb e5                	jmp    802fd2 <vprintfmt+0x667>
        return va_arg(*ap, unsigned int);
  802fed:	8b 45 b8             	mov    -0x48(%rbp),%eax
  802ff0:	83 f8 2f             	cmp    $0x2f,%eax
  802ff3:	77 17                	ja     80300c <vprintfmt+0x6a1>
  802ff5:	89 c2                	mov    %eax,%edx
  802ff7:	48 01 d6             	add    %rdx,%rsi
  802ffa:	83 c0 08             	add    $0x8,%eax
  802ffd:	89 45 b8             	mov    %eax,-0x48(%rbp)
  803000:	8b 16                	mov    (%rsi),%edx
            base = 16;
  803002:	b9 10 00 00 00       	mov    $0x10,%ecx
        return va_arg(*ap, unsigned int);
  803007:	e9 41 ff ff ff       	jmp    802f4d <vprintfmt+0x5e2>
  80300c:	48 8b 75 c0          	mov    -0x40(%rbp),%rsi
  803010:	48 8d 46 08          	lea    0x8(%rsi),%rax
  803014:	48 89 45 c0          	mov    %rax,-0x40(%rbp)
  803018:	eb e6                	jmp    803000 <vprintfmt+0x695>
        return va_arg(*ap, unsigned long);
  80301a:	8b 45 b8             	mov    -0x48(%rbp),%eax
  80301d:	83 f8 2f             	cmp    $0x2f,%eax
  803020:	77 18                	ja     80303a <vprintfmt+0x6cf>
  803022:	89 c2                	mov    %eax,%edx
  803024:	48 01 d6             	add    %rdx,%rsi
  803027:	83 c0 08             	add    $0x8,%eax
  80302a:	89 45 b8             	mov    %eax,-0x48(%rbp)
  80302d:	48 8b 16             	mov    (%rsi),%rdx
            base = 16;
  803030:	b9 10 00 00 00       	mov    $0x10,%ecx
        return va_arg(*ap, unsigned long);
  803035:	e9 13 ff ff ff       	jmp    802f4d <vprintfmt+0x5e2>
  80303a:	48 8b 75 c0          	mov    -0x40(%rbp),%rsi
  80303e:	48 8d 46 08          	lea    0x8(%rsi),%rax
  803042:	48 89 45 c0          	mov    %rax,-0x40(%rbp)
  803046:	eb e5                	jmp    80302d <vprintfmt+0x6c2>
        return va_arg(*ap, unsigned long long);
  803048:	48 8b 75 c0          	mov    -0x40(%rbp),%rsi
  80304c:	48 8d 46 08          	lea    0x8(%rsi),%rax
  803050:	48 89 45 c0          	mov    %rax,-0x40(%rbp)
  803054:	e9 5c ff ff ff       	jmp    802fb5 <vprintfmt+0x64a>
            putch(ch, put_arg);
  803059:	4c 89 f6             	mov    %r14,%rsi
  80305c:	bf 25 00 00 00       	mov    $0x25,%edi
  803061:	41 ff d4             	call   *%r12
            break;
  803064:	e9 33 f9 ff ff       	jmp    80299c <vprintfmt+0x31>
            putch('%', put_arg);
  803069:	4c 89 f6             	mov    %r14,%rsi
  80306c:	bf 25 00 00 00       	mov    $0x25,%edi
  803071:	41 ff d4             	call   *%r12
            while ((--ufmt)[-1] != '%') /* nothing */
  803074:	49 83 ef 01          	sub    $0x1,%r15
  803078:	41 80 7f ff 25       	cmpb   $0x25,-0x1(%r15)
  80307d:	75 f5                	jne    803074 <vprintfmt+0x709>
  80307f:	e9 18 f9 ff ff       	jmp    80299c <vprintfmt+0x31>
}
  803084:	48 8d 65 d8          	lea    -0x28(%rbp),%rsp
  803088:	5b                   	pop    %rbx
  803089:	41 5c                	pop    %r12
  80308b:	41 5d                	pop    %r13
  80308d:	41 5e                	pop    %r14
  80308f:	41 5f                	pop    %r15
  803091:	5d                   	pop    %rbp
  803092:	c3                   	ret    

0000000000803093 <vsnprintf>:

int
vsnprintf(char *buf, size_t n, const char *fmt, va_list ap) {
  803093:	55                   	push   %rbp
  803094:	48 89 e5             	mov    %rsp,%rbp
  803097:	48 83 ec 20          	sub    $0x20,%rsp
    struct sprintbuf state = {buf, buf + n - 1, 0};
  80309b:	48 89 7d e8          	mov    %rdi,-0x18(%rbp)
  80309f:	48 8d 44 37 ff       	lea    -0x1(%rdi,%rsi,1),%rax
  8030a4:	48 89 45 f0          	mov    %rax,-0x10(%rbp)
  8030a8:	c7 45 f8 00 00 00 00 	movl   $0x0,-0x8(%rbp)

    if (!buf || n < 1) return -E_INVAL;
  8030af:	48 85 ff             	test   %rdi,%rdi
  8030b2:	74 2b                	je     8030df <vsnprintf+0x4c>
  8030b4:	48 85 f6             	test   %rsi,%rsi
  8030b7:	74 26                	je     8030df <vsnprintf+0x4c>

    /* Print the string to the buffer */
    vprintfmt((void *)sprintputch, &state, fmt, ap);
  8030b9:	48 8d 75 e8          	lea    -0x18(%rbp),%rsi
  8030bd:	48 bf 16 29 80 00 00 	movabs $0x802916,%rdi
  8030c4:	00 00 00 
  8030c7:	48 b8 6b 29 80 00 00 	movabs $0x80296b,%rax
  8030ce:	00 00 00 
  8030d1:	ff d0                	call   *%rax

    /* Null terminate the buffer */
    *state.start = '\0';
  8030d3:	48 8b 45 e8          	mov    -0x18(%rbp),%rax
  8030d7:	c6 00 00             	movb   $0x0,(%rax)

    return state.count;
  8030da:	8b 45 f8             	mov    -0x8(%rbp),%eax
}
  8030dd:	c9                   	leave  
  8030de:	c3                   	ret    
    if (!buf || n < 1) return -E_INVAL;
  8030df:	b8 fd ff ff ff       	mov    $0xfffffffd,%eax
  8030e4:	eb f7                	jmp    8030dd <vsnprintf+0x4a>

00000000008030e6 <snprintf>:

int
snprintf(char *buf, size_t n, const char *fmt, ...) {
  8030e6:	55                   	push   %rbp
  8030e7:	48 89 e5             	mov    %rsp,%rbp
  8030ea:	48 83 ec 50          	sub    $0x50,%rsp
  8030ee:	48 89 4d e8          	mov    %rcx,-0x18(%rbp)
  8030f2:	4c 89 45 f0          	mov    %r8,-0x10(%rbp)
  8030f6:	4c 89 4d f8          	mov    %r9,-0x8(%rbp)
    va_list ap;

    va_start(ap, fmt);
  8030fa:	c7 45 b8 18 00 00 00 	movl   $0x18,-0x48(%rbp)
  803101:	48 8d 45 10          	lea    0x10(%rbp),%rax
  803105:	48 89 45 c0          	mov    %rax,-0x40(%rbp)
  803109:	48 8d 45 d0          	lea    -0x30(%rbp),%rax
  80310d:	48 89 45 c8          	mov    %rax,-0x38(%rbp)
    int rc = vsnprintf(buf, n, fmt, ap);
  803111:	48 8d 4d b8          	lea    -0x48(%rbp),%rcx
  803115:	48 b8 93 30 80 00 00 	movabs $0x803093,%rax
  80311c:	00 00 00 
  80311f:	ff d0                	call   *%rax
    va_end(ap);

    return rc;
}
  803121:	c9                   	leave  
  803122:	c3                   	ret    

0000000000803123 <strlen>:
#define ASM 1

size_t
strlen(const char *s) {
    size_t n = 0;
    while (*s++) n++;
  803123:	80 3f 00             	cmpb   $0x0,(%rdi)
  803126:	74 10                	je     803138 <strlen+0x15>
    size_t n = 0;
  803128:	b8 00 00 00 00       	mov    $0x0,%eax
    while (*s++) n++;
  80312d:	48 83 c0 01          	add    $0x1,%rax
  803131:	80 3c 07 00          	cmpb   $0x0,(%rdi,%rax,1)
  803135:	75 f6                	jne    80312d <strlen+0xa>
  803137:	c3                   	ret    
    size_t n = 0;
  803138:	b8 00 00 00 00       	mov    $0x0,%eax
    return n;
}
  80313d:	c3                   	ret    

000000000080313e <strnlen>:

size_t
strnlen(const char *s, size_t size) {
    size_t n = 0;
  80313e:	b8 00 00 00 00       	mov    $0x0,%eax
    while (n < size && *s++) n++;
  803143:	48 85 f6             	test   %rsi,%rsi
  803146:	74 10                	je     803158 <strnlen+0x1a>
  803148:	80 3c 07 00          	cmpb   $0x0,(%rdi,%rax,1)
  80314c:	74 09                	je     803157 <strnlen+0x19>
  80314e:	48 83 c0 01          	add    $0x1,%rax
  803152:	48 39 c6             	cmp    %rax,%rsi
  803155:	75 f1                	jne    803148 <strnlen+0xa>
    return n;
}
  803157:	c3                   	ret    
    size_t n = 0;
  803158:	48 89 f0             	mov    %rsi,%rax
  80315b:	c3                   	ret    

000000000080315c <strcpy>:

char *
strcpy(char *dst, const char *src) {
    char *res = dst;
    while ((*dst++ = *src++)) /* nothing */
  80315c:	b8 00 00 00 00       	mov    $0x0,%eax
  803161:	0f b6 14 06          	movzbl (%rsi,%rax,1),%edx
  803165:	88 14 07             	mov    %dl,(%rdi,%rax,1)
  803168:	48 83 c0 01          	add    $0x1,%rax
  80316c:	84 d2                	test   %dl,%dl
  80316e:	75 f1                	jne    803161 <strcpy+0x5>
        ;
    return res;
}
  803170:	48 89 f8             	mov    %rdi,%rax
  803173:	c3                   	ret    

0000000000803174 <strcat>:

char *
strcat(char *dst, const char *src) {
  803174:	55                   	push   %rbp
  803175:	48 89 e5             	mov    %rsp,%rbp
  803178:	41 54                	push   %r12
  80317a:	53                   	push   %rbx
  80317b:	48 89 fb             	mov    %rdi,%rbx
  80317e:	49 89 f4             	mov    %rsi,%r12
    size_t len = strlen(dst);
  803181:	48 b8 23 31 80 00 00 	movabs $0x803123,%rax
  803188:	00 00 00 
  80318b:	ff d0                	call   *%rax
    strcpy(dst + len, src);
  80318d:	48 8d 3c 03          	lea    (%rbx,%rax,1),%rdi
  803191:	4c 89 e6             	mov    %r12,%rsi
  803194:	48 b8 5c 31 80 00 00 	movabs $0x80315c,%rax
  80319b:	00 00 00 
  80319e:	ff d0                	call   *%rax
    return dst;
}
  8031a0:	48 89 d8             	mov    %rbx,%rax
  8031a3:	5b                   	pop    %rbx
  8031a4:	41 5c                	pop    %r12
  8031a6:	5d                   	pop    %rbp
  8031a7:	c3                   	ret    

00000000008031a8 <strncpy>:

char *
strncpy(char *dst, const char *src, size_t size) {
    char *ret = dst;
    while (size-- > 0) {
  8031a8:	48 85 d2             	test   %rdx,%rdx
  8031ab:	74 1d                	je     8031ca <strncpy+0x22>
  8031ad:	48 8d 0c 17          	lea    (%rdi,%rdx,1),%rcx
  8031b1:	48 89 f8             	mov    %rdi,%rax
        *dst++ = *src;
  8031b4:	48 83 c0 01          	add    $0x1,%rax
  8031b8:	0f b6 16             	movzbl (%rsi),%edx
  8031bb:	88 50 ff             	mov    %dl,-0x1(%rax)
        /* If strlen(src) < size, null-pad
         * 'dst' out to 'size' chars */
        if (*src) src++;
  8031be:	80 fa 01             	cmp    $0x1,%dl
  8031c1:	48 83 de ff          	sbb    $0xffffffffffffffff,%rsi
    while (size-- > 0) {
  8031c5:	48 39 c1             	cmp    %rax,%rcx
  8031c8:	75 ea                	jne    8031b4 <strncpy+0xc>
    }
    return ret;
}
  8031ca:	48 89 f8             	mov    %rdi,%rax
  8031cd:	c3                   	ret    

00000000008031ce <strlcpy>:

size_t
strlcpy(char *dst, const char *src, size_t size) {
    char *dst_in = dst;
    if (size) {
  8031ce:	48 89 f8             	mov    %rdi,%rax
  8031d1:	48 85 d2             	test   %rdx,%rdx
  8031d4:	74 24                	je     8031fa <strlcpy+0x2c>
        while (--size > 0 && *src)
  8031d6:	48 83 ea 01          	sub    $0x1,%rdx
  8031da:	74 1b                	je     8031f7 <strlcpy+0x29>
  8031dc:	48 8d 0c 17          	lea    (%rdi,%rdx,1),%rcx
  8031e0:	0f b6 16             	movzbl (%rsi),%edx
  8031e3:	84 d2                	test   %dl,%dl
  8031e5:	74 10                	je     8031f7 <strlcpy+0x29>
            *dst++ = *src++;
  8031e7:	48 83 c6 01          	add    $0x1,%rsi
  8031eb:	48 83 c0 01          	add    $0x1,%rax
  8031ef:	88 50 ff             	mov    %dl,-0x1(%rax)
        while (--size > 0 && *src)
  8031f2:	48 39 c8             	cmp    %rcx,%rax
  8031f5:	75 e9                	jne    8031e0 <strlcpy+0x12>
        *dst = '\0';
  8031f7:	c6 00 00             	movb   $0x0,(%rax)
    }
    return dst - dst_in;
  8031fa:	48 29 f8             	sub    %rdi,%rax
}
  8031fd:	c3                   	ret    

00000000008031fe <strcmp>:
    return dstlen + srclen;
}

int
strcmp(const char *p, const char *q) {
    while (*p && *p == *q) p++, q++;
  8031fe:	0f b6 07             	movzbl (%rdi),%eax
  803201:	84 c0                	test   %al,%al
  803203:	74 13                	je     803218 <strcmp+0x1a>
  803205:	38 06                	cmp    %al,(%rsi)
  803207:	75 0f                	jne    803218 <strcmp+0x1a>
  803209:	48 83 c7 01          	add    $0x1,%rdi
  80320d:	48 83 c6 01          	add    $0x1,%rsi
  803211:	0f b6 07             	movzbl (%rdi),%eax
  803214:	84 c0                	test   %al,%al
  803216:	75 ed                	jne    803205 <strcmp+0x7>
    return (int)((unsigned char)*p - (unsigned char)*q);
  803218:	0f b6 c0             	movzbl %al,%eax
  80321b:	0f b6 16             	movzbl (%rsi),%edx
  80321e:	29 d0                	sub    %edx,%eax
}
  803220:	c3                   	ret    

0000000000803221 <strncmp>:

int
strncmp(const char *p, const char *q, size_t n) {
    while (n && *p && *p == *q) n--, p++, q++;
  803221:	48 85 d2             	test   %rdx,%rdx
  803224:	74 1f                	je     803245 <strncmp+0x24>
  803226:	0f b6 07             	movzbl (%rdi),%eax
  803229:	84 c0                	test   %al,%al
  80322b:	74 1e                	je     80324b <strncmp+0x2a>
  80322d:	3a 06                	cmp    (%rsi),%al
  80322f:	75 1a                	jne    80324b <strncmp+0x2a>
  803231:	48 83 c7 01          	add    $0x1,%rdi
  803235:	48 83 c6 01          	add    $0x1,%rsi
  803239:	48 83 ea 01          	sub    $0x1,%rdx
  80323d:	75 e7                	jne    803226 <strncmp+0x5>

    if (!n) return 0;
  80323f:	b8 00 00 00 00       	mov    $0x0,%eax
  803244:	c3                   	ret    
  803245:	b8 00 00 00 00       	mov    $0x0,%eax
  80324a:	c3                   	ret    
  80324b:	48 85 d2             	test   %rdx,%rdx
  80324e:	74 09                	je     803259 <strncmp+0x38>

    return (int)((unsigned char)*p - (unsigned char)*q);
  803250:	0f b6 07             	movzbl (%rdi),%eax
  803253:	0f b6 16             	movzbl (%rsi),%edx
  803256:	29 d0                	sub    %edx,%eax
  803258:	c3                   	ret    
    if (!n) return 0;
  803259:	b8 00 00 00 00       	mov    $0x0,%eax
}
  80325e:	c3                   	ret    

000000000080325f <strchr>:

/* Return a pointer to the first occurrence of 'c' in 's',
 *  * or a null pointer if the string has no 'c' */
char *
strchr(const char *str, int c) {
    for (; *str; str++) {
  80325f:	0f b6 07             	movzbl (%rdi),%eax
  803262:	84 c0                	test   %al,%al
  803264:	74 18                	je     80327e <strchr+0x1f>
        if (*str == c) {
  803266:	0f be c0             	movsbl %al,%eax
  803269:	39 f0                	cmp    %esi,%eax
  80326b:	74 17                	je     803284 <strchr+0x25>
    for (; *str; str++) {
  80326d:	48 83 c7 01          	add    $0x1,%rdi
  803271:	0f b6 07             	movzbl (%rdi),%eax
  803274:	84 c0                	test   %al,%al
  803276:	75 ee                	jne    803266 <strchr+0x7>
            return (char *)str;
        }
    }
    return NULL;
  803278:	b8 00 00 00 00       	mov    $0x0,%eax
  80327d:	c3                   	ret    
  80327e:	b8 00 00 00 00       	mov    $0x0,%eax
  803283:	c3                   	ret    
  803284:	48 89 f8             	mov    %rdi,%rax
}
  803287:	c3                   	ret    

0000000000803288 <strfind>:

/* Return a pointer to the first occurrence of 'c' in 's',
 *  * or a pointer to the string-ending null character if the string has no 'c' */
char *
strfind(const char *str, int ch) {
    for (; *str && *str != ch; str++) /* nothing */
  803288:	0f b6 07             	movzbl (%rdi),%eax
  80328b:	84 c0                	test   %al,%al
  80328d:	74 16                	je     8032a5 <strfind+0x1d>
  80328f:	0f be c0             	movsbl %al,%eax
  803292:	39 f0                	cmp    %esi,%eax
  803294:	74 13                	je     8032a9 <strfind+0x21>
  803296:	48 83 c7 01          	add    $0x1,%rdi
  80329a:	0f b6 07             	movzbl (%rdi),%eax
  80329d:	84 c0                	test   %al,%al
  80329f:	75 ee                	jne    80328f <strfind+0x7>
  8032a1:	48 89 f8             	mov    %rdi,%rax
        ;
    return (char *)str;
}
  8032a4:	c3                   	ret    
    for (; *str && *str != ch; str++) /* nothing */
  8032a5:	48 89 f8             	mov    %rdi,%rax
  8032a8:	c3                   	ret    
  8032a9:	48 89 f8             	mov    %rdi,%rax
  8032ac:	c3                   	ret    

00000000008032ad <memset>:


#if ASM
void *
memset(void *v, int c, size_t n) {
  8032ad:	49 89 f8             	mov    %rdi,%r8
    uint8_t *ptr = v;
    ssize_t ni = n;

    if (__builtin_expect((ni -= ((8 - ((uintptr_t)v & 7))) & 7) < 0, 0)) {
  8032b0:	48 89 f8             	mov    %rdi,%rax
  8032b3:	48 f7 d8             	neg    %rax
  8032b6:	83 e0 07             	and    $0x7,%eax
  8032b9:	49 89 d1             	mov    %rdx,%r9
  8032bc:	49 29 c1             	sub    %rax,%r9
  8032bf:	78 32                	js     8032f3 <memset+0x46>
        while (n-- > 0) *ptr++ = c;
        return v;
    }

    uint64_t k = 0x101010101010101ULL * (c & 0xFFU);
  8032c1:	40 0f b6 c6          	movzbl %sil,%eax
  8032c5:	48 be 01 01 01 01 01 	movabs $0x101010101010101,%rsi
  8032cc:	01 01 01 
  8032cf:	48 0f af c6          	imul   %rsi,%rax

    if (__builtin_expect((uintptr_t)ptr & 7, 0)) {
  8032d3:	40 f6 c7 07          	test   $0x7,%dil
  8032d7:	75 34                	jne    80330d <memset+0x60>
        if ((uintptr_t)ptr & 1) *ptr = k, ptr += 1;
        if ((uintptr_t)ptr & 2) *(uint16_t *)ptr = k, ptr += 2;
        if ((uintptr_t)ptr & 4) *(uint32_t *)ptr = k, ptr += 4;
    }

    if (__builtin_expect(ni >> 3, 1)) {
  8032d9:	4c 89 c9             	mov    %r9,%rcx
  8032dc:	48 c1 f9 03          	sar    $0x3,%rcx
  8032e0:	74 08                	je     8032ea <memset+0x3d>
        asm volatile("cld; rep stosq\n" ::"D"(ptr), "a"(k), "c"(ni >> 3)
  8032e2:	fc                   	cld    
  8032e3:	f3 48 ab             	rep stos %rax,%es:(%rdi)
                     : "cc", "memory");
        ni &= 7;
  8032e6:	41 83 e1 07          	and    $0x7,%r9d
    }

    if (__builtin_expect(ni, 0)) {
  8032ea:	4d 85 c9             	test   %r9,%r9
  8032ed:	75 45                	jne    803334 <memset+0x87>
        if (ni & 2) *(uint16_t *)ptr = k, ptr += 2;
        if (ni & 1) *ptr = k;
    }

    return v;
}
  8032ef:	4c 89 c0             	mov    %r8,%rax
  8032f2:	c3                   	ret    
        while (n-- > 0) *ptr++ = c;
  8032f3:	48 85 d2             	test   %rdx,%rdx
  8032f6:	74 f7                	je     8032ef <memset+0x42>
  8032f8:	48 01 fa             	add    %rdi,%rdx
    uint8_t *ptr = v;
  8032fb:	48 89 f8             	mov    %rdi,%rax
        while (n-- > 0) *ptr++ = c;
  8032fe:	48 83 c0 01          	add    $0x1,%rax
  803302:	40 88 70 ff          	mov    %sil,-0x1(%rax)
  803306:	48 39 c2             	cmp    %rax,%rdx
  803309:	75 f3                	jne    8032fe <memset+0x51>
  80330b:	eb e2                	jmp    8032ef <memset+0x42>
        if ((uintptr_t)ptr & 1) *ptr = k, ptr += 1;
  80330d:	40 f6 c7 01          	test   $0x1,%dil
  803311:	74 06                	je     803319 <memset+0x6c>
  803313:	88 07                	mov    %al,(%rdi)
  803315:	48 8d 7f 01          	lea    0x1(%rdi),%rdi
        if ((uintptr_t)ptr & 2) *(uint16_t *)ptr = k, ptr += 2;
  803319:	40 f6 c7 02          	test   $0x2,%dil
  80331d:	74 07                	je     803326 <memset+0x79>
  80331f:	66 89 07             	mov    %ax,(%rdi)
  803322:	48 83 c7 02          	add    $0x2,%rdi
        if ((uintptr_t)ptr & 4) *(uint32_t *)ptr = k, ptr += 4;
  803326:	40 f6 c7 04          	test   $0x4,%dil
  80332a:	74 ad                	je     8032d9 <memset+0x2c>
  80332c:	89 07                	mov    %eax,(%rdi)
  80332e:	48 83 c7 04          	add    $0x4,%rdi
  803332:	eb a5                	jmp    8032d9 <memset+0x2c>
        if (ni & 4) *(uint32_t *)ptr = k, ptr += 4;
  803334:	41 f6 c1 04          	test   $0x4,%r9b
  803338:	74 06                	je     803340 <memset+0x93>
  80333a:	89 07                	mov    %eax,(%rdi)
  80333c:	48 83 c7 04          	add    $0x4,%rdi
        if (ni & 2) *(uint16_t *)ptr = k, ptr += 2;
  803340:	41 f6 c1 02          	test   $0x2,%r9b
  803344:	74 07                	je     80334d <memset+0xa0>
  803346:	66 89 07             	mov    %ax,(%rdi)
  803349:	48 83 c7 02          	add    $0x2,%rdi
        if (ni & 1) *ptr = k;
  80334d:	41 f6 c1 01          	test   $0x1,%r9b
  803351:	74 9c                	je     8032ef <memset+0x42>
  803353:	88 07                	mov    %al,(%rdi)
  803355:	eb 98                	jmp    8032ef <memset+0x42>

0000000000803357 <memmove>:

void *
memmove(void *dst, const void *src, size_t n) {
  803357:	48 89 f8             	mov    %rdi,%rax
  80335a:	48 89 d1             	mov    %rdx,%rcx
    const char *s = src;
    char *d = dst;

    if (s < d && s + n > d) {
  80335d:	48 39 fe             	cmp    %rdi,%rsi
  803360:	73 39                	jae    80339b <memmove+0x44>
  803362:	48 01 f2             	add    %rsi,%rdx
  803365:	48 39 fa             	cmp    %rdi,%rdx
  803368:	76 31                	jbe    80339b <memmove+0x44>
        s += n;
        d += n;
  80336a:	48 01 cf             	add    %rcx,%rdi
        if (!(((intptr_t)s & 7) | ((intptr_t)d & 7) | (n & 7))) {
  80336d:	48 89 d6             	mov    %rdx,%rsi
  803370:	48 09 fe             	or     %rdi,%rsi
  803373:	48 09 ce             	or     %rcx,%rsi
  803376:	40 f6 c6 07          	test   $0x7,%sil
  80337a:	75 12                	jne    80338e <memmove+0x37>
            asm volatile("std; rep movsq\n" ::"D"(d - 8), "S"(s - 8), "c"(n / 8)
  80337c:	48 83 ef 08          	sub    $0x8,%rdi
  803380:	48 8d 72 f8          	lea    -0x8(%rdx),%rsi
  803384:	48 c1 e9 03          	shr    $0x3,%rcx
  803388:	fd                   	std    
  803389:	f3 48 a5             	rep movsq %ds:(%rsi),%es:(%rdi)
        } else {
            asm volatile("std; rep movsb\n" ::"D"(d - 1), "S"(s - 1), "c"(n)
                         : "cc", "memory");
        }
        /* Some versions of GCC rely on DF being clear */
        asm volatile("cld" ::
  80338c:	fc                   	cld    
  80338d:	c3                   	ret    
            asm volatile("std; rep movsb\n" ::"D"(d - 1), "S"(s - 1), "c"(n)
  80338e:	48 83 ef 01          	sub    $0x1,%rdi
  803392:	48 8d 72 ff          	lea    -0x1(%rdx),%rsi
  803396:	fd                   	std    
  803397:	f3 a4                	rep movsb %ds:(%rsi),%es:(%rdi)
  803399:	eb f1                	jmp    80338c <memmove+0x35>
                             : "cc");
    } else {
        if (!(((intptr_t)s & 7) | ((intptr_t)d & 7) | (n & 7))) {
  80339b:	48 89 f2             	mov    %rsi,%rdx
  80339e:	48 09 c2             	or     %rax,%rdx
  8033a1:	48 09 ca             	or     %rcx,%rdx
  8033a4:	f6 c2 07             	test   $0x7,%dl
  8033a7:	75 0c                	jne    8033b5 <memmove+0x5e>
            asm volatile("cld; rep movsq\n" ::"D"(d), "S"(s), "c"(n / 8)
  8033a9:	48 c1 e9 03          	shr    $0x3,%rcx
  8033ad:	48 89 c7             	mov    %rax,%rdi
  8033b0:	fc                   	cld    
  8033b1:	f3 48 a5             	rep movsq %ds:(%rsi),%es:(%rdi)
  8033b4:	c3                   	ret    
                         : "cc", "memory");
        } else {
            asm volatile("cld; rep movsb\n" ::"D"(d), "S"(s), "c"(n)
  8033b5:	48 89 c7             	mov    %rax,%rdi
  8033b8:	fc                   	cld    
  8033b9:	f3 a4                	rep movsb %ds:(%rsi),%es:(%rdi)
                         : "cc", "memory");
        }
    }
    return dst;
}
  8033bb:	c3                   	ret    

00000000008033bc <memcpy>:
    return dst;
}
#endif

void *
memcpy(void *dst, const void *src, size_t n) {
  8033bc:	55                   	push   %rbp
  8033bd:	48 89 e5             	mov    %rsp,%rbp
    return memmove(dst, src, n);
  8033c0:	48 b8 57 33 80 00 00 	movabs $0x803357,%rax
  8033c7:	00 00 00 
  8033ca:	ff d0                	call   *%rax
}
  8033cc:	5d                   	pop    %rbp
  8033cd:	c3                   	ret    

00000000008033ce <strlcat>:
strlcat(char *restrict dst, const char *restrict src, size_t maxlen) {
  8033ce:	55                   	push   %rbp
  8033cf:	48 89 e5             	mov    %rsp,%rbp
  8033d2:	41 57                	push   %r15
  8033d4:	41 56                	push   %r14
  8033d6:	41 55                	push   %r13
  8033d8:	41 54                	push   %r12
  8033da:	53                   	push   %rbx
  8033db:	48 83 ec 08          	sub    $0x8,%rsp
  8033df:	49 89 fe             	mov    %rdi,%r14
  8033e2:	49 89 f7             	mov    %rsi,%r15
  8033e5:	48 89 d3             	mov    %rdx,%rbx
    const size_t srclen = strlen(src);
  8033e8:	48 89 f7             	mov    %rsi,%rdi
  8033eb:	48 b8 23 31 80 00 00 	movabs $0x803123,%rax
  8033f2:	00 00 00 
  8033f5:	ff d0                	call   *%rax
  8033f7:	49 89 c4             	mov    %rax,%r12
    const size_t dstlen = strnlen(dst, maxlen);
  8033fa:	48 89 de             	mov    %rbx,%rsi
  8033fd:	4c 89 f7             	mov    %r14,%rdi
  803400:	48 b8 3e 31 80 00 00 	movabs $0x80313e,%rax
  803407:	00 00 00 
  80340a:	ff d0                	call   *%rax
  80340c:	49 89 c5             	mov    %rax,%r13
    if (dstlen == maxlen) return maxlen + srclen;
  80340f:	48 39 c3             	cmp    %rax,%rbx
  803412:	74 36                	je     80344a <strlcat+0x7c>
    if (srclen < maxlen - dstlen) {
  803414:	48 89 d8             	mov    %rbx,%rax
  803417:	4c 29 e8             	sub    %r13,%rax
  80341a:	4c 39 e0             	cmp    %r12,%rax
  80341d:	76 30                	jbe    80344f <strlcat+0x81>
        memcpy(dst + dstlen, src, srclen + 1);
  80341f:	49 8d 54 24 01       	lea    0x1(%r12),%rdx
  803424:	4b 8d 3c 2e          	lea    (%r14,%r13,1),%rdi
  803428:	4c 89 fe             	mov    %r15,%rsi
  80342b:	48 b8 bc 33 80 00 00 	movabs $0x8033bc,%rax
  803432:	00 00 00 
  803435:	ff d0                	call   *%rax
    return dstlen + srclen;
  803437:	4b 8d 04 2c          	lea    (%r12,%r13,1),%rax
}
  80343b:	48 83 c4 08          	add    $0x8,%rsp
  80343f:	5b                   	pop    %rbx
  803440:	41 5c                	pop    %r12
  803442:	41 5d                	pop    %r13
  803444:	41 5e                	pop    %r14
  803446:	41 5f                	pop    %r15
  803448:	5d                   	pop    %rbp
  803449:	c3                   	ret    
    if (dstlen == maxlen) return maxlen + srclen;
  80344a:	4c 01 e0             	add    %r12,%rax
  80344d:	eb ec                	jmp    80343b <strlcat+0x6d>
        memcpy(dst + dstlen, src, maxlen - 1);
  80344f:	48 83 eb 01          	sub    $0x1,%rbx
  803453:	4b 8d 3c 2e          	lea    (%r14,%r13,1),%rdi
  803457:	48 89 da             	mov    %rbx,%rdx
  80345a:	4c 89 fe             	mov    %r15,%rsi
  80345d:	48 b8 bc 33 80 00 00 	movabs $0x8033bc,%rax
  803464:	00 00 00 
  803467:	ff d0                	call   *%rax
        dst[dstlen + maxlen - 1] = '\0';
  803469:	49 01 de             	add    %rbx,%r14
  80346c:	43 c6 04 2e 00       	movb   $0x0,(%r14,%r13,1)
  803471:	eb c4                	jmp    803437 <strlcat+0x69>

0000000000803473 <memcmp>:

int
memcmp(const void *v1, const void *v2, size_t n) {
  803473:	49 89 f0             	mov    %rsi,%r8
  803476:	48 89 d6             	mov    %rdx,%rsi
    const uint8_t *s1 = (const uint8_t *)v1;
    const uint8_t *s2 = (const uint8_t *)v2;

    while (n-- > 0) {
  803479:	48 85 d2             	test   %rdx,%rdx
  80347c:	74 2a                	je     8034a8 <memcmp+0x35>
  80347e:	b8 00 00 00 00       	mov    $0x0,%eax
        if (*s1 != *s2) {
  803483:	0f b6 14 07          	movzbl (%rdi,%rax,1),%edx
  803487:	41 0f b6 0c 00       	movzbl (%r8,%rax,1),%ecx
  80348c:	38 ca                	cmp    %cl,%dl
  80348e:	75 0f                	jne    80349f <memcmp+0x2c>
    while (n-- > 0) {
  803490:	48 83 c0 01          	add    $0x1,%rax
  803494:	48 39 c6             	cmp    %rax,%rsi
  803497:	75 ea                	jne    803483 <memcmp+0x10>
            return (int)*s1 - (int)*s2;
        }
        s1++, s2++;
    }

    return 0;
  803499:	b8 00 00 00 00       	mov    $0x0,%eax
  80349e:	c3                   	ret    
            return (int)*s1 - (int)*s2;
  80349f:	0f b6 c2             	movzbl %dl,%eax
  8034a2:	0f b6 c9             	movzbl %cl,%ecx
  8034a5:	29 c8                	sub    %ecx,%eax
  8034a7:	c3                   	ret    
    return 0;
  8034a8:	b8 00 00 00 00       	mov    $0x0,%eax
}
  8034ad:	c3                   	ret    

00000000008034ae <memfind>:

void *
memfind(const void *src, int c, size_t n) {
    const void *end = (const char *)src + n;
  8034ae:	48 8d 04 17          	lea    (%rdi,%rdx,1),%rax
    for (; src < end; src++) {
  8034b2:	48 39 c7             	cmp    %rax,%rdi
  8034b5:	73 0f                	jae    8034c6 <memfind+0x18>
        if (*(const unsigned char *)src == (unsigned char)c) break;
  8034b7:	40 38 37             	cmp    %sil,(%rdi)
  8034ba:	74 0e                	je     8034ca <memfind+0x1c>
    for (; src < end; src++) {
  8034bc:	48 83 c7 01          	add    $0x1,%rdi
  8034c0:	48 39 f8             	cmp    %rdi,%rax
  8034c3:	75 f2                	jne    8034b7 <memfind+0x9>
  8034c5:	c3                   	ret    
  8034c6:	48 89 f8             	mov    %rdi,%rax
  8034c9:	c3                   	ret    
  8034ca:	48 89 f8             	mov    %rdi,%rax
    }
    return (void *)src;
}
  8034cd:	c3                   	ret    

00000000008034ce <strtol>:

long
strtol(const char *s, char **endptr, int base) {
  8034ce:	49 89 f2             	mov    %rsi,%r10
  8034d1:	41 89 d0             	mov    %edx,%r8d
    /* Gobble initial whitespace */
    while (*s == ' ' || *s == '\t') s++;
  8034d4:	0f b6 37             	movzbl (%rdi),%esi
  8034d7:	40 80 fe 20          	cmp    $0x20,%sil
  8034db:	74 06                	je     8034e3 <strtol+0x15>
  8034dd:	40 80 fe 09          	cmp    $0x9,%sil
  8034e1:	75 13                	jne    8034f6 <strtol+0x28>
  8034e3:	48 83 c7 01          	add    $0x1,%rdi
  8034e7:	0f b6 37             	movzbl (%rdi),%esi
  8034ea:	40 80 fe 20          	cmp    $0x20,%sil
  8034ee:	74 f3                	je     8034e3 <strtol+0x15>
  8034f0:	40 80 fe 09          	cmp    $0x9,%sil
  8034f4:	74 ed                	je     8034e3 <strtol+0x15>

    bool neg = *s == '-';

    /* Plus/minus sign */
    if (*s == '+' || *s == '-') s++;
  8034f6:	8d 46 d5             	lea    -0x2b(%rsi),%eax
  8034f9:	83 e0 fd             	and    $0xfffffffd,%eax
  8034fc:	3c 01                	cmp    $0x1,%al
  8034fe:	48 83 d7 00          	adc    $0x0,%rdi

    /* Hex or octal base prefix */
    if ((!base || base == 16) && (s[0] == '0' && s[1] == 'x')) {
  803502:	41 f7 c0 ef ff ff ff 	test   $0xffffffef,%r8d
  803509:	75 11                	jne    80351c <strtol+0x4e>
  80350b:	80 3f 30             	cmpb   $0x30,(%rdi)
  80350e:	74 16                	je     803526 <strtol+0x58>
        s += 2;
    } else if (!base && s[0] == '0') {
        base = 8;
        s++;
    } else if (!base) {
        base = 10;
  803510:	45 85 c0             	test   %r8d,%r8d
  803513:	b8 0a 00 00 00       	mov    $0xa,%eax
  803518:	44 0f 44 c0          	cmove  %eax,%r8d
    }

    /* Digits */
    long val = 0;
  80351c:	ba 00 00 00 00       	mov    $0x0,%edx
            break;

        if (dig >= base) break;

        /* We don't properly detect overflow! */
        val = val * base + dig;
  803521:	4d 63 c8             	movslq %r8d,%r9
  803524:	eb 38                	jmp    80355e <strtol+0x90>
    if ((!base || base == 16) && (s[0] == '0' && s[1] == 'x')) {
  803526:	80 7f 01 78          	cmpb   $0x78,0x1(%rdi)
  80352a:	74 11                	je     80353d <strtol+0x6f>
    } else if (!base && s[0] == '0') {
  80352c:	45 85 c0             	test   %r8d,%r8d
  80352f:	75 eb                	jne    80351c <strtol+0x4e>
        s++;
  803531:	48 83 c7 01          	add    $0x1,%rdi
        base = 8;
  803535:	41 b8 08 00 00 00    	mov    $0x8,%r8d
        s++;
  80353b:	eb df                	jmp    80351c <strtol+0x4e>
        s += 2;
  80353d:	48 83 c7 02          	add    $0x2,%rdi
        base = 16;
  803541:	41 b8 10 00 00 00    	mov    $0x10,%r8d
        s += 2;
  803547:	eb d3                	jmp    80351c <strtol+0x4e>
            dig -= '0';
  803549:	83 e8 30             	sub    $0x30,%eax
        if (dig >= base) break;
  80354c:	0f b6 c8             	movzbl %al,%ecx
  80354f:	44 39 c1             	cmp    %r8d,%ecx
  803552:	7d 1f                	jge    803573 <strtol+0xa5>
        val = val * base + dig;
  803554:	49 0f af d1          	imul   %r9,%rdx
  803558:	0f b6 c0             	movzbl %al,%eax
  80355b:	48 01 c2             	add    %rax,%rdx
        uint8_t dig = *s++;
  80355e:	48 83 c7 01          	add    $0x1,%rdi
  803562:	0f b6 47 ff          	movzbl -0x1(%rdi),%eax
        if (dig - '0' < 10)
  803566:	3c 39                	cmp    $0x39,%al
  803568:	76 df                	jbe    803549 <strtol+0x7b>
        else if (dig - 'a' < 27)
  80356a:	3c 7b                	cmp    $0x7b,%al
  80356c:	77 05                	ja     803573 <strtol+0xa5>
            dig -= 'a' - 10;
  80356e:	83 e8 57             	sub    $0x57,%eax
  803571:	eb d9                	jmp    80354c <strtol+0x7e>
    }

    if (endptr) *endptr = (char *)s;
  803573:	4d 85 d2             	test   %r10,%r10
  803576:	74 03                	je     80357b <strtol+0xad>
  803578:	49 89 3a             	mov    %rdi,(%r10)

    return (neg ? -val : val);
  80357b:	48 89 d0             	mov    %rdx,%rax
  80357e:	48 f7 d8             	neg    %rax
  803581:	40 80 fe 2d          	cmp    $0x2d,%sil
  803585:	48 0f 44 d0          	cmove  %rax,%rdx
}
  803589:	48 89 d0             	mov    %rdx,%rax
  80358c:	c3                   	ret    

000000000080358d <sys_cputs>:

    return ret;
}

void
sys_cputs(const char *s, size_t len) {
  80358d:	55                   	push   %rbp
  80358e:	48 89 e5             	mov    %rsp,%rbp
  803591:	53                   	push   %rbx
  803592:	48 89 fa             	mov    %rdi,%rdx
  803595:	48 89 f1             	mov    %rsi,%rcx
    register uintptr_t _a0 asm("rax") = num,
  803598:	b8 00 00 00 00       	mov    $0x0,%eax
                           _a3 asm("rbx") = a3, _a4 asm("rdi") = a4,
  80359d:	bb 00 00 00 00       	mov    $0x0,%ebx
  8035a2:	bf 00 00 00 00       	mov    $0x0,%edi
                           _a5 asm("rsi") = a5, _a6 asm("r8") = a6;
  8035a7:	be 00 00 00 00       	mov    $0x0,%esi
  8035ac:	41 b8 00 00 00 00    	mov    $0x0,%r8d
    asm volatile("int %1\n"
  8035b2:	cd 30                	int    $0x30
    syscall(SYS_cputs, 0, (uintptr_t)s, len, 0, 0, 0, 0);
}
  8035b4:	48 8b 5d f8          	mov    -0x8(%rbp),%rbx
  8035b8:	c9                   	leave  
  8035b9:	c3                   	ret    

00000000008035ba <sys_cgetc>:

int
sys_cgetc(void) {
  8035ba:	55                   	push   %rbp
  8035bb:	48 89 e5             	mov    %rsp,%rbp
  8035be:	53                   	push   %rbx
    register uintptr_t _a0 asm("rax") = num,
  8035bf:	b8 01 00 00 00       	mov    $0x1,%eax
                           _a1 asm("rdx") = a1, _a2 asm("rcx") = a2,
  8035c4:	ba 00 00 00 00       	mov    $0x0,%edx
  8035c9:	b9 00 00 00 00       	mov    $0x0,%ecx
                           _a3 asm("rbx") = a3, _a4 asm("rdi") = a4,
  8035ce:	bb 00 00 00 00       	mov    $0x0,%ebx
  8035d3:	bf 00 00 00 00       	mov    $0x0,%edi
                           _a5 asm("rsi") = a5, _a6 asm("r8") = a6;
  8035d8:	be 00 00 00 00       	mov    $0x0,%esi
  8035dd:	41 b8 00 00 00 00    	mov    $0x0,%r8d
    asm volatile("int %1\n"
  8035e3:	cd 30                	int    $0x30
    return syscall(SYS_cgetc, 0, 0, 0, 0, 0, 0, 0);
}
  8035e5:	48 8b 5d f8          	mov    -0x8(%rbp),%rbx
  8035e9:	c9                   	leave  
  8035ea:	c3                   	ret    

00000000008035eb <sys_env_destroy>:

int
sys_env_destroy(envid_t envid) {
  8035eb:	55                   	push   %rbp
  8035ec:	48 89 e5             	mov    %rsp,%rbp
  8035ef:	53                   	push   %rbx
  8035f0:	48 83 ec 08          	sub    $0x8,%rsp
    return syscall(SYS_env_destroy, 1, envid, 0, 0, 0, 0, 0);
  8035f4:	48 63 d7             	movslq %edi,%rdx
    register uintptr_t _a0 asm("rax") = num,
  8035f7:	b8 03 00 00 00       	mov    $0x3,%eax
                           _a1 asm("rdx") = a1, _a2 asm("rcx") = a2,
  8035fc:	b9 00 00 00 00       	mov    $0x0,%ecx
                           _a3 asm("rbx") = a3, _a4 asm("rdi") = a4,
  803601:	bb 00 00 00 00       	mov    $0x0,%ebx
  803606:	bf 00 00 00 00       	mov    $0x0,%edi
                           _a5 asm("rsi") = a5, _a6 asm("r8") = a6;
  80360b:	be 00 00 00 00       	mov    $0x0,%esi
  803610:	41 b8 00 00 00 00    	mov    $0x0,%r8d
    asm volatile("int %1\n"
  803616:	cd 30                	int    $0x30
    if (check && ret > 0) {
  803618:	48 85 c0             	test   %rax,%rax
  80361b:	7f 06                	jg     803623 <sys_env_destroy+0x38>
}
  80361d:	48 8b 5d f8          	mov    -0x8(%rbp),%rbx
  803621:	c9                   	leave  
  803622:	c3                   	ret    
        panic("syscall %zd returned %zd (> 0)", num, ret);
  803623:	49 89 c0             	mov    %rax,%r8
  803626:	b9 03 00 00 00       	mov    $0x3,%ecx
  80362b:	48 ba 40 5d 80 00 00 	movabs $0x805d40,%rdx
  803632:	00 00 00 
  803635:	be 26 00 00 00       	mov    $0x26,%esi
  80363a:	48 bf 5f 5d 80 00 00 	movabs $0x805d5f,%rdi
  803641:	00 00 00 
  803644:	b8 00 00 00 00       	mov    $0x0,%eax
  803649:	49 b9 cb 26 80 00 00 	movabs $0x8026cb,%r9
  803650:	00 00 00 
  803653:	41 ff d1             	call   *%r9

0000000000803656 <sys_getenvid>:

envid_t
sys_getenvid(void) {
  803656:	55                   	push   %rbp
  803657:	48 89 e5             	mov    %rsp,%rbp
  80365a:	53                   	push   %rbx
    register uintptr_t _a0 asm("rax") = num,
  80365b:	b8 02 00 00 00       	mov    $0x2,%eax
                           _a1 asm("rdx") = a1, _a2 asm("rcx") = a2,
  803660:	ba 00 00 00 00       	mov    $0x0,%edx
  803665:	b9 00 00 00 00       	mov    $0x0,%ecx
                           _a3 asm("rbx") = a3, _a4 asm("rdi") = a4,
  80366a:	bb 00 00 00 00       	mov    $0x0,%ebx
  80366f:	bf 00 00 00 00       	mov    $0x0,%edi
                           _a5 asm("rsi") = a5, _a6 asm("r8") = a6;
  803674:	be 00 00 00 00       	mov    $0x0,%esi
  803679:	41 b8 00 00 00 00    	mov    $0x0,%r8d
    asm volatile("int %1\n"
  80367f:	cd 30                	int    $0x30
    return syscall(SYS_getenvid, 0, 0, 0, 0, 0, 0, 0);
}
  803681:	48 8b 5d f8          	mov    -0x8(%rbp),%rbx
  803685:	c9                   	leave  
  803686:	c3                   	ret    

0000000000803687 <sys_yield>:

void
sys_yield(void) {
  803687:	55                   	push   %rbp
  803688:	48 89 e5             	mov    %rsp,%rbp
  80368b:	53                   	push   %rbx
    register uintptr_t _a0 asm("rax") = num,
  80368c:	b8 0c 00 00 00       	mov    $0xc,%eax
                           _a1 asm("rdx") = a1, _a2 asm("rcx") = a2,
  803691:	ba 00 00 00 00       	mov    $0x0,%edx
  803696:	b9 00 00 00 00       	mov    $0x0,%ecx
                           _a3 asm("rbx") = a3, _a4 asm("rdi") = a4,
  80369b:	bb 00 00 00 00       	mov    $0x0,%ebx
  8036a0:	bf 00 00 00 00       	mov    $0x0,%edi
                           _a5 asm("rsi") = a5, _a6 asm("r8") = a6;
  8036a5:	be 00 00 00 00       	mov    $0x0,%esi
  8036aa:	41 b8 00 00 00 00    	mov    $0x0,%r8d
    asm volatile("int %1\n"
  8036b0:	cd 30                	int    $0x30
    syscall(SYS_yield, 0, 0, 0, 0, 0, 0, 0);
}
  8036b2:	48 8b 5d f8          	mov    -0x8(%rbp),%rbx
  8036b6:	c9                   	leave  
  8036b7:	c3                   	ret    

00000000008036b8 <sys_region_refs>:

int
sys_region_refs(void *va, size_t size) {
  8036b8:	55                   	push   %rbp
  8036b9:	48 89 e5             	mov    %rsp,%rbp
  8036bc:	53                   	push   %rbx
  8036bd:	48 89 fa             	mov    %rdi,%rdx
  8036c0:	48 89 f1             	mov    %rsi,%rcx
    register uintptr_t _a0 asm("rax") = num,
  8036c3:	b8 07 00 00 00       	mov    $0x7,%eax
                           _a3 asm("rbx") = a3, _a4 asm("rdi") = a4,
  8036c8:	48 bb 00 00 00 00 80 	movabs $0x8000000000,%rbx
  8036cf:	00 00 00 
  8036d2:	bf 00 00 00 00       	mov    $0x0,%edi
                           _a5 asm("rsi") = a5, _a6 asm("r8") = a6;
  8036d7:	be 00 00 00 00       	mov    $0x0,%esi
  8036dc:	41 b8 00 00 00 00    	mov    $0x0,%r8d
    asm volatile("int %1\n"
  8036e2:	cd 30                	int    $0x30
    return syscall(SYS_region_refs, 0, (uintptr_t)va, size, MAX_USER_ADDRESS, 0, 0, 0);
}
  8036e4:	48 8b 5d f8          	mov    -0x8(%rbp),%rbx
  8036e8:	c9                   	leave  
  8036e9:	c3                   	ret    

00000000008036ea <sys_region_refs2>:

int
sys_region_refs2(void *va, size_t size, void *va2, size_t size2) {
  8036ea:	55                   	push   %rbp
  8036eb:	48 89 e5             	mov    %rsp,%rbp
  8036ee:	53                   	push   %rbx
  8036ef:	49 89 f8             	mov    %rdi,%r8
  8036f2:	48 89 d3             	mov    %rdx,%rbx
  8036f5:	48 89 cf             	mov    %rcx,%rdi
    register uintptr_t _a0 asm("rax") = num,
  8036f8:	b8 07 00 00 00       	mov    $0x7,%eax
                           _a1 asm("rdx") = a1, _a2 asm("rcx") = a2,
  8036fd:	4c 89 c2             	mov    %r8,%rdx
  803700:	48 89 f1             	mov    %rsi,%rcx
                           _a5 asm("rsi") = a5, _a6 asm("r8") = a6;
  803703:	be 00 00 00 00       	mov    $0x0,%esi
  803708:	41 b8 00 00 00 00    	mov    $0x0,%r8d
    asm volatile("int %1\n"
  80370e:	cd 30                	int    $0x30
    return syscall(SYS_region_refs, 0, (uintptr_t)va, size, (uintptr_t)va2, size2, 0, 0);
}
  803710:	48 8b 5d f8          	mov    -0x8(%rbp),%rbx
  803714:	c9                   	leave  
  803715:	c3                   	ret    

0000000000803716 <sys_alloc_region>:

int
sys_alloc_region(envid_t envid, void *va, size_t size, int perm) {
  803716:	55                   	push   %rbp
  803717:	48 89 e5             	mov    %rsp,%rbp
  80371a:	53                   	push   %rbx
  80371b:	48 83 ec 08          	sub    $0x8,%rsp
  80371f:	89 f8                	mov    %edi,%eax
  803721:	48 89 d3             	mov    %rdx,%rbx
    int res = syscall(SYS_alloc_region, 1, envid, (uintptr_t)va, size, perm, 0, 0);
  803724:	48 63 f9             	movslq %ecx,%rdi
  803727:	48 63 d0             	movslq %eax,%rdx
    register uintptr_t _a0 asm("rax") = num,
  80372a:	b8 04 00 00 00       	mov    $0x4,%eax
                           _a1 asm("rdx") = a1, _a2 asm("rcx") = a2,
  80372f:	48 89 f1             	mov    %rsi,%rcx
                           _a5 asm("rsi") = a5, _a6 asm("r8") = a6;
  803732:	be 00 00 00 00       	mov    $0x0,%esi
  803737:	41 b8 00 00 00 00    	mov    $0x0,%r8d
    asm volatile("int %1\n"
  80373d:	cd 30                	int    $0x30
    if (check && ret > 0) {
  80373f:	48 85 c0             	test   %rax,%rax
  803742:	7f 06                	jg     80374a <sys_alloc_region+0x34>
        platform_asan_unpoison(va, size);
    }
#endif

    return res;
}
  803744:	48 8b 5d f8          	mov    -0x8(%rbp),%rbx
  803748:	c9                   	leave  
  803749:	c3                   	ret    
        panic("syscall %zd returned %zd (> 0)", num, ret);
  80374a:	49 89 c0             	mov    %rax,%r8
  80374d:	b9 04 00 00 00       	mov    $0x4,%ecx
  803752:	48 ba 40 5d 80 00 00 	movabs $0x805d40,%rdx
  803759:	00 00 00 
  80375c:	be 26 00 00 00       	mov    $0x26,%esi
  803761:	48 bf 5f 5d 80 00 00 	movabs $0x805d5f,%rdi
  803768:	00 00 00 
  80376b:	b8 00 00 00 00       	mov    $0x0,%eax
  803770:	49 b9 cb 26 80 00 00 	movabs $0x8026cb,%r9
  803777:	00 00 00 
  80377a:	41 ff d1             	call   *%r9

000000000080377d <sys_map_region>:

int
sys_map_region(envid_t srcenv, void *srcva, envid_t dstenv, void *dstva, size_t size, int perm) {
  80377d:	55                   	push   %rbp
  80377e:	48 89 e5             	mov    %rsp,%rbp
  803781:	53                   	push   %rbx
  803782:	48 83 ec 08          	sub    $0x8,%rsp
  803786:	89 f8                	mov    %edi,%eax
  803788:	49 89 f2             	mov    %rsi,%r10
  80378b:	48 89 cf             	mov    %rcx,%rdi
  80378e:	4c 89 c6             	mov    %r8,%rsi
    int res = syscall(SYS_map_region, 1, srcenv, (uintptr_t)srcva, dstenv, (uintptr_t)dstva, size, perm);
  803791:	48 63 da             	movslq %edx,%rbx
  803794:	48 63 d0             	movslq %eax,%rdx
    register uintptr_t _a0 asm("rax") = num,
  803797:	b8 05 00 00 00       	mov    $0x5,%eax
                           _a1 asm("rdx") = a1, _a2 asm("rcx") = a2,
  80379c:	4c 89 d1             	mov    %r10,%rcx
                           _a5 asm("rsi") = a5, _a6 asm("r8") = a6;
  80379f:	4d 63 c1             	movslq %r9d,%r8
    asm volatile("int %1\n"
  8037a2:	cd 30                	int    $0x30
    if (check && ret > 0) {
  8037a4:	48 85 c0             	test   %rax,%rax
  8037a7:	7f 06                	jg     8037af <sys_map_region+0x32>
#ifdef SANITIZE_USER_SHADOW_BASE
    if (!res && dstenv == CURENVID)
        platform_asan_unpoison(dstva, size);
#endif
    return res;
}
  8037a9:	48 8b 5d f8          	mov    -0x8(%rbp),%rbx
  8037ad:	c9                   	leave  
  8037ae:	c3                   	ret    
        panic("syscall %zd returned %zd (> 0)", num, ret);
  8037af:	49 89 c0             	mov    %rax,%r8
  8037b2:	b9 05 00 00 00       	mov    $0x5,%ecx
  8037b7:	48 ba 40 5d 80 00 00 	movabs $0x805d40,%rdx
  8037be:	00 00 00 
  8037c1:	be 26 00 00 00       	mov    $0x26,%esi
  8037c6:	48 bf 5f 5d 80 00 00 	movabs $0x805d5f,%rdi
  8037cd:	00 00 00 
  8037d0:	b8 00 00 00 00       	mov    $0x0,%eax
  8037d5:	49 b9 cb 26 80 00 00 	movabs $0x8026cb,%r9
  8037dc:	00 00 00 
  8037df:	41 ff d1             	call   *%r9

00000000008037e2 <sys_unmap_region>:

int
sys_unmap_region(envid_t envid, void *va, size_t size) {
  8037e2:	55                   	push   %rbp
  8037e3:	48 89 e5             	mov    %rsp,%rbp
  8037e6:	53                   	push   %rbx
  8037e7:	48 83 ec 08          	sub    $0x8,%rsp
  8037eb:	48 89 f1             	mov    %rsi,%rcx
  8037ee:	48 89 d3             	mov    %rdx,%rbx
    int res = syscall(SYS_unmap_region, 1, envid, (uintptr_t)va, size, 0, 0, 0);
  8037f1:	48 63 d7             	movslq %edi,%rdx
    register uintptr_t _a0 asm("rax") = num,
  8037f4:	b8 06 00 00 00       	mov    $0x6,%eax
                           _a3 asm("rbx") = a3, _a4 asm("rdi") = a4,
  8037f9:	bf 00 00 00 00       	mov    $0x0,%edi
                           _a5 asm("rsi") = a5, _a6 asm("r8") = a6;
  8037fe:	be 00 00 00 00       	mov    $0x0,%esi
  803803:	41 b8 00 00 00 00    	mov    $0x0,%r8d
    asm volatile("int %1\n"
  803809:	cd 30                	int    $0x30
    if (check && ret > 0) {
  80380b:	48 85 c0             	test   %rax,%rax
  80380e:	7f 06                	jg     803816 <sys_unmap_region+0x34>
                 (uintptr_t)va >= SANITIZE_USER_SHADOW_SIZE + SANITIZE_USER_SHADOW_BASE)) {
        platform_asan_poison(va, size);
    }
#endif
    return res;
}
  803810:	48 8b 5d f8          	mov    -0x8(%rbp),%rbx
  803814:	c9                   	leave  
  803815:	c3                   	ret    
        panic("syscall %zd returned %zd (> 0)", num, ret);
  803816:	49 89 c0             	mov    %rax,%r8
  803819:	b9 06 00 00 00       	mov    $0x6,%ecx
  80381e:	48 ba 40 5d 80 00 00 	movabs $0x805d40,%rdx
  803825:	00 00 00 
  803828:	be 26 00 00 00       	mov    $0x26,%esi
  80382d:	48 bf 5f 5d 80 00 00 	movabs $0x805d5f,%rdi
  803834:	00 00 00 
  803837:	b8 00 00 00 00       	mov    $0x0,%eax
  80383c:	49 b9 cb 26 80 00 00 	movabs $0x8026cb,%r9
  803843:	00 00 00 
  803846:	41 ff d1             	call   *%r9

0000000000803849 <sys_env_set_status>:

/* sys_exofork is inlined in lib.h */

int
sys_env_set_status(envid_t envid, int status) {
  803849:	55                   	push   %rbp
  80384a:	48 89 e5             	mov    %rsp,%rbp
  80384d:	53                   	push   %rbx
  80384e:	48 83 ec 08          	sub    $0x8,%rsp
    return syscall(SYS_env_set_status, 1, envid, status, 0, 0, 0, 0);
  803852:	48 63 ce             	movslq %esi,%rcx
  803855:	48 63 d7             	movslq %edi,%rdx
    register uintptr_t _a0 asm("rax") = num,
  803858:	b8 09 00 00 00       	mov    $0x9,%eax
                           _a3 asm("rbx") = a3, _a4 asm("rdi") = a4,
  80385d:	bb 00 00 00 00       	mov    $0x0,%ebx
  803862:	bf 00 00 00 00       	mov    $0x0,%edi
                           _a5 asm("rsi") = a5, _a6 asm("r8") = a6;
  803867:	be 00 00 00 00       	mov    $0x0,%esi
  80386c:	41 b8 00 00 00 00    	mov    $0x0,%r8d
    asm volatile("int %1\n"
  803872:	cd 30                	int    $0x30
    if (check && ret > 0) {
  803874:	48 85 c0             	test   %rax,%rax
  803877:	7f 06                	jg     80387f <sys_env_set_status+0x36>
}
  803879:	48 8b 5d f8          	mov    -0x8(%rbp),%rbx
  80387d:	c9                   	leave  
  80387e:	c3                   	ret    
        panic("syscall %zd returned %zd (> 0)", num, ret);
  80387f:	49 89 c0             	mov    %rax,%r8
  803882:	b9 09 00 00 00       	mov    $0x9,%ecx
  803887:	48 ba 40 5d 80 00 00 	movabs $0x805d40,%rdx
  80388e:	00 00 00 
  803891:	be 26 00 00 00       	mov    $0x26,%esi
  803896:	48 bf 5f 5d 80 00 00 	movabs $0x805d5f,%rdi
  80389d:	00 00 00 
  8038a0:	b8 00 00 00 00       	mov    $0x0,%eax
  8038a5:	49 b9 cb 26 80 00 00 	movabs $0x8026cb,%r9
  8038ac:	00 00 00 
  8038af:	41 ff d1             	call   *%r9

00000000008038b2 <sys_env_set_trapframe>:

int
sys_env_set_trapframe(envid_t envid, struct Trapframe *tf) {
  8038b2:	55                   	push   %rbp
  8038b3:	48 89 e5             	mov    %rsp,%rbp
  8038b6:	53                   	push   %rbx
  8038b7:	48 83 ec 08          	sub    $0x8,%rsp
  8038bb:	48 89 f1             	mov    %rsi,%rcx
    return syscall(SYS_env_set_trapframe, 1, envid, (uintptr_t)tf, 0, 0, 0, 0);
  8038be:	48 63 d7             	movslq %edi,%rdx
    register uintptr_t _a0 asm("rax") = num,
  8038c1:	b8 0a 00 00 00       	mov    $0xa,%eax
                           _a3 asm("rbx") = a3, _a4 asm("rdi") = a4,
  8038c6:	bb 00 00 00 00       	mov    $0x0,%ebx
  8038cb:	bf 00 00 00 00       	mov    $0x0,%edi
                           _a5 asm("rsi") = a5, _a6 asm("r8") = a6;
  8038d0:	be 00 00 00 00       	mov    $0x0,%esi
  8038d5:	41 b8 00 00 00 00    	mov    $0x0,%r8d
    asm volatile("int %1\n"
  8038db:	cd 30                	int    $0x30
    if (check && ret > 0) {
  8038dd:	48 85 c0             	test   %rax,%rax
  8038e0:	7f 06                	jg     8038e8 <sys_env_set_trapframe+0x36>
}
  8038e2:	48 8b 5d f8          	mov    -0x8(%rbp),%rbx
  8038e6:	c9                   	leave  
  8038e7:	c3                   	ret    
        panic("syscall %zd returned %zd (> 0)", num, ret);
  8038e8:	49 89 c0             	mov    %rax,%r8
  8038eb:	b9 0a 00 00 00       	mov    $0xa,%ecx
  8038f0:	48 ba 40 5d 80 00 00 	movabs $0x805d40,%rdx
  8038f7:	00 00 00 
  8038fa:	be 26 00 00 00       	mov    $0x26,%esi
  8038ff:	48 bf 5f 5d 80 00 00 	movabs $0x805d5f,%rdi
  803906:	00 00 00 
  803909:	b8 00 00 00 00       	mov    $0x0,%eax
  80390e:	49 b9 cb 26 80 00 00 	movabs $0x8026cb,%r9
  803915:	00 00 00 
  803918:	41 ff d1             	call   *%r9

000000000080391b <sys_env_set_pgfault_upcall>:

int
sys_env_set_pgfault_upcall(envid_t envid, void *upcall) {
  80391b:	55                   	push   %rbp
  80391c:	48 89 e5             	mov    %rsp,%rbp
  80391f:	53                   	push   %rbx
  803920:	48 83 ec 08          	sub    $0x8,%rsp
  803924:	48 89 f1             	mov    %rsi,%rcx
    return syscall(SYS_env_set_pgfault_upcall, 1, envid, (uintptr_t)upcall, 0, 0, 0, 0);
  803927:	48 63 d7             	movslq %edi,%rdx
    register uintptr_t _a0 asm("rax") = num,
  80392a:	b8 0b 00 00 00       	mov    $0xb,%eax
                           _a3 asm("rbx") = a3, _a4 asm("rdi") = a4,
  80392f:	bb 00 00 00 00       	mov    $0x0,%ebx
  803934:	bf 00 00 00 00       	mov    $0x0,%edi
                           _a5 asm("rsi") = a5, _a6 asm("r8") = a6;
  803939:	be 00 00 00 00       	mov    $0x0,%esi
  80393e:	41 b8 00 00 00 00    	mov    $0x0,%r8d
    asm volatile("int %1\n"
  803944:	cd 30                	int    $0x30
    if (check && ret > 0) {
  803946:	48 85 c0             	test   %rax,%rax
  803949:	7f 06                	jg     803951 <sys_env_set_pgfault_upcall+0x36>
}
  80394b:	48 8b 5d f8          	mov    -0x8(%rbp),%rbx
  80394f:	c9                   	leave  
  803950:	c3                   	ret    
        panic("syscall %zd returned %zd (> 0)", num, ret);
  803951:	49 89 c0             	mov    %rax,%r8
  803954:	b9 0b 00 00 00       	mov    $0xb,%ecx
  803959:	48 ba 40 5d 80 00 00 	movabs $0x805d40,%rdx
  803960:	00 00 00 
  803963:	be 26 00 00 00       	mov    $0x26,%esi
  803968:	48 bf 5f 5d 80 00 00 	movabs $0x805d5f,%rdi
  80396f:	00 00 00 
  803972:	b8 00 00 00 00       	mov    $0x0,%eax
  803977:	49 b9 cb 26 80 00 00 	movabs $0x8026cb,%r9
  80397e:	00 00 00 
  803981:	41 ff d1             	call   *%r9

0000000000803984 <sys_ipc_try_send>:
